---
triple:          'x86_64-apple-darwin'
binary-path:     main
relocations:
  - { offsetInCU: 0x3F, offset: 0x3F, size: 0x8, addend: 0x0, symName: _Point2, symObjAddr: 0x41F3A0, symBinAddr: 0x100192C00, symSize: 0x0 }
  - { offsetInCU: 0xEC, offset: 0xEC, size: 0x8, addend: 0x0, symName: _Point3, symObjAddr: 0x41F3C0, symBinAddr: 0x100192C20, symSize: 0x0 }
  - { offsetInCU: 0x19A, offset: 0x19A, size: 0x8, addend: 0x0, symName: _.str, symObjAddr: 0x167900, symBinAddr: 0x10016ACC0, symSize: 0x0 }
  - { offsetInCU: 0x1CA, offset: 0x1CA, size: 0x8, addend: 0x0, symName: _.str.1, symObjAddr: 0x167920, symBinAddr: 0x10016ACE0, symSize: 0x0 }
  - { offsetInCU: 0x1E7, offset: 0x1E7, size: 0x8, addend: 0x0, symName: _.str.2, symObjAddr: 0x167940, symBinAddr: 0x10016AD00, symSize: 0x0 }
  - { offsetInCU: 0x204, offset: 0x204, size: 0x8, addend: 0x0, symName: _.str.3, symObjAddr: 0x167980, symBinAddr: 0x10016AD40, symSize: 0x0 }
  - { offsetInCU: 0x221, offset: 0x221, size: 0x8, addend: 0x0, symName: _.str.4, symObjAddr: 0x1679E0, symBinAddr: 0x10016ADA0, symSize: 0x0 }
  - { offsetInCU: 0x23E, offset: 0x23E, size: 0x8, addend: 0x0, symName: _.str.5, symObjAddr: 0x167A00, symBinAddr: 0x10016ADC0, symSize: 0x0 }
  - { offsetInCU: 0x25B, offset: 0x25B, size: 0x8, addend: 0x0, symName: _.str.6, symObjAddr: 0x167A20, symBinAddr: 0x10016ADE0, symSize: 0x0 }
  - { offsetInCU: 0x278, offset: 0x278, size: 0x8, addend: 0x0, symName: _.str.7, symObjAddr: 0x167A60, symBinAddr: 0x10016AE20, symSize: 0x0 }
  - { offsetInCU: 0x289, offset: 0x289, size: 0x8, addend: 0x0, symName: _.str.8, symObjAddr: 0x167A80, symBinAddr: 0x10016AE40, symSize: 0x0 }
  - { offsetInCU: 0x2A6, offset: 0x2A6, size: 0x8, addend: 0x0, symName: _.str.9, symObjAddr: 0x167AC0, symBinAddr: 0x10016AE80, symSize: 0x0 }
  - { offsetInCU: 0x2C3, offset: 0x2C3, size: 0x8, addend: 0x0, symName: _.str.10, symObjAddr: 0x167B00, symBinAddr: 0x10016AEC0, symSize: 0x0 }
  - { offsetInCU: 0x2E0, offset: 0x2E0, size: 0x8, addend: 0x0, symName: _.str.11, symObjAddr: 0x167B40, symBinAddr: 0x10016AF00, symSize: 0x0 }
  - { offsetInCU: 0x2FD, offset: 0x2FD, size: 0x8, addend: 0x0, symName: _.str.12, symObjAddr: 0x167B80, symBinAddr: 0x10016AF40, symSize: 0x0 }
  - { offsetInCU: 0x31A, offset: 0x31A, size: 0x8, addend: 0x0, symName: _.str.13, symObjAddr: 0x167BA0, symBinAddr: 0x10016AF60, symSize: 0x0 }
  - { offsetInCU: 0x32B, offset: 0x32B, size: 0x8, addend: 0x0, symName: _.str.14, symObjAddr: 0x167BE0, symBinAddr: 0x10016AFA0, symSize: 0x0 }
  - { offsetInCU: 0x348, offset: 0x348, size: 0x8, addend: 0x0, symName: _.str.15, symObjAddr: 0x167C20, symBinAddr: 0x10016AFE0, symSize: 0x0 }
  - { offsetInCU: 0x365, offset: 0x365, size: 0x8, addend: 0x0, symName: _.str.16, symObjAddr: 0x167C60, symBinAddr: 0x10016B020, symSize: 0x0 }
  - { offsetInCU: 0x382, offset: 0x382, size: 0x8, addend: 0x0, symName: _.str.17, symObjAddr: 0x167CC0, symBinAddr: 0x10016B080, symSize: 0x0 }
  - { offsetInCU: 0x39F, offset: 0x39F, size: 0x8, addend: 0x0, symName: _.str.18, symObjAddr: 0x167CE0, symBinAddr: 0x10016B0A0, symSize: 0x0 }
  - { offsetInCU: 0x3BC, offset: 0x3BC, size: 0x8, addend: 0x0, symName: _.str.19, symObjAddr: 0x167D00, symBinAddr: 0x10016B0C0, symSize: 0x0 }
  - { offsetInCU: 0x3CD, offset: 0x3CD, size: 0x8, addend: 0x0, symName: _.str.20, symObjAddr: 0x167D40, symBinAddr: 0x10016B100, symSize: 0x0 }
  - { offsetInCU: 0x3EA, offset: 0x3EA, size: 0x8, addend: 0x0, symName: _.str.21, symObjAddr: 0x167D60, symBinAddr: 0x10016B120, symSize: 0x0 }
  - { offsetInCU: 0x407, offset: 0x407, size: 0x8, addend: 0x0, symName: _.str.22, symObjAddr: 0x167D80, symBinAddr: 0x10016B140, symSize: 0x0 }
  - { offsetInCU: 0x424, offset: 0x424, size: 0x8, addend: 0x0, symName: _.str.23, symObjAddr: 0x167DC0, symBinAddr: 0x10016B180, symSize: 0x0 }
  - { offsetInCU: 0x441, offset: 0x441, size: 0x8, addend: 0x0, symName: _.str.24, symObjAddr: 0x167E20, symBinAddr: 0x10016B1E0, symSize: 0x0 }
  - { offsetInCU: 0x45E, offset: 0x45E, size: 0x8, addend: 0x0, symName: _.str.25, symObjAddr: 0x167E80, symBinAddr: 0x10016B240, symSize: 0x0 }
  - { offsetInCU: 0x46F, offset: 0x46F, size: 0x8, addend: 0x0, symName: _.str.26, symObjAddr: 0x167EE0, symBinAddr: 0x10016B2A0, symSize: 0x0 }
  - { offsetInCU: 0x480, offset: 0x480, size: 0x8, addend: 0x0, symName: ___func__._ZN3vkb6detail24GenericFeaturesPNextNode5matchERKS1_S3_, symObjAddr: 0x167F40, symBinAddr: 0x10016B300, symSize: 0x0 }
  - { offsetInCU: 0x49D, offset: 0x49D, size: 0x8, addend: 0x0, symName: _.str.27, symObjAddr: 0x167F60, symBinAddr: 0x10016B320, symSize: 0x0 }
  - { offsetInCU: 0x4BA, offset: 0x4BA, size: 0x8, addend: 0x0, symName: _.str.28, symObjAddr: 0x167F80, symBinAddr: 0x10016B340, symSize: 0x0 }
  - { offsetInCU: 0x4D7, offset: 0x4D7, size: 0x8, addend: 0x0, symName: _.str.29, symObjAddr: 0x168000, symBinAddr: 0x10016B3C0, symSize: 0x0 }
  - { offsetInCU: 0x4E8, offset: 0x4E8, size: 0x8, addend: 0x0, symName: _.str.30, symObjAddr: 0x168020, symBinAddr: 0x10016B3E0, symSize: 0x0 }
  - { offsetInCU: 0x4FA, offset: 0x4FA, size: 0x8, addend: 0x0, symName: _.str.31, symObjAddr: 0x168040, symBinAddr: 0x10016B400, symSize: 0x0 }
  - { offsetInCU: 0x50C, offset: 0x50C, size: 0x8, addend: 0x0, symName: _.str.32, symObjAddr: 0x168060, symBinAddr: 0x10016B420, symSize: 0x0 }
  - { offsetInCU: 0x52A, offset: 0x52A, size: 0x8, addend: 0x0, symName: _.str.33, symObjAddr: 0x168080, symBinAddr: 0x10016B440, symSize: 0x0 }
  - { offsetInCU: 0x53C, offset: 0x53C, size: 0x8, addend: 0x0, symName: _.str.34, symObjAddr: 0x1680A0, symBinAddr: 0x10016B460, symSize: 0x0 }
  - { offsetInCU: 0x55A, offset: 0x55A, size: 0x8, addend: 0x0, symName: _.str.35, symObjAddr: 0x168100, symBinAddr: 0x10016B4C0, symSize: 0x0 }
  - { offsetInCU: 0x56C, offset: 0x56C, size: 0x8, addend: 0x0, symName: _.str.36, symObjAddr: 0x168140, symBinAddr: 0x10016B500, symSize: 0x0 }
  - { offsetInCU: 0x58A, offset: 0x58A, size: 0x8, addend: 0x0, symName: _.str.37, symObjAddr: 0x168180, symBinAddr: 0x10016B540, symSize: 0x0 }
  - { offsetInCU: 0x59C, offset: 0x59C, size: 0x8, addend: 0x0, symName: _.str.38, symObjAddr: 0x1681A0, symBinAddr: 0x10016B560, symSize: 0x0 }
  - { offsetInCU: 0x5AE, offset: 0x5AE, size: 0x8, addend: 0x0, symName: _.str.39, symObjAddr: 0x1681E0, symBinAddr: 0x10016B5A0, symSize: 0x0 }
  - { offsetInCU: 0x5C0, offset: 0x5C0, size: 0x8, addend: 0x0, symName: _.str.40, symObjAddr: 0x168200, symBinAddr: 0x10016B5C0, symSize: 0x0 }
  - { offsetInCU: 0x5D2, offset: 0x5D2, size: 0x8, addend: 0x0, symName: _.str.41, symObjAddr: 0x168220, symBinAddr: 0x10016B5E0, symSize: 0x0 }
  - { offsetInCU: 0x5E4, offset: 0x5E4, size: 0x8, addend: 0x0, symName: _.str.42, symObjAddr: 0x168240, symBinAddr: 0x10016B600, symSize: 0x0 }
  - { offsetInCU: 0x610, offset: 0x610, size: 0x8, addend: 0x0, symName: __ZN3vkb6detail21validation_layer_nameE, symObjAddr: 0x174460, symBinAddr: 0x100184000, symSize: 0x0 }
  - { offsetInCU: 0x62A, offset: 0x62A, size: 0x8, addend: 0x0, symName: __ZN3vkb6detailL23instance_error_categoryE, symObjAddr: 0x174480, symBinAddr: 0x100184020, symSize: 0x0 }
  - { offsetInCU: 0x6AD, offset: 0x6AD, size: 0x8, addend: 0x0, symName: __ZN3vkb6detailL30physical_device_error_categoryE, symObjAddr: 0x1744A0, symBinAddr: 0x100184040, symSize: 0x0 }
  - { offsetInCU: 0x730, offset: 0x730, size: 0x8, addend: 0x0, symName: __ZN3vkb6detailL20queue_error_categoryE, symObjAddr: 0x1744C0, symBinAddr: 0x100184060, symSize: 0x0 }
  - { offsetInCU: 0x7B3, offset: 0x7B3, size: 0x8, addend: 0x0, symName: __ZN3vkb6detailL21device_error_categoryE, symObjAddr: 0x1744E0, symBinAddr: 0x100184080, symSize: 0x0 }
  - { offsetInCU: 0x836, offset: 0x836, size: 0x8, addend: 0x0, symName: __ZN3vkb6detailL24swapchain_error_categoryE, symObjAddr: 0x174500, symBinAddr: 0x1001840A0, symSize: 0x0 }
  - { offsetInCU: 0x8C8, offset: 0x8C8, size: 0x8, addend: 0x0, symName: __ZN3vkb6detailL30surface_support_error_categoryE, symObjAddr: 0x174520, symBinAddr: 0x1001840C0, symSize: 0x0 }
  - { offsetInCU: 0x93E, offset: 0x93E, size: 0x8, addend: 0x0, symName: __ZN3vkb6detailL16vulkan_functionsEv, symObjAddr: 0x3D30, symBinAddr: 0x100006540, symSize: 0x60 }
  - { offsetInCU: 0x967, offset: 0x967, size: 0x8, addend: 0x0, symName: __ZZN3vkb6detailL16vulkan_functionsEvE1v, symObjAddr: 0x174540, symBinAddr: 0x1001840E0, symSize: 0x0 }
  - { offsetInCU: 0xFD0, offset: 0xFD0, size: 0x8, addend: 0x0, symName: __ZN3vkb6detail21check_layer_supportedERKNSt3__16vectorI17VkLayerPropertiesNS1_9allocatorIS3_EEEEPKc, symObjAddr: 0x3E40, symBinAddr: 0x100006650, symSize: 0x2F0 }
  - { offsetInCU: 0x1068, offset: 0x1068, size: 0x8, addend: 0x0, symName: __ZN3vkb6detail22check_layers_supportedERKNSt3__16vectorI17VkLayerPropertiesNS1_9allocatorIS3_EEEERKNS2_IPKcNS4_ISA_EEEE, symObjAddr: 0x45D0, symBinAddr: 0x100006DE0, symSize: 0x2D0 }
  - { offsetInCU: 0x112E, offset: 0x112E, size: 0x8, addend: 0x0, symName: __ZN3vkb6detail25check_extension_supportedERKNSt3__16vectorI21VkExtensionPropertiesNS1_9allocatorIS3_EEEEPKc, symObjAddr: 0x4D40, symBinAddr: 0x100007550, symSize: 0x2F0 }
  - { offsetInCU: 0x11C6, offset: 0x11C6, size: 0x8, addend: 0x0, symName: __ZN3vkb6detail26check_extensions_supportedERKNSt3__16vectorI21VkExtensionPropertiesNS1_9allocatorIS3_EEEERKNS2_IPKcNS4_ISA_EEEE, symObjAddr: 0x54D0, symBinAddr: 0x100007CE0, symSize: 0x2D0 }
  - { offsetInCU: 0x128C, offset: 0x128C, size: 0x8, addend: 0x0, symName: __ZN3vkb6detail10get_vectorI17VkLayerPropertiesRPF8VkResultPjPS2_EJEEES3_RNSt3__16vectorIT_NS9_9allocatorISB_EEEEOT0_DpOT1_, symObjAddr: 0x8330, symBinAddr: 0x10000AB40, symSize: 0x350 }
  - { offsetInCU: 0x1300, offset: 0x1300, size: 0x8, addend: 0x0, symName: __ZN3vkb6detail10get_vectorI21VkExtensionPropertiesRPF8VkResultPKcPjPS2_EJDnEEES3_RNSt3__16vectorIT_NSB_9allocatorISD_EEEEOT0_DpOT1_, symObjAddr: 0x8B80, symBinAddr: 0x10000B390, symSize: 0x380 }
  - { offsetInCU: 0x1389, offset: 0x1389, size: 0x8, addend: 0x0, symName: __ZN3vkb6detail10get_vectorI21VkExtensionPropertiesRPF8VkResultPKcPjPS2_EJRA256_cEEES3_RNSt3__16vectorIT_NSD_9allocatorISF_EEEEOT0_DpOT1_, symObjAddr: 0x9400, symBinAddr: 0x10000BC10, symSize: 0x390 }
  - { offsetInCU: 0x1412, offset: 0x1412, size: 0x8, addend: 0x0, symName: __ZN3vkb6detail17setup_pNext_chainI20VkInstanceCreateInfoEEvRT_RKNSt3__16vectorIP18VkBaseOutStructureNS5_9allocatorIS8_EEEE, symObjAddr: 0x10400, symBinAddr: 0x100012C10, symSize: 0x1F0 }
  - { offsetInCU: 0x1471, offset: 0x1471, size: 0x8, addend: 0x0, symName: __ZN3vkb6detail30check_device_extension_supportERKNSt3__16vectorINS1_12basic_stringIcNS1_11char_traitsIcEENS1_9allocatorIcEEEENS6_IS8_EEEESC_, symObjAddr: 0x129B0, symBinAddr: 0x1000151C0, symSize: 0x530 }
  - { offsetInCU: 0x155C, offset: 0x155C, size: 0x8, addend: 0x0, symName: __ZN3vkb6detail17supports_featuresE24VkPhysicalDeviceFeaturesS1_RKNSt3__16vectorINS0_24GenericFeaturesPNextNodeENS2_9allocatorIS4_EEEES9_, symObjAddr: 0x13570, symBinAddr: 0x100015D80, symSize: 0x3560 }
  - { offsetInCU: 0x15F6, offset: 0x15F6, size: 0x8, addend: 0x0, symName: __ZN3vkb6detail21get_first_queue_indexERKNSt3__16vectorI23VkQueueFamilyPropertiesNS1_9allocatorIS3_EEEEj, symObjAddr: 0x16BD0, symBinAddr: 0x1000193E0, symSize: 0xF0 }
  - { offsetInCU: 0x1650, offset: 0x1650, size: 0x8, addend: 0x0, symName: __ZN3vkb6detail24get_separate_queue_indexERKNSt3__16vectorI23VkQueueFamilyPropertiesNS1_9allocatorIS3_EEEEjj, symObjAddr: 0x16DC0, symBinAddr: 0x1000195D0, symSize: 0x1D0 }
  - { offsetInCU: 0x16C8, offset: 0x16C8, size: 0x8, addend: 0x0, symName: __ZN3vkb6detail25get_dedicated_queue_indexERKNSt3__16vectorI23VkQueueFamilyPropertiesNS1_9allocatorIS3_EEEEjj, symObjAddr: 0x16F90, symBinAddr: 0x1000197A0, symSize: 0x1C0 }
  - { offsetInCU: 0x1731, offset: 0x1731, size: 0x8, addend: 0x0, symName: __ZN3vkb6detail23get_present_queue_indexEP18VkPhysicalDevice_TP14VkSurfaceKHR_TRKNSt3__16vectorI23VkQueueFamilyPropertiesNS5_9allocatorIS7_EEEE, symObjAddr: 0x17150, symBinAddr: 0x100019960, symSize: 0x310 }
  - { offsetInCU: 0x17CD, offset: 0x17CD, size: 0x8, addend: 0x0, symName: __ZN3vkb6detail18get_vector_noerrorI23VkQueueFamilyPropertiesRPFvP18VkPhysicalDevice_TPjPS2_EJRS4_EEENSt3__16vectorIT_NSB_9allocatorISD_EEEEOT0_DpOT1_, symObjAddr: 0x18920, symBinAddr: 0x10001B130, symSize: 0x470 }
  - { offsetInCU: 0x1848, offset: 0x1848, size: 0x8, addend: 0x0, symName: __ZN3vkb6detail10get_vectorI21VkExtensionPropertiesRPF8VkResultP18VkPhysicalDevice_TPKcPjPS2_EJRS5_DnEEES3_RNSt3__16vectorIT_NSE_9allocatorISG_EEEEOT0_DpOT1_, symObjAddr: 0x18E80, symBinAddr: 0x10001B690, symSize: 0x410 }
  - { offsetInCU: 0x18E5, offset: 0x18E5, size: 0x8, addend: 0x0, symName: __ZN3vkb6detail10get_vectorI18VkSurfaceFormatKHRRPF8VkResultP18VkPhysicalDevice_TP14VkSurfaceKHR_TPjPS2_EJRKS5_RKS7_EEES3_RNSt3__16vectorIT_NSH_9allocatorISJ_EEEEOT0_DpOT1_, symObjAddr: 0x1B2F0, symBinAddr: 0x10001DB00, symSize: 0x4D0 }
  - { offsetInCU: 0x1982, offset: 0x1982, size: 0x8, addend: 0x0, symName: __ZN3vkb6detail10get_vectorI16VkPresentModeKHRRPF8VkResultP18VkPhysicalDevice_TP14VkSurfaceKHR_TPjPS2_EJRKS5_RKS7_EEES3_RNSt3__16vectorIT_NSH_9allocatorISJ_EEEEOT0_DpOT1_, symObjAddr: 0x1B7C0, symBinAddr: 0x10001DFD0, symSize: 0x4D0 }
  - { offsetInCU: 0x1A1F, offset: 0x1A1F, size: 0x8, addend: 0x0, symName: __ZN3vkb6detail10get_vectorIP18VkPhysicalDevice_TRPF8VkResultP12VkInstance_TPjPS3_EJRKS6_EEES4_RNSt3__16vectorIT_NSE_9allocatorISG_EEEEOT0_DpOT1_, symObjAddr: 0x1E580, symBinAddr: 0x100020D90, symSize: 0x430 }
  - { offsetInCU: 0x1AA8, offset: 0x1AA8, size: 0x8, addend: 0x0, symName: __ZN3vkb6detail17setup_pNext_chainI18VkDeviceCreateInfoEEvRT_RKNSt3__16vectorIP18VkBaseOutStructureNS5_9allocatorIS8_EEEE, symObjAddr: 0x2EC00, symBinAddr: 0x100031410, symSize: 0x1F0 }
  - { offsetInCU: 0x1B07, offset: 0x1B07, size: 0x8, addend: 0x0, symName: __ZN3vkb6detail15make_error_codeENS0_19SurfaceSupportErrorE, symObjAddr: 0x2F2B0, symBinAddr: 0x100031AC0, symSize: 0x190 }
  - { offsetInCU: 0x1B36, offset: 0x1B36, size: 0x8, addend: 0x0, symName: __ZN3vkb6detail29query_surface_support_detailsEP18VkPhysicalDevice_TP14VkSurfaceKHR_T, symObjAddr: 0x2F440, symBinAddr: 0x100031C50, symSize: 0xDF0 }
  - { offsetInCU: 0x1C44, offset: 0x1C44, size: 0x8, addend: 0x0, symName: __ZN3vkb6detail10get_vectorI18VkSurfaceFormatKHRRPF8VkResultP18VkPhysicalDevice_TP14VkSurfaceKHR_TPjPS2_EJRS5_RS7_EEES3_RNSt3__16vectorIT_NSF_9allocatorISH_EEEEOT0_DpOT1_, symObjAddr: 0x304C0, symBinAddr: 0x100032CD0, symSize: 0x4D0 }
  - { offsetInCU: 0x1CE1, offset: 0x1CE1, size: 0x8, addend: 0x0, symName: __ZN3vkb6detail10get_vectorI16VkPresentModeKHRRPF8VkResultP18VkPhysicalDevice_TP14VkSurfaceKHR_TPjPS2_EJRS5_RS7_EEES3_RNSt3__16vectorIT_NSF_9allocatorISH_EEEEOT0_DpOT1_, symObjAddr: 0x30990, symBinAddr: 0x1000331A0, symSize: 0x4D0 }
  - { offsetInCU: 0x1D7E, offset: 0x1D7E, size: 0x8, addend: 0x0, symName: __ZN3vkb6detail27find_desired_surface_formatERKNSt3__16vectorI18VkSurfaceFormatKHRNS1_9allocatorIS3_EEEES8_, symObjAddr: 0x30F10, symBinAddr: 0x100033720, symSize: 0x7B0 }
  - { offsetInCU: 0x1E70, offset: 0x1E70, size: 0x8, addend: 0x0, symName: __ZN3vkb6detail24find_best_surface_formatERKNSt3__16vectorI18VkSurfaceFormatKHRNS1_9allocatorIS3_EEEES8_, symObjAddr: 0x31E20, symBinAddr: 0x100034630, symSize: 0x360 }
  - { offsetInCU: 0x1EC2, offset: 0x1EC2, size: 0x8, addend: 0x0, symName: __ZN3vkb6detail17find_present_modeERKNSt3__16vectorI16VkPresentModeKHRNS1_9allocatorIS3_EEEES8_, symObjAddr: 0x32330, symBinAddr: 0x100034B40, symSize: 0x5B0 }
  - { offsetInCU: 0x1FB4, offset: 0x1FB4, size: 0x8, addend: 0x0, symName: __ZN3vkb6detail11find_extentERK24VkSurfaceCapabilitiesKHRjj, symObjAddr: 0x32D80, symBinAddr: 0x100035590, symSize: 0x6A0 }
  - { offsetInCU: 0x2024, offset: 0x2024, size: 0x8, addend: 0x0, symName: __ZN3vkb6detail7maximumIjEET_S2_S2_, symObjAddr: 0x33420, symBinAddr: 0x100035C30, symSize: 0x30 }
  - { offsetInCU: 0x206A, offset: 0x206A, size: 0x8, addend: 0x0, symName: __ZN3vkb6detail7minimumIjEET_S2_S2_, symObjAddr: 0x33450, symBinAddr: 0x100035C60, symSize: 0x30 }
  - { offsetInCU: 0x20B0, offset: 0x20B0, size: 0x8, addend: 0x0, symName: __ZN3vkb6detail18get_vector_noerrorI23VkQueueFamilyPropertiesRPFvP18VkPhysicalDevice_TPjPS2_EJRKS4_EEENSt3__16vectorIT_NSC_9allocatorISE_EEEEOT0_DpOT1_, symObjAddr: 0x34F60, symBinAddr: 0x100037770, symSize: 0x470 }
  - { offsetInCU: 0x212B, offset: 0x212B, size: 0x8, addend: 0x0, symName: __ZN3vkb6detail17setup_pNext_chainI24VkSwapchainCreateInfoKHREEvRT_RKNSt3__16vectorIP18VkBaseOutStructureNS5_9allocatorIS8_EEEE, symObjAddr: 0x39CF0, symBinAddr: 0x10003C500, symSize: 0x1F0 }
  - { offsetInCU: 0x218A, offset: 0x218A, size: 0x8, addend: 0x0, symName: __ZN3vkb6detail10get_vectorIP9VkImage_TRPF8VkResultP10VkDevice_TP16VkSwapchainKHR_TPjPS3_EJRS6_RS8_EEES4_RNSt3__16vectorIT_NSG_9allocatorISI_EEEEOT0_DpOT1_, symObjAddr: 0x3A8C0, symBinAddr: 0x10003D0D0, symSize: 0x4D0 }
  - { offsetInCU: 0xA91B, offset: 0xA91B, size: 0x8, addend: 0x0, symName: __ZN3vkb26to_string_message_severityE38VkDebugUtilsMessageSeverityFlagBitsEXT, symObjAddr: 0x3670, symBinAddr: 0x100005E80, symSize: 0xB0 }
  - { offsetInCU: 0xA947, offset: 0xA947, size: 0x8, addend: 0x0, symName: __ZN3vkb22to_string_message_typeEj, symObjAddr: 0x3720, symBinAddr: 0x100005F30, symSize: 0xD0 }
  - { offsetInCU: 0xA975, offset: 0xA975, size: 0x8, addend: 0x0, symName: __ZN3vkb28create_debug_utils_messengerEP12VkInstance_TPFj38VkDebugUtilsMessageSeverityFlagBitsEXTjPK36VkDebugUtilsMessengerCallbackDataEXTPvEjjS6_PP26VkDebugUtilsMessengerEXT_TP21VkAllocationCallbacks, symObjAddr: 0x37F0, symBinAddr: 0x100006000, symSize: 0x4A0 }
  - { offsetInCU: 0xAA16, offset: 0xAA16, size: 0x8, addend: 0x0, symName: __ZN3vkb22default_debug_callbackE38VkDebugUtilsMessageSeverityFlagBitsEXTjPK36VkDebugUtilsMessengerCallbackDataEXTPv, symObjAddr: 0x3C90, symBinAddr: 0x1000064A0, symSize: 0xA0 }
  - { offsetInCU: 0xAA8B, offset: 0xAA8B, size: 0x8, addend: 0x0, symName: __ZN3vkb29destroy_debug_utils_messengerEP12VkInstance_TP26VkDebugUtilsMessengerEXT_TP21VkAllocationCallbacks, symObjAddr: 0x3D90, symBinAddr: 0x1000065A0, symSize: 0xB0 }
  - { offsetInCU: 0xAAD3, offset: 0xAAD3, size: 0x8, addend: 0x0, symName: __ZN3vkb15make_error_codeENS_13InstanceErrorE, symObjAddr: 0x5840, symBinAddr: 0x100008050, symSize: 0x190 }
  - { offsetInCU: 0xAB02, offset: 0xAB02, size: 0x8, addend: 0x0, symName: __ZN3vkb15make_error_codeENS_19PhysicalDeviceErrorE, symObjAddr: 0x5A00, symBinAddr: 0x100008210, symSize: 0x190 }
  - { offsetInCU: 0xAB31, offset: 0xAB31, size: 0x8, addend: 0x0, symName: __ZN3vkb15make_error_codeENS_10QueueErrorE, symObjAddr: 0x5B90, symBinAddr: 0x1000083A0, symSize: 0x190 }
  - { offsetInCU: 0xAB60, offset: 0xAB60, size: 0x8, addend: 0x0, symName: __ZN3vkb15make_error_codeENS_11DeviceErrorE, symObjAddr: 0x5D20, symBinAddr: 0x100008530, symSize: 0x190 }
  - { offsetInCU: 0xAB8F, offset: 0xAB8F, size: 0x8, addend: 0x0, symName: __ZN3vkb15make_error_codeENS_14SwapchainErrorE, symObjAddr: 0x5EB0, symBinAddr: 0x1000086C0, symSize: 0x190 }
  - { offsetInCU: 0xABBE, offset: 0xABBE, size: 0x8, addend: 0x0, symName: __ZN3vkb9to_stringENS_13InstanceErrorE, symObjAddr: 0x6040, symBinAddr: 0x100008850, symSize: 0x100 }
  - { offsetInCU: 0xABEC, offset: 0xABEC, size: 0x8, addend: 0x0, symName: __ZN3vkb9to_stringENS_19PhysicalDeviceErrorE, symObjAddr: 0x6140, symBinAddr: 0x100008950, symSize: 0x90 }
  - { offsetInCU: 0xAC1A, offset: 0xAC1A, size: 0x8, addend: 0x0, symName: __ZN3vkb9to_stringENS_10QueueErrorE, symObjAddr: 0x61D0, symBinAddr: 0x1000089E0, symSize: 0xC0 }
  - { offsetInCU: 0xAC48, offset: 0xAC48, size: 0x8, addend: 0x0, symName: __ZN3vkb9to_stringENS_11DeviceErrorE, symObjAddr: 0x6290, symBinAddr: 0x100008AA0, symSize: 0x40 }
  - { offsetInCU: 0xAC76, offset: 0xAC76, size: 0x8, addend: 0x0, symName: __ZN3vkb9to_stringENS_14SwapchainErrorE, symObjAddr: 0x62D0, symBinAddr: 0x100008AE0, symSize: 0xD0 }
  - { offsetInCU: 0xB014, offset: 0xB014, size: 0x8, addend: 0x0, symName: __ZN3vkb15destroy_surfaceERKNS_8InstanceEP14VkSurfaceKHR_T, symObjAddr: 0xA590, symBinAddr: 0x10000CDA0, symSize: 0x130 }
  - { offsetInCU: 0xB04D, offset: 0xB04D, size: 0x8, addend: 0x0, symName: __ZN3vkb15destroy_surfaceEP12VkInstance_TP14VkSurfaceKHR_TP21VkAllocationCallbacks, symObjAddr: 0xA6C0, symBinAddr: 0x10000CED0, symSize: 0x80 }
  - { offsetInCU: 0xB095, offset: 0xB095, size: 0x8, addend: 0x0, symName: __ZN3vkb16destroy_instanceERKNS_8InstanceE, symObjAddr: 0xA740, symBinAddr: 0x10000CF50, symSize: 0x200 }
  - { offsetInCU: 0xC606, offset: 0xC606, size: 0x8, addend: 0x0, symName: __ZN3vkb14destroy_deviceERKNS_6DeviceE, symObjAddr: 0x29B40, symBinAddr: 0x10002C350, symSize: 0xD0 }
  - { offsetInCU: 0xCEEF, offset: 0xCEEF, size: 0x8, addend: 0x0, symName: __ZN3vkb17destroy_swapchainERKNS_9SwapchainE, symObjAddr: 0x33480, symBinAddr: 0x100035C90, symSize: 0x190 }
  - { offsetInCU: 0x1012B, offset: 0x1012B, size: 0x8, addend: 0x0, symName: __ZNSt3__16ranges5__cpo9iter_moveE, symObjAddr: 0x174A26, symBinAddr: 0x10016AC66, symSize: 0x0 }
  - { offsetInCU: 0x1B8A8, offset: 0x1B8A8, size: 0x8, addend: 0x0, symName: __ZNSt3__16chronogtB7v160006IxNS_5ratioILl1ELl1000EEExS3_EEbRKNS0_8durationIT_T0_EERKNS4_IT1_T2_EE, symObjAddr: 0x161490, symBinAddr: 0x100163CA0, symSize: 0x30 }
  - { offsetInCU: 0x1B909, offset: 0x1B909, size: 0x8, addend: 0x0, symName: __ZNSt3__16chronoltB7v160006IxNS_5ratioILl1ELl1000EEEeNS2_ILl1ELl1EEEEEbRKNS0_8durationIT_T0_EERKNS5_IT1_T2_EE, symObjAddr: 0x1616C0, symBinAddr: 0x100163ED0, symSize: 0x160 }
  - { offsetInCU: 0x1B96C, offset: 0x1B96C, size: 0x8, addend: 0x0, symName: __ZNSt3__16chrono13duration_castB7v160006INS0_8durationIxNS_5ratioILl1ELl1000000000EEEEExNS3_ILl1ELl1000EEEEENS_9enable_ifIXsr13__is_durationIT_EE5valueES8_E4typeERKNS2_IT0_T1_EE, symObjAddr: 0x161820, symBinAddr: 0x100164030, symSize: 0x1E0 }
  - { offsetInCU: 0x1B9B4, offset: 0x1B9B4, size: 0x8, addend: 0x0, symName: __ZNSt3__16chronoltB7v160006IxNS_5ratioILl1ELl1000000000EEExNS2_ILl1ELl1000EEEEEbRKNS0_8durationIT_T0_EERKNS5_IT1_T2_EE, symObjAddr: 0x161A00, symBinAddr: 0x100164210, symSize: 0x160 }
  - { offsetInCU: 0x1BA17, offset: 0x1BA17, size: 0x8, addend: 0x0, symName: __ZNSt3__16chronoltB7v160006IxNS_5ratioILl1ELl1000EEExS3_EEbRKNS0_8durationIT_T0_EERKNS4_IT1_T2_EE, symObjAddr: 0x161DB0, symBinAddr: 0x1001645C0, symSize: 0x160 }
  - { offsetInCU: 0x1BAFA, offset: 0x1BAFA, size: 0x8, addend: 0x0, symName: __ZNSt3__16chrono13duration_castB7v160006INS0_8durationIeNS_5ratioILl1ELl1000EEEEExS4_EENS_9enable_ifIXsr13__is_durationIT_EE5valueES7_E4typeERKNS2_IT0_T1_EE, symObjAddr: 0x162640, symBinAddr: 0x100164E50, symSize: 0x2B0 }
  - { offsetInCU: 0x1BB8F, offset: 0x1BB8F, size: 0x8, addend: 0x0, symName: __ZNSt3__16chrono13duration_castB7v160006INS0_8durationIeNS_5ratioILl1ELl1000EEEEEeNS3_ILl1ELl1EEEEENS_9enable_ifIXsr13__is_durationIT_EE5valueES8_E4typeERKNS2_IT0_T1_EE, symObjAddr: 0x163040, symBinAddr: 0x100165850, symSize: 0x2B0 }
  - { offsetInCU: 0x1C07B, offset: 0x1C07B, size: 0x8, addend: 0x0, symName: __ZNSt3__17advanceB7v160006IPNS_12basic_stringIcNS_11char_traitsIcEENS_9allocatorIcEEEEllvEEvRT_T0_, symObjAddr: 0x4D8E0, symBinAddr: 0x1000500F0, symSize: 0x50 }
  - { offsetInCU: 0x1C2FC, offset: 0x1C2FC, size: 0x8, addend: 0x0, symName: __ZNSt3__17advanceB7v160006INS_16reverse_iteratorIPNS_12basic_stringIcNS_11char_traitsIcEENS_9allocatorIcEEEEEEllvEEvRT_T0_, symObjAddr: 0x4EDD0, symBinAddr: 0x1000515E0, symSize: 0x50 }
  - { offsetInCU: 0x1C69A, offset: 0x1C69A, size: 0x8, addend: 0x0, symName: __ZNSt3__17advanceB7v160006IPKNS_12basic_stringIcNS_11char_traitsIcEENS_9allocatorIcEEEEllvEEvRT_T0_, symObjAddr: 0x53330, symBinAddr: 0x100055B40, symSize: 0x50 }
  - { offsetInCU: 0x1C91B, offset: 0x1C91B, size: 0x8, addend: 0x0, symName: __ZNSt3__17advanceB7v160006INS_16reverse_iteratorIPKNS_12basic_stringIcNS_11char_traitsIcEENS_9allocatorIcEEEEEEllvEEvRT_T0_, symObjAddr: 0x54810, symBinAddr: 0x100057020, symSize: 0x50 }
  - { offsetInCU: 0x1FE8A, offset: 0x1FE8A, size: 0x8, addend: 0x0, symName: __ZNSt3__17advanceB7v160006INS_11__wrap_iterIP21VkExtensionPropertiesEEllvEEvRT_T0_, symObjAddr: 0x57B30, symBinAddr: 0x10005A340, symSize: 0x50 }
  - { offsetInCU: 0x20244, offset: 0x20244, size: 0x8, addend: 0x0, symName: __ZNSt3__17advanceB7v160006IP21VkExtensionPropertiesllvEEvRT_T0_, symObjAddr: 0x5B850, symBinAddr: 0x10005E060, symSize: 0x50 }
  - { offsetInCU: 0x206AF, offset: 0x206AF, size: 0x8, addend: 0x0, symName: __ZNSt3__17advanceB7v160006IP17VkLayerPropertiesllvEEvRT_T0_, symObjAddr: 0x70800, symBinAddr: 0x100073010, symSize: 0x50 }
  - { offsetInCU: 0x26C78, offset: 0x26C78, size: 0x8, addend: 0x0, symName: __ZNSt3__17advanceB7v160006IP23VkQueueFamilyPropertiesmmvEEvRT_T0_, symObjAddr: 0x9DBC0, symBinAddr: 0x1000A03D0, symSize: 0x50 }
  - { offsetInCU: 0x27016, offset: 0x27016, size: 0x8, addend: 0x0, symName: __ZNSt3__17advanceB7v160006IP23VkQueueFamilyPropertiesllvEEvRT_T0_, symObjAddr: 0xA22E0, symBinAddr: 0x1000A4AF0, symSize: 0x50 }
  - { offsetInCU: 0x27481, offset: 0x27481, size: 0x8, addend: 0x0, symName: __ZNSt3__17advanceB7v160006IPN3vkb6detail24GenericFeaturesPNextNodeEllvEEvRT_T0_, symObjAddr: 0xA66F0, symBinAddr: 0x1000A8F00, symSize: 0x50 }
  - { offsetInCU: 0x274ED, offset: 0x274ED, size: 0x8, addend: 0x0, symName: __ZNSt3__17advanceB7v160006IPN3vkb6detail24GenericFeaturesPNextNodeEmmvEEvRT_T0_, symObjAddr: 0xA7770, symBinAddr: 0x1000A9F80, symSize: 0x50 }
  - { offsetInCU: 0x2C36C, offset: 0x2C36C, size: 0x8, addend: 0x0, symName: __ZNSt3__17advanceB7v160006INS_11__wrap_iterIPKNS_12basic_stringIcNS_11char_traitsIcEENS_9allocatorIcEEEEEEllvEEvRT_T0_, symObjAddr: 0xB0E90, symBinAddr: 0x1000B36A0, symSize: 0x50 }
  - { offsetInCU: 0x2C536, offset: 0x2C536, size: 0x8, addend: 0x0, symName: __ZNSt3__17advanceB7v160006INS_11__wrap_iterIPNS_12basic_stringIcNS_11char_traitsIcEENS_9allocatorIcEEEEEEllvEEvRT_T0_, symObjAddr: 0xBA090, symBinAddr: 0x1000BC8A0, symSize: 0x50 }
  - { offsetInCU: 0x2E467, offset: 0x2E467, size: 0x8, addend: 0x0, symName: __ZNSt3__17advanceB7v160006IPN3vkb14PhysicalDeviceEllvEEvRT_T0_, symObjAddr: 0xC22D0, symBinAddr: 0x1000C4AE0, symSize: 0x50 }
  - { offsetInCU: 0x2E82A, offset: 0x2E82A, size: 0x8, addend: 0x0, symName: __ZNSt3__17advanceB7v160006INS_16reverse_iteratorIPN3vkb14PhysicalDeviceEEEllvEEvRT_T0_, symObjAddr: 0xC7F10, symBinAddr: 0x1000CA720, symSize: 0x50 }
  - { offsetInCU: 0x2EA30, offset: 0x2EA30, size: 0x8, addend: 0x0, symName: __ZNSt3__17advanceB7v160006INS_11__wrap_iterIPKN3vkb22CustomQueueDescriptionEEEllvEEvRT_T0_, symObjAddr: 0xE52E0, symBinAddr: 0x1000E7AF0, symSize: 0x50 }
  - { offsetInCU: 0x31AFD, offset: 0x31AFD, size: 0x8, addend: 0x0, symName: __ZNSt3__17advanceB7v160006IPfllvEEvRT_T0_, symObjAddr: 0xEC260, symBinAddr: 0x1000EEA70, symSize: 0x50 }
  - { offsetInCU: 0x31D59, offset: 0x31D59, size: 0x8, addend: 0x0, symName: __ZNSt3__17advanceB7v160006IPN3vkb22CustomQueueDescriptionEllvEEvRT_T0_, symObjAddr: 0xED6D0, symBinAddr: 0x1000EFEE0, symSize: 0x50 }
  - { offsetInCU: 0x31DC5, offset: 0x31DC5, size: 0x8, addend: 0x0, symName: __ZNSt3__17advanceB7v160006IPfmmvEEvRT_T0_, symObjAddr: 0xF2B30, symBinAddr: 0x1000F5340, symSize: 0x50 }
  - { offsetInCU: 0x32188, offset: 0x32188, size: 0x8, addend: 0x0, symName: __ZNSt3__17advanceB7v160006INS_16reverse_iteratorIPN3vkb22CustomQueueDescriptionEEEllvEEvRT_T0_, symObjAddr: 0xF90B0, symBinAddr: 0x1000FB8C0, symSize: 0x50 }
  - { offsetInCU: 0x33996, offset: 0x33996, size: 0x8, addend: 0x0, symName: __ZNSt3__17advanceB7v160006IPNS_12basic_stringIcNS_11char_traitsIcEENS_9allocatorIcEEEEmmvEEvRT_T0_, symObjAddr: 0x105E00, symBinAddr: 0x100108610, symSize: 0x50 }
  - { offsetInCU: 0x33E01, offset: 0x33E01, size: 0x8, addend: 0x0, symName: __ZNSt3__17advanceB7v160006IP18VkSurfaceFormatKHRllvEEvRT_T0_, symObjAddr: 0x10AF90, symBinAddr: 0x10010D7A0, symSize: 0x50 }
  - { offsetInCU: 0x3426C, offset: 0x3426C, size: 0x8, addend: 0x0, symName: __ZNSt3__17advanceB7v160006IP16VkPresentModeKHRllvEEvRT_T0_, symObjAddr: 0x10E920, symBinAddr: 0x100111130, symSize: 0x50 }
  - { offsetInCU: 0x3474A, offset: 0x3474A, size: 0x8, addend: 0x0, symName: __ZNSt3__124__put_character_sequenceB7v160006IcNS_11char_traitsIcEEEERNS_13basic_ostreamIT_T0_EES7_PKS4_m, symObjAddr: 0x12DB10, symBinAddr: 0x100130320, symSize: 0x750 }
  - { offsetInCU: 0x357DB, offset: 0x357DB, size: 0x8, addend: 0x0, symName: __ZNSt3__17advanceB7v160006INS_11__wrap_iterIPN3vkb14PhysicalDeviceEEEllvEEvRT_T0_, symObjAddr: 0x14D4B0, symBinAddr: 0x10014FCC0, symSize: 0x50 }
  - { offsetInCU: 0x36FB6, offset: 0x36FB6, size: 0x8, addend: 0x0, symName: __ZNSt3__1lsB7v160006INS_11char_traitsIcEEEERNS_13basic_ostreamIcT_EES6_PKc, symObjAddr: 0x400, symBinAddr: 0x100002C10, symSize: 0x40 }
  - { offsetInCU: 0x36FFC, offset: 0x36FFC, size: 0x8, addend: 0x0, symName: __ZNSt3__14endlB7v160006IcNS_11char_traitsIcEEEERNS_13basic_ostreamIT_T0_EES7_, symObjAddr: 0x460, symBinAddr: 0x100002C70, symSize: 0xB0 }
  - { offsetInCU: 0x3703C, offset: 0x3703C, size: 0x8, addend: 0x0, symName: __ZNSt3__1lsB7v160006IcNS_11char_traitsIcEENS_9allocatorIcEEEERNS_13basic_ostreamIT_T0_EES9_RKNS_12basic_stringIS6_S7_T1_EE, symObjAddr: 0xF70, symBinAddr: 0x100003780, symSize: 0x50 }
  - { offsetInCU: 0x37094, offset: 0x37094, size: 0x8, addend: 0x0, symName: __ZNSt3__1neB7v160006IPKNS_12basic_stringIcNS_11char_traitsIcEENS_9allocatorIcEEEEEEbRKNS_11__wrap_iterIT_EESD_, symObjAddr: 0x20B0, symBinAddr: 0x1000048C0, symSize: 0x30 }
  - { offsetInCU: 0x370D7, offset: 0x370D7, size: 0x8, addend: 0x0, symName: __ZNSt3__1neB7v160006IPK17VkLayerPropertiesEEbRKNS_11__wrap_iterIT_EES8_, symObjAddr: 0x4500, symBinAddr: 0x100006D10, symSize: 0x30 }
  - { offsetInCU: 0x3711A, offset: 0x3711A, size: 0x8, addend: 0x0, symName: __ZNSt3__1neB7v160006IPKPKcEEbRKNS_11__wrap_iterIT_EES9_, symObjAddr: 0x4C70, symBinAddr: 0x100007480, symSize: 0x30 }
  - { offsetInCU: 0x3715D, offset: 0x3715D, size: 0x8, addend: 0x0, symName: __ZNSt3__1neB7v160006IPK21VkExtensionPropertiesEEbRKNS_11__wrap_iterIT_EES8_, symObjAddr: 0x5400, symBinAddr: 0x100007C10, symSize: 0x30 }
  - { offsetInCU: 0x371A0, offset: 0x371A0, size: 0x8, addend: 0x0, symName: __ZNSt3__1neB7v160006IP17VkLayerPropertiesEEbRKNS_11__wrap_iterIT_EES7_, symObjAddr: 0x8AB0, symBinAddr: 0x10000B2C0, symSize: 0x30 }
  - { offsetInCU: 0x371E3, offset: 0x371E3, size: 0x8, addend: 0x0, symName: __ZNSt3__1neB7v160006IP21VkExtensionPropertiesEEbRKNS_11__wrap_iterIT_EES7_, symObjAddr: 0x9330, symBinAddr: 0x10000BB40, symSize: 0x30 }
  - { offsetInCU: 0x37245, offset: 0x37245, size: 0x8, addend: 0x0, symName: __ZNSt3__1neB7v160006IPP18VkBaseOutStructureEEbRKNS_11__wrap_iterIT_EES8_, symObjAddr: 0x109C0, symBinAddr: 0x1000131D0, symSize: 0x30 }
  - { offsetInCU: 0x37288, offset: 0x37288, size: 0x8, addend: 0x0, symName: __ZNSt3__1eqB7v160006INS_9allocatorIcEEEEbRKNS_12basic_stringIcNS_11char_traitsIcEET_EES9_, symObjAddr: 0x132D0, symBinAddr: 0x100015AE0, symSize: 0x1C0 }
  - { offsetInCU: 0x372FB, offset: 0x372FB, size: 0x8, addend: 0x0, symName: __ZNSt3__1neB7v160006IPN3vkb6detail24GenericFeaturesPNextNodeEEEbRKNS_11__wrap_iterIT_EES9_, symObjAddr: 0x19720, symBinAddr: 0x10001BF30, symSize: 0x30 }
  - { offsetInCU: 0x3733E, offset: 0x3733E, size: 0x8, addend: 0x0, symName: __ZNSt3__1eqB7v160006IcNS_11char_traitsIcEENS_9allocatorIcEEEEbRKNS_12basic_stringIT_T0_T1_EEPKS6_, symObjAddr: 0x1AF00, symBinAddr: 0x10001D710, symSize: 0x310 }
  - { offsetInCU: 0x37398, offset: 0x37398, size: 0x8, addend: 0x0, symName: __ZNSt3__1neB7v160006IPKN3vkb6detail24GenericFeaturesPNextNodeEEEbRKNS_11__wrap_iterIT_EESA_, symObjAddr: 0x1E1D0, symBinAddr: 0x1000209E0, symSize: 0x30 }
  - { offsetInCU: 0x373DB, offset: 0x373DB, size: 0x8, addend: 0x0, symName: __ZNSt3__1neB7v160006IPP18VkPhysicalDevice_TEEbRKNS_11__wrap_iterIT_EES8_, symObjAddr: 0x1FD70, symBinAddr: 0x100022580, symSize: 0x30 }
  - { offsetInCU: 0x3741F, offset: 0x3741F, size: 0x8, addend: 0x0, symName: '__ZNSt3__116stable_partitionB7v160006INS_11__wrap_iterIPN3vkb14PhysicalDeviceEEEZNKS2_22PhysicalDeviceSelector11select_implENS2_19DeviceSelectionModeEE3$_5EET_S9_S9_T0_', symObjAddr: 0x1FF00, symBinAddr: 0x100022710, symSize: 0x370 }
  - { offsetInCU: 0x3748A, offset: 0x3748A, size: 0x8, addend: 0x0, symName: __ZNSt3__1neB7v160006IPN3vkb14PhysicalDeviceEEEbRKNS_11__wrap_iterIT_EES8_, symObjAddr: 0x20AA0, symBinAddr: 0x1000232B0, symSize: 0x30 }
  - { offsetInCU: 0x374CD, offset: 0x374CD, size: 0x8, addend: 0x0, symName: __ZNSt3__1neB7v160006IPKN3vkb14PhysicalDeviceEEEbRKNS_11__wrap_iterIT_EES9_, symObjAddr: 0x22B80, symBinAddr: 0x100025390, symSize: 0x30 }
  - { offsetInCU: 0x37510, offset: 0x37510, size: 0x8, addend: 0x0, symName: '__ZNSt3__17find_ifB7v160006INS_11__wrap_iterIPKNS_12basic_stringIcNS_11char_traitsIcEENS_9allocatorIcEEEEEEZNK3vkb14PhysicalDevice20is_extension_presentEPKcE3$_0EET_SG_SG_T0_', symObjAddr: 0x25510, symBinAddr: 0x100027D20, symSize: 0x300 }
  - { offsetInCU: 0x37577, offset: 0x37577, size: 0x8, addend: 0x0, symName: __ZNSt3__15beginB7v160006INS_6vectorINS_12basic_stringIcNS_11char_traitsIcEENS_9allocatorIcEEEENS5_IS7_EEEEEEDTcldtfp_5beginEERKT_, symObjAddr: 0x25810, symBinAddr: 0x100028020, symSize: 0x1B0 }
  - { offsetInCU: 0x375AD, offset: 0x375AD, size: 0x8, addend: 0x0, symName: __ZNSt3__13endB7v160006INS_6vectorINS_12basic_stringIcNS_11char_traitsIcEENS_9allocatorIcEEEENS5_IS7_EEEEEEDTcldtfp_3endEERKT_, symObjAddr: 0x259C0, symBinAddr: 0x1000281D0, symSize: 0x1B0 }
  - { offsetInCU: 0x375E3, offset: 0x375E3, size: 0x8, addend: 0x0, symName: '__ZNSt3__17find_ifB7v160006INS_11__wrap_iterIPNS_12basic_stringIcNS_11char_traitsIcEENS_9allocatorIcEEEEEEZN3vkb14PhysicalDevice27enable_extension_if_presentEPKcE3$_1EET_SF_SF_T0_', symObjAddr: 0x26160, symBinAddr: 0x100028970, symSize: 0x300 }
  - { offsetInCU: 0x3764A, offset: 0x3764A, size: 0x8, addend: 0x0, symName: __ZNSt3__15beginB7v160006INS_6vectorINS_12basic_stringIcNS_11char_traitsIcEENS_9allocatorIcEEEENS5_IS7_EEEEEEDTcldtfp_5beginEERT_, symObjAddr: 0x26460, symBinAddr: 0x100028C70, symSize: 0x1B0 }
  - { offsetInCU: 0x37680, offset: 0x37680, size: 0x8, addend: 0x0, symName: __ZNSt3__13endB7v160006INS_6vectorINS_12basic_stringIcNS_11char_traitsIcEENS_9allocatorIcEEEENS5_IS7_EEEEEEDTcldtfp_3endEERT_, symObjAddr: 0x26610, symBinAddr: 0x100028E20, symSize: 0x1B0 }
  - { offsetInCU: 0x376B6, offset: 0x376B6, size: 0x8, addend: 0x0, symName: __ZNSt3__1neB7v160006IPNS_12basic_stringIcNS_11char_traitsIcEENS_9allocatorIcEEEEEEbRKNS_11__wrap_iterIT_EESC_, symObjAddr: 0x267C0, symBinAddr: 0x100028FD0, symSize: 0x30 }
  - { offsetInCU: 0x376F9, offset: 0x376F9, size: 0x8, addend: 0x0, symName: '__ZNSt3__17find_ifB7v160006INS_11__wrap_iterIPNS_12basic_stringIcNS_11char_traitsIcEENS_9allocatorIcEEEEEEZN3vkb14PhysicalDevice28enable_extensions_if_presentERKNS_6vectorIPKcNS5_ISE_EEEEE3$_2EET_SK_SK_T0_', symObjAddr: 0x27180, symBinAddr: 0x100029990, symSize: 0x300 }
  - { offsetInCU: 0x37760, offset: 0x37760, size: 0x8, addend: 0x0, symName: __ZNSt3__1eqB7v160006IPNS_12basic_stringIcNS_11char_traitsIcEENS_9allocatorIcEEEEEEbRKNS_11__wrap_iterIT_EESC_, symObjAddr: 0x27480, symBinAddr: 0x100029C90, symSize: 0x40 }
  - { offsetInCU: 0x377A3, offset: 0x377A3, size: 0x8, addend: 0x0, symName: __ZNSt3__1neB7v160006IPN3vkb22CustomQueueDescriptionEEEbRKNS_11__wrap_iterIT_EES8_, symObjAddr: 0x2E170, symBinAddr: 0x100030980, symSize: 0x30 }
  - { offsetInCU: 0x377E6, offset: 0x377E6, size: 0x8, addend: 0x0, symName: __ZNSt3__1neB7v160006IPKP18VkBaseOutStructureEEbRKNS_11__wrap_iterIT_EES9_, symObjAddr: 0x2E7B0, symBinAddr: 0x100030FC0, symSize: 0x30 }
  - { offsetInCU: 0x37829, offset: 0x37829, size: 0x8, addend: 0x0, symName: __ZNSt3__1neB7v160006IPK18VkSurfaceFormatKHREEbRKNS_11__wrap_iterIT_EES8_, symObjAddr: 0x31A90, symBinAddr: 0x1000342A0, symSize: 0x30 }
  - { offsetInCU: 0x3786C, offset: 0x3786C, size: 0x8, addend: 0x0, symName: __ZNSt3__1neB7v160006IPK16VkPresentModeKHREEbRKNS_11__wrap_iterIT_EES8_, symObjAddr: 0x32CB0, symBinAddr: 0x1000354C0, symSize: 0x30 }
  - { offsetInCU: 0x378AF, offset: 0x378AF, size: 0x8, addend: 0x0, symName: __ZNSt3__1neB7v160006IPKP13VkImageView_TEEbRKNS_11__wrap_iterIT_EES9_, symObjAddr: 0x3D3C0, symBinAddr: 0x10003FBD0, symSize: 0x30 }
  - { offsetInCU: 0x378F2, offset: 0x378F2, size: 0x8, addend: 0x0, symName: __ZNSt3__1neB7v160006IP23VkQueueFamilyPropertiesEEbRKNS_11__wrap_iterIT_EES7_, symObjAddr: 0x44120, symBinAddr: 0x100046930, symSize: 0x30 }
  - { offsetInCU: 0x37935, offset: 0x37935, size: 0x8, addend: 0x0, symName: __ZNSt3__1lsB7v160006INS_11char_traitsIcEEEERNS_13basic_ostreamIcT_EES6_c, symObjAddr: 0x45350, symBinAddr: 0x100047B60, symSize: 0x1A0 }
  - { offsetInCU: 0x37985, offset: 0x37985, size: 0x8, addend: 0x0, symName: __ZNSt3__111this_thread9sleep_forB7v160006IxNS_5ratioILl1ELl1000EEEEEvRKNS_6chrono8durationIT_T0_EE, symObjAddr: 0x48870, symBinAddr: 0x10004B080, symSize: 0x370 }
  - { offsetInCU: 0x379F7, offset: 0x379F7, size: 0x8, addend: 0x0, symName: __ZNSt3__112__to_addressB7v160006IKcEEPT_S3_, symObjAddr: 0x49440, symBinAddr: 0x10004BC50, symSize: 0x10 }
  - { offsetInCU: 0x37A5F, offset: 0x37A5F, size: 0x8, addend: 0x0, symName: __ZNSt3__112__to_addressB7v160006INS_12basic_stringIcNS_11char_traitsIcEENS_9allocatorIcEEEEEEPT_S8_, symObjAddr: 0x49C90, symBinAddr: 0x10004C4A0, symSize: 0x10 }
  - { offsetInCU: 0x37ABB, offset: 0x37ABB, size: 0x8, addend: 0x0, symName: __ZNSt3__112construct_atB7v160006INS_12basic_stringIcNS_11char_traitsIcEENS_9allocatorIcEEEEJS6_EPS6_EEPT_S9_DpOT0_, symObjAddr: 0x4A0C0, symBinAddr: 0x10004C8D0, symSize: 0x40 }
  - { offsetInCU: 0x37B2E, offset: 0x37B2E, size: 0x8, addend: 0x0, symName: __ZNSt3__119__debug_db_insert_cB7v160006INS_12basic_stringIcNS_11char_traitsIcEENS_9allocatorIcEEEEEEvPT_, symObjAddr: 0x4A360, symBinAddr: 0x10004CB70, symSize: 0x10 }
  - { offsetInCU: 0x37B60, offset: 0x37B60, size: 0x8, addend: 0x0, symName: __ZNSt3__115__debug_db_swapB7v160006INS_12basic_stringIcNS_11char_traitsIcEENS_9allocatorIcEEEEEEvPT_S8_, symObjAddr: 0x4A370, symBinAddr: 0x10004CB80, symSize: 0x10 }
  - { offsetInCU: 0x37B9F, offset: 0x37B9F, size: 0x8, addend: 0x0, symName: __ZNSt3__13maxB7v160006ImEERKT_S3_S3_, symObjAddr: 0x4B370, symBinAddr: 0x10004DB80, symSize: 0x30 }
  - { offsetInCU: 0x37BE2, offset: 0x37BE2, size: 0x8, addend: 0x0, symName: __ZNSt3__13minB7v160006ImEERKT_S3_S3_, symObjAddr: 0x4B3A0, symBinAddr: 0x10004DBB0, symSize: 0x30 }
  - { offsetInCU: 0x37E0F, offset: 0x37E0F, size: 0x8, addend: 0x0, symName: __ZNSt3__13minB7v160006ImNS_6__lessImmEEEERKT_S5_S5_T0_, symObjAddr: 0x4B430, symBinAddr: 0x10004DC40, symSize: 0x170 }
  - { offsetInCU: 0x38098, offset: 0x38098, size: 0x8, addend: 0x0, symName: __ZNSt3__120__throw_length_errorB7v160006EPKc, symObjAddr: 0x4B6A0, symBinAddr: 0x10004DEB0, symSize: 0x70 }
  - { offsetInCU: 0x380C0, offset: 0x380C0, size: 0x8, addend: 0x0, symName: __ZNSt3__13maxB7v160006ImNS_6__lessImmEEEERKT_S5_S5_T0_, symObjAddr: 0x4B7B0, symBinAddr: 0x10004DFC0, symSize: 0x170 }
  - { offsetInCU: 0x38120, offset: 0x38120, size: 0x8, addend: 0x0, symName: __ZNSt3__119__allocate_at_leastB7v160006INS_9allocatorINS_12basic_stringIcNS_11char_traitsIcEENS1_IcEEEEEEEENS_19__allocation_resultINS_16allocator_traitsIT_E7pointerEEERSA_m, symObjAddr: 0x4BE00, symBinAddr: 0x10004E610, symSize: 0x210 }
  - { offsetInCU: 0x38165, offset: 0x38165, size: 0x8, addend: 0x0, symName: __ZNSt3__117__libcpp_allocateB7v160006Emm, symObjAddr: 0x4C1D0, symBinAddr: 0x10004E9E0, symSize: 0x60 }
  - { offsetInCU: 0x381BF, offset: 0x381BF, size: 0x8, addend: 0x0, symName: __ZNSt3__124__is_overaligned_for_newB7v160006Em, symObjAddr: 0x4C230, symBinAddr: 0x10004EA40, symSize: 0x20 }
  - { offsetInCU: 0x381ED, offset: 0x381ED, size: 0x8, addend: 0x0, symName: __ZNSt3__121__libcpp_operator_newB7v160006IJmSt11align_val_tEEEPvDpT_, symObjAddr: 0x4C250, symBinAddr: 0x10004EA60, symSize: 0x30 }
  - { offsetInCU: 0x3823A, offset: 0x3823A, size: 0x8, addend: 0x0, symName: __ZNSt3__121__libcpp_operator_newB7v160006IJmEEEPvDpT_, symObjAddr: 0x4C280, symBinAddr: 0x10004EA90, symSize: 0x20 }
  - { offsetInCU: 0x38273, offset: 0x38273, size: 0x8, addend: 0x0, symName: __ZNSt3__142__uninitialized_allocator_move_if_noexceptB7v160006INS_9allocatorINS_12basic_stringIcNS_11char_traitsIcEENS1_IcEEEEEENS_16reverse_iteratorIPS6_EESA_SA_EET2_RT_T0_T1_SB_, symObjAddr: 0x4C400, symBinAddr: 0x10004EC10, symSize: 0x660 }
  - { offsetInCU: 0x38328, offset: 0x38328, size: 0x8, addend: 0x0, symName: __ZNSt3__14swapB7v160006IPNS_12basic_stringIcNS_11char_traitsIcEENS_9allocatorIcEEEEEENS_9enable_ifIXaasr21is_move_constructibleIT_EE5valuesr18is_move_assignableIS9_EE5valueEvE4typeERS9_SC_, symObjAddr: 0x4CAE0, symBinAddr: 0x10004F2F0, symSize: 0x100 }
  - { offsetInCU: 0x3837A, offset: 0x3837A, size: 0x8, addend: 0x0, symName: __ZNSt3__125__debug_db_invalidate_allB7v160006INS_6vectorINS_12basic_stringIcNS_11char_traitsIcEENS_9allocatorIcEEEENS5_IS7_EEEEEEvPT_, symObjAddr: 0x4CCA0, symBinAddr: 0x10004F4B0, symSize: 0x10 }
  - { offsetInCU: 0x383AB, offset: 0x383AB, size: 0x8, addend: 0x0, symName: __ZNSt3__122__make_exception_guardB7v160006INS_29_AllocatorDestroyRangeReverseINS_9allocatorINS_12basic_stringIcNS_11char_traitsIcEENS2_IcEEEEEENS_16reverse_iteratorIPS7_EEEEEENS_28__exception_guard_exceptionsIT_EESE_, symObjAddr: 0x4CCB0, symBinAddr: 0x10004F4C0, symSize: 0x2A0 }
  - { offsetInCU: 0x383E4, offset: 0x383E4, size: 0x8, addend: 0x0, symName: __ZNSt3__1neB7v160006IPNS_12basic_stringIcNS_11char_traitsIcEENS_9allocatorIcEEEES7_EEbRKNS_16reverse_iteratorIT_EERKNS8_IT0_EE, symObjAddr: 0x4CF90, symBinAddr: 0x10004F7A0, symSize: 0x40 }
  - { offsetInCU: 0x38430, offset: 0x38430, size: 0x8, addend: 0x0, symName: __ZNSt3__112__to_addressB7v160006INS_16reverse_iteratorIPNS_12basic_stringIcNS_11char_traitsIcEENS_9allocatorIcEEEEEEvEENS_5decayIDTclsr19__to_address_helperIT_EE6__callclsr3stdE7declvalIRKSB_EEEEE4typeESD_, symObjAddr: 0x4CFD0, symBinAddr: 0x10004F7E0, symSize: 0x20 }
  - { offsetInCU: 0x38490, offset: 0x38490, size: 0x8, addend: 0x0, symName: __ZNSt3__14prevB7v160006IPNS_12basic_stringIcNS_11char_traitsIcEENS_9allocatorIcEEEEEENS_9enable_ifIXsr25__is_cpp17_input_iteratorIT_EE5valueES9_E4typeES9_NS_15iterator_traitsIS9_E15difference_typeE, symObjAddr: 0x4D700, symBinAddr: 0x10004FF10, symSize: 0x1E0 }
  - { offsetInCU: 0x384D8, offset: 0x384D8, size: 0x8, addend: 0x0, symName: __ZNSt3__121__convert_to_integralB7v160006El, symObjAddr: 0x4D930, symBinAddr: 0x100050140, symSize: 0x10 }
  - { offsetInCU: 0x38505, offset: 0x38505, size: 0x8, addend: 0x0, symName: __ZNSt3__19__advanceB7v160006IPNS_12basic_stringIcNS_11char_traitsIcEENS_9allocatorIcEEEEEEvRT_NS_15iterator_traitsIS8_E15difference_typeENS_26random_access_iterator_tagE, symObjAddr: 0x4D940, symBinAddr: 0x100050150, symSize: 0x60 }
  - { offsetInCU: 0x3854F, offset: 0x3854F, size: 0x8, addend: 0x0, symName: __ZNSt3__119__allocator_destroyB7v160006INS_9allocatorINS_12basic_stringIcNS_11char_traitsIcEENS1_IcEEEEEENS_16reverse_iteratorINS8_IPS6_EEEESB_EEvRT_T0_T1_, symObjAddr: 0x4DF60, symBinAddr: 0x100050770, symSize: 0x220 }
  - { offsetInCU: 0x385BB, offset: 0x385BB, size: 0x8, addend: 0x0, symName: __ZNSt3__1neB7v160006INS_16reverse_iteratorIPNS_12basic_stringIcNS_11char_traitsIcEENS_9allocatorIcEEEEEES9_EEbRKNS1_IT_EERKNS1_IT0_EE, symObjAddr: 0x4E3B0, symBinAddr: 0x100050BC0, symSize: 0x2C0 }
  - { offsetInCU: 0x38609, offset: 0x38609, size: 0x8, addend: 0x0, symName: __ZNSt3__112__to_addressB7v160006INS_16reverse_iteratorINS1_IPNS_12basic_stringIcNS_11char_traitsIcEENS_9allocatorIcEEEEEEEEvEENS_5decayIDTclsr19__to_address_helperIT_EE6__callclsr3stdE7declvalIRKSC_EEEEE4typeESE_, symObjAddr: 0x4E690, symBinAddr: 0x100050EA0, symSize: 0x20 }
  - { offsetInCU: 0x38640, offset: 0x38640, size: 0x8, addend: 0x0, symName: __ZNSt3__110destroy_atB7v160006INS_12basic_stringIcNS_11char_traitsIcEENS_9allocatorIcEEEELi0EEEvPT_, symObjAddr: 0x4E870, symBinAddr: 0x100051080, symSize: 0x20 }
  - { offsetInCU: 0x38678, offset: 0x38678, size: 0x8, addend: 0x0, symName: __ZNSt3__112__destroy_atB7v160006INS_12basic_stringIcNS_11char_traitsIcEENS_9allocatorIcEEEELi0EEEvPT_, symObjAddr: 0x4E890, symBinAddr: 0x1000510A0, symSize: 0x20 }
  - { offsetInCU: 0x386D9, offset: 0x386D9, size: 0x8, addend: 0x0, symName: __ZNSt3__14prevB7v160006INS_16reverse_iteratorIPNS_12basic_stringIcNS_11char_traitsIcEENS_9allocatorIcEEEEEEEENS_9enable_ifIXsr25__is_cpp17_input_iteratorIT_EE5valueESB_E4typeESB_NS_15iterator_traitsISB_E15difference_typeE, symObjAddr: 0x4EB70, symBinAddr: 0x100051380, symSize: 0x260 }
  - { offsetInCU: 0x38722, offset: 0x38722, size: 0x8, addend: 0x0, symName: __ZNSt3__19__advanceB7v160006INS_16reverse_iteratorIPNS_12basic_stringIcNS_11char_traitsIcEENS_9allocatorIcEEEEEEEEvRT_NS_15iterator_traitsISA_E15difference_typeENS_26random_access_iterator_tagE, symObjAddr: 0x4EE20, symBinAddr: 0x100051630, symSize: 0x30 }
  - { offsetInCU: 0x3876C, offset: 0x3876C, size: 0x8, addend: 0x0, symName: __ZNSt3__119__libcpp_deallocateB7v160006EPvmm, symObjAddr: 0x4F520, symBinAddr: 0x100051D30, symSize: 0x60 }
  - { offsetInCU: 0x387D1, offset: 0x387D1, size: 0x8, addend: 0x0, symName: __ZNSt3__127__do_deallocate_handle_sizeB7v160006IJSt11align_val_tEEEvPvmDpT_, symObjAddr: 0x4F580, symBinAddr: 0x100051D90, symSize: 0x30 }
  - { offsetInCU: 0x38824, offset: 0x38824, size: 0x8, addend: 0x0, symName: __ZNSt3__127__do_deallocate_handle_sizeB7v160006IJEEEvPvmDpT_, symObjAddr: 0x4F5B0, symBinAddr: 0x100051DC0, symSize: 0x20 }
  - { offsetInCU: 0x38862, offset: 0x38862, size: 0x8, addend: 0x0, symName: __ZNSt3__124__libcpp_operator_deleteB7v160006IJPvSt11align_val_tEEEvDpT_, symObjAddr: 0x4F5D0, symBinAddr: 0x100051DE0, symSize: 0x30 }
  - { offsetInCU: 0x388AB, offset: 0x388AB, size: 0x8, addend: 0x0, symName: __ZNSt3__124__libcpp_operator_deleteB7v160006IJPvEEEvDpT_, symObjAddr: 0x4F600, symBinAddr: 0x100051E10, symSize: 0x20 }
  - { offsetInCU: 0x388E0, offset: 0x388E0, size: 0x8, addend: 0x0, symName: __ZNSt3__118__constexpr_strlenB7v160006EPKc, symObjAddr: 0x4F8F0, symBinAddr: 0x100052100, symSize: 0x20 }
  - { offsetInCU: 0x3890C, offset: 0x3890C, size: 0x8, addend: 0x0, symName: __ZNSt3__112__to_addressB7v160006IKNS_12basic_stringIcNS_11char_traitsIcEENS_9allocatorIcEEEEEEPT_S9_, symObjAddr: 0x4FFD0, symBinAddr: 0x1000527E0, symSize: 0x10 }
  - { offsetInCU: 0x38968, offset: 0x38968, size: 0x8, addend: 0x0, symName: __ZNSt3__112construct_atB7v160006IKNS_12basic_stringIcNS_11char_traitsIcEENS_9allocatorIcEEEEJRS7_EPS7_EEPT_SB_DpOT0_, symObjAddr: 0x50400, symBinAddr: 0x100052C10, symSize: 0x40 }
  - { offsetInCU: 0x389DA, offset: 0x389DA, size: 0x8, addend: 0x0, symName: __ZNSt3__119__allocate_at_leastB7v160006INS_9allocatorIKNS_12basic_stringIcNS_11char_traitsIcEENS1_IcEEEEEEEENS_19__allocation_resultINS_16allocator_traitsIT_E7pointerEEERSB_m, symObjAddr: 0x51960, symBinAddr: 0x100054170, symSize: 0x210 }
  - { offsetInCU: 0x38A1F, offset: 0x38A1F, size: 0x8, addend: 0x0, symName: __ZNSt3__142__uninitialized_allocator_move_if_noexceptB7v160006INS_9allocatorIKNS_12basic_stringIcNS_11char_traitsIcEENS1_IcEEEEEENS_16reverse_iteratorIPS7_EESB_SB_EET2_RT_T0_T1_SC_, symObjAddr: 0x51E50, symBinAddr: 0x100054660, symSize: 0x660 }
  - { offsetInCU: 0x38AD4, offset: 0x38AD4, size: 0x8, addend: 0x0, symName: __ZNSt3__14swapB7v160006IPKNS_12basic_stringIcNS_11char_traitsIcEENS_9allocatorIcEEEEEENS_9enable_ifIXaasr21is_move_constructibleIT_EE5valuesr18is_move_assignableISA_EE5valueEvE4typeERSA_SD_, symObjAddr: 0x52530, symBinAddr: 0x100054D40, symSize: 0x100 }
  - { offsetInCU: 0x38B26, offset: 0x38B26, size: 0x8, addend: 0x0, symName: __ZNSt3__125__debug_db_invalidate_allB7v160006INS_6vectorIKNS_12basic_stringIcNS_11char_traitsIcEENS_9allocatorIcEEEENS5_IS8_EEEEEEvPT_, symObjAddr: 0x526F0, symBinAddr: 0x100054F00, symSize: 0x10 }
  - { offsetInCU: 0x38B57, offset: 0x38B57, size: 0x8, addend: 0x0, symName: __ZNSt3__122__make_exception_guardB7v160006INS_29_AllocatorDestroyRangeReverseINS_9allocatorIKNS_12basic_stringIcNS_11char_traitsIcEENS2_IcEEEEEENS_16reverse_iteratorIPS8_EEEEEENS_28__exception_guard_exceptionsIT_EESF_, symObjAddr: 0x52700, symBinAddr: 0x100054F10, symSize: 0x2A0 }
  - { offsetInCU: 0x38B90, offset: 0x38B90, size: 0x8, addend: 0x0, symName: __ZNSt3__1neB7v160006IPKNS_12basic_stringIcNS_11char_traitsIcEENS_9allocatorIcEEEES8_EEbRKNS_16reverse_iteratorIT_EERKNS9_IT0_EE, symObjAddr: 0x529E0, symBinAddr: 0x1000551F0, symSize: 0x40 }
  - { offsetInCU: 0x38BDC, offset: 0x38BDC, size: 0x8, addend: 0x0, symName: __ZNSt3__112__to_addressB7v160006INS_16reverse_iteratorIPKNS_12basic_stringIcNS_11char_traitsIcEENS_9allocatorIcEEEEEEvEENS_5decayIDTclsr19__to_address_helperIT_EE6__callclsr3stdE7declvalIRKSC_EEEEE4typeESE_, symObjAddr: 0x52A20, symBinAddr: 0x100055230, symSize: 0x20 }
  - { offsetInCU: 0x38C3C, offset: 0x38C3C, size: 0x8, addend: 0x0, symName: __ZNSt3__14prevB7v160006IPKNS_12basic_stringIcNS_11char_traitsIcEENS_9allocatorIcEEEEEENS_9enable_ifIXsr25__is_cpp17_input_iteratorIT_EE5valueESA_E4typeESA_NS_15iterator_traitsISA_E15difference_typeE, symObjAddr: 0x53150, symBinAddr: 0x100055960, symSize: 0x1E0 }
  - { offsetInCU: 0x38C85, offset: 0x38C85, size: 0x8, addend: 0x0, symName: __ZNSt3__19__advanceB7v160006IPKNS_12basic_stringIcNS_11char_traitsIcEENS_9allocatorIcEEEEEEvRT_NS_15iterator_traitsIS9_E15difference_typeENS_26random_access_iterator_tagE, symObjAddr: 0x53380, symBinAddr: 0x100055B90, symSize: 0x60 }
  - { offsetInCU: 0x38CCF, offset: 0x38CCF, size: 0x8, addend: 0x0, symName: __ZNSt3__119__allocator_destroyB7v160006INS_9allocatorIKNS_12basic_stringIcNS_11char_traitsIcEENS1_IcEEEEEENS_16reverse_iteratorINS9_IPS7_EEEESC_EEvRT_T0_T1_, symObjAddr: 0x539A0, symBinAddr: 0x1000561B0, symSize: 0x220 }
  - { offsetInCU: 0x38D3B, offset: 0x38D3B, size: 0x8, addend: 0x0, symName: __ZNSt3__1neB7v160006INS_16reverse_iteratorIPKNS_12basic_stringIcNS_11char_traitsIcEENS_9allocatorIcEEEEEESA_EEbRKNS1_IT_EERKNS1_IT0_EE, symObjAddr: 0x53DF0, symBinAddr: 0x100056600, symSize: 0x2C0 }
  - { offsetInCU: 0x38D89, offset: 0x38D89, size: 0x8, addend: 0x0, symName: __ZNSt3__112__to_addressB7v160006INS_16reverse_iteratorINS1_IPKNS_12basic_stringIcNS_11char_traitsIcEENS_9allocatorIcEEEEEEEEvEENS_5decayIDTclsr19__to_address_helperIT_EE6__callclsr3stdE7declvalIRKSD_EEEEE4typeESF_, symObjAddr: 0x540D0, symBinAddr: 0x1000568E0, symSize: 0x20 }
  - { offsetInCU: 0x38DC0, offset: 0x38DC0, size: 0x8, addend: 0x0, symName: __ZNSt3__110destroy_atB7v160006IKNS_12basic_stringIcNS_11char_traitsIcEENS_9allocatorIcEEEELi0EEEvPT_, symObjAddr: 0x542B0, symBinAddr: 0x100056AC0, symSize: 0x20 }
  - { offsetInCU: 0x38DF8, offset: 0x38DF8, size: 0x8, addend: 0x0, symName: __ZNSt3__112__destroy_atB7v160006IKNS_12basic_stringIcNS_11char_traitsIcEENS_9allocatorIcEEEELi0EEEvPT_, symObjAddr: 0x542D0, symBinAddr: 0x100056AE0, symSize: 0x20 }
  - { offsetInCU: 0x38E59, offset: 0x38E59, size: 0x8, addend: 0x0, symName: __ZNSt3__14prevB7v160006INS_16reverse_iteratorIPKNS_12basic_stringIcNS_11char_traitsIcEENS_9allocatorIcEEEEEEEENS_9enable_ifIXsr25__is_cpp17_input_iteratorIT_EE5valueESC_E4typeESC_NS_15iterator_traitsISC_E15difference_typeE, symObjAddr: 0x545B0, symBinAddr: 0x100056DC0, symSize: 0x260 }
  - { offsetInCU: 0x38EA2, offset: 0x38EA2, size: 0x8, addend: 0x0, symName: __ZNSt3__19__advanceB7v160006INS_16reverse_iteratorIPKNS_12basic_stringIcNS_11char_traitsIcEENS_9allocatorIcEEEEEEEEvRT_NS_15iterator_traitsISB_E15difference_typeENS_26random_access_iterator_tagE, symObjAddr: 0x54860, symBinAddr: 0x100057070, symSize: 0x30 }
  - { offsetInCU: 0x38EEC, offset: 0x38EEC, size: 0x8, addend: 0x0, symName: __ZNSt3__1eqB7v160006IPKNS_12basic_stringIcNS_11char_traitsIcEENS_9allocatorIcEEEEEEbRKNS_11__wrap_iterIT_EESD_, symObjAddr: 0x551B0, symBinAddr: 0x1000579C0, symSize: 0x40 }
  - { offsetInCU: 0x38F2F, offset: 0x38F2F, size: 0x8, addend: 0x0, symName: __ZNSt3__1eqB7v160006IPK17VkLayerPropertiesEEbRKNS_11__wrap_iterIT_EES8_, symObjAddr: 0x55610, symBinAddr: 0x100057E20, symSize: 0x40 }
  - { offsetInCU: 0x38F72, offset: 0x38F72, size: 0x8, addend: 0x0, symName: __ZNSt3__1eqB7v160006IPKPKcEEbRKNS_11__wrap_iterIT_EES9_, symObjAddr: 0x558B0, symBinAddr: 0x1000580C0, symSize: 0x40 }
  - { offsetInCU: 0x38FB5, offset: 0x38FB5, size: 0x8, addend: 0x0, symName: __ZNSt3__1eqB7v160006IPK21VkExtensionPropertiesEEbRKNS_11__wrap_iterIT_EES8_, symObjAddr: 0x55B50, symBinAddr: 0x100058360, symSize: 0x40 }
  - { offsetInCU: 0x390A0, offset: 0x390A0, size: 0x8, addend: 0x0, symName: __ZNSt3__119__debug_db_insert_cB7v160006INS_6vectorI17VkLayerPropertiesNS_9allocatorIS2_EEEEEEvPT_, symObjAddr: 0x56440, symBinAddr: 0x100058C50, symSize: 0x10 }
  - { offsetInCU: 0x390D2, offset: 0x390D2, size: 0x8, addend: 0x0, symName: __ZNSt3__119__debug_db_insert_cB7v160006INS_6vectorI21VkExtensionPropertiesNS_9allocatorIS2_EEEEEEvPT_, symObjAddr: 0x567C0, symBinAddr: 0x100058FD0, symSize: 0x10 }
  - { offsetInCU: 0x39104, offset: 0x39104, size: 0x8, addend: 0x0, symName: __ZNSt3__125__debug_db_invalidate_allB7v160006INS_6vectorI17VkLayerPropertiesNS_9allocatorIS2_EEEEEEvPT_, symObjAddr: 0x56A70, symBinAddr: 0x100059280, symSize: 0x10 }
  - { offsetInCU: 0x39135, offset: 0x39135, size: 0x8, addend: 0x0, symName: __ZNSt3__112__to_addressB7v160006I17VkLayerPropertiesEEPT_S3_, symObjAddr: 0x56BC0, symBinAddr: 0x1000593D0, symSize: 0x10 }
  - { offsetInCU: 0x3916B, offset: 0x3916B, size: 0x8, addend: 0x0, symName: __ZNSt3__110destroy_atB7v160006I17VkLayerPropertiesLi0EEEvPT_, symObjAddr: 0x56BD0, symBinAddr: 0x1000593E0, symSize: 0x20 }
  - { offsetInCU: 0x391A3, offset: 0x391A3, size: 0x8, addend: 0x0, symName: __ZNSt3__112__destroy_atB7v160006I17VkLayerPropertiesLi0EEEvPT_, symObjAddr: 0x56BF0, symBinAddr: 0x100059400, symSize: 0x10 }
  - { offsetInCU: 0x391DA, offset: 0x391DA, size: 0x8, addend: 0x0, symName: __ZNSt3__1eqB7v160006IP17VkLayerPropertiesEEbRKNS_11__wrap_iterIT_EES7_, symObjAddr: 0x56FD0, symBinAddr: 0x1000597E0, symSize: 0x40 }
  - { offsetInCU: 0x3921E, offset: 0x3921E, size: 0x8, addend: 0x0, symName: __ZNSt3__125__debug_db_invalidate_allB7v160006INS_6vectorI21VkExtensionPropertiesNS_9allocatorIS2_EEEEEEvPT_, symObjAddr: 0x57220, symBinAddr: 0x100059A30, symSize: 0x10 }
  - { offsetInCU: 0x3924F, offset: 0x3924F, size: 0x8, addend: 0x0, symName: __ZNSt3__112__to_addressB7v160006I21VkExtensionPropertiesEEPT_S3_, symObjAddr: 0x57370, symBinAddr: 0x100059B80, symSize: 0x10 }
  - { offsetInCU: 0x39285, offset: 0x39285, size: 0x8, addend: 0x0, symName: __ZNSt3__110destroy_atB7v160006I21VkExtensionPropertiesLi0EEEvPT_, symObjAddr: 0x57380, symBinAddr: 0x100059B90, symSize: 0x20 }
  - { offsetInCU: 0x392BD, offset: 0x392BD, size: 0x8, addend: 0x0, symName: __ZNSt3__112__destroy_atB7v160006I21VkExtensionPropertiesLi0EEEvPT_, symObjAddr: 0x573A0, symBinAddr: 0x100059BB0, symSize: 0x10 }
  - { offsetInCU: 0x392F4, offset: 0x392F4, size: 0x8, addend: 0x0, symName: __ZNSt3__1eqB7v160006IP21VkExtensionPropertiesEEbRKNS_11__wrap_iterIT_EES7_, symObjAddr: 0x57780, symBinAddr: 0x100059F90, symSize: 0x40 }
  - { offsetInCU: 0x39337, offset: 0x39337, size: 0x8, addend: 0x0, symName: __ZNSt3__1miB7v160006IPK21VkExtensionPropertiesPS1_EEDTmicldtfp_4baseEcldtfp0_4baseEERKNS_11__wrap_iterIT_EERKNS6_IT0_EE, symObjAddr: 0x57810, symBinAddr: 0x10005A020, symSize: 0x40 }
  - { offsetInCU: 0x39383, offset: 0x39383, size: 0x8, addend: 0x0, symName: __ZNSt3__18distanceB7v160006INS_11__wrap_iterIP21VkExtensionPropertiesEEEENS_15iterator_traitsIT_E15difference_typeES6_S6_, symObjAddr: 0x57850, symBinAddr: 0x10005A060, symSize: 0x2C0 }
  - { offsetInCU: 0x393CE, offset: 0x393CE, size: 0x8, addend: 0x0, symName: __ZNSt3__14copyB7v160006INS_11__wrap_iterIP21VkExtensionPropertiesEES3_EET0_T_S6_S5_, symObjAddr: 0x58450, symBinAddr: 0x10005AC60, symSize: 0x3F0 }
  - { offsetInCU: 0x39431, offset: 0x39431, size: 0x8, addend: 0x0, symName: __ZNSt3__110__distanceB7v160006INS_11__wrap_iterIP21VkExtensionPropertiesEEEENS_15iterator_traitsIT_E15difference_typeES6_S6_NS_26random_access_iterator_tagE, symObjAddr: 0x59910, symBinAddr: 0x10005C120, symSize: 0x1E0 }
  - { offsetInCU: 0x39488, offset: 0x39488, size: 0x8, addend: 0x0, symName: __ZNSt3__1miB7v160006IP21VkExtensionPropertiesS2_EEDTmicldtfp_4baseEcldtfp0_4baseEERKNS_11__wrap_iterIT_EERKNS4_IT0_EE, symObjAddr: 0x59AF0, symBinAddr: 0x10005C300, symSize: 0x40 }
  - { offsetInCU: 0x394D5, offset: 0x394D5, size: 0x8, addend: 0x0, symName: __ZNSt3__19__advanceB7v160006INS_11__wrap_iterIP21VkExtensionPropertiesEEEEvRT_NS_15iterator_traitsIS5_E15difference_typeENS_26random_access_iterator_tagE, symObjAddr: 0x59B60, symBinAddr: 0x10005C370, symSize: 0x30 }
  - { offsetInCU: 0x3951F, offset: 0x3951F, size: 0x8, addend: 0x0, symName: __ZNSt3__130__uninitialized_allocator_copyB7v160006INS_9allocatorI21VkExtensionPropertiesEENS_11__wrap_iterIPS2_EES6_S5_EET2_RT_T0_T1_S7_, symObjAddr: 0x59C20, symBinAddr: 0x10005C430, symSize: 0x600 }
  - { offsetInCU: 0x395D3, offset: 0x395D3, size: 0x8, addend: 0x0, symName: __ZNSt3__122__make_exception_guardB7v160006INS_29_AllocatorDestroyRangeReverseINS_9allocatorI21VkExtensionPropertiesEEPS3_EEEENS_28__exception_guard_exceptionsIT_EES8_, symObjAddr: 0x5A4D0, symBinAddr: 0x10005CCE0, symSize: 0x2A0 }
  - { offsetInCU: 0x39633, offset: 0x39633, size: 0x8, addend: 0x0, symName: __ZNSt3__112construct_atB7v160006I21VkExtensionPropertiesJRS1_EPS1_EEPT_S5_DpOT0_, symObjAddr: 0x5AD90, symBinAddr: 0x10005D5A0, symSize: 0x40 }
  - { offsetInCU: 0x396A5, offset: 0x396A5, size: 0x8, addend: 0x0, symName: __ZNSt3__119__allocator_destroyB7v160006INS_9allocatorI21VkExtensionPropertiesEENS_16reverse_iteratorIPS2_EES6_EEvRT_T0_T1_, symObjAddr: 0x5B1E0, symBinAddr: 0x10005D9F0, symSize: 0x2B0 }
  - { offsetInCU: 0x39711, offset: 0x39711, size: 0x8, addend: 0x0, symName: __ZNSt3__1neB7v160006IP21VkExtensionPropertiesS2_EEbRKNS_16reverse_iteratorIT_EERKNS3_IT0_EE, symObjAddr: 0x5B4C0, symBinAddr: 0x10005DCD0, symSize: 0x40 }
  - { offsetInCU: 0x3975D, offset: 0x3975D, size: 0x8, addend: 0x0, symName: __ZNSt3__112__to_addressB7v160006INS_16reverse_iteratorIP21VkExtensionPropertiesEEvEENS_5decayIDTclsr19__to_address_helperIT_EE6__callclsr3stdE7declvalIRKS6_EEEEE4typeES8_, symObjAddr: 0x5B500, symBinAddr: 0x10005DD10, symSize: 0x20 }
  - { offsetInCU: 0x397BD, offset: 0x397BD, size: 0x8, addend: 0x0, symName: __ZNSt3__14prevB7v160006IP21VkExtensionPropertiesEENS_9enable_ifIXsr25__is_cpp17_input_iteratorIT_EE5valueES4_E4typeES4_NS_15iterator_traitsIS4_E15difference_typeE, symObjAddr: 0x5B670, symBinAddr: 0x10005DE80, symSize: 0x1E0 }
  - { offsetInCU: 0x39806, offset: 0x39806, size: 0x8, addend: 0x0, symName: __ZNSt3__19__advanceB7v160006IP21VkExtensionPropertiesEEvRT_NS_15iterator_traitsIS3_E15difference_typeENS_26random_access_iterator_tagE, symObjAddr: 0x5B8A0, symBinAddr: 0x10005E0B0, symSize: 0x60 }
  - { offsetInCU: 0x39850, offset: 0x39850, size: 0x8, addend: 0x0, symName: __ZNSt3__113move_backwardB7v160006IP21VkExtensionPropertiesS2_EET0_T_S4_S3_, symObjAddr: 0x5BC00, symBinAddr: 0x10005E410, symSize: 0x220 }
  - { offsetInCU: 0x398AD, offset: 0x398AD, size: 0x8, addend: 0x0, symName: __ZNSt3__112construct_atB7v160006I21VkExtensionPropertiesJS1_EPS1_EEPT_S4_DpOT0_, symObjAddr: 0x5BE20, symBinAddr: 0x10005E630, symSize: 0x40 }
  - { offsetInCU: 0x3991F, offset: 0x3991F, size: 0x8, addend: 0x0, symName: __ZNSt3__115__move_backwardB7v160006INS_17_ClassicAlgPolicyEP21VkExtensionPropertiesS3_S3_EENS_4pairIT0_T2_EES5_T1_S6_, symObjAddr: 0x5BE60, symBinAddr: 0x10005E670, symSize: 0x210 }
  - { offsetInCU: 0x3998E, offset: 0x3998E, size: 0x8, addend: 0x0, symName: __ZNSt3__123__dispatch_copy_or_moveB7v160006INS_17_ClassicAlgPolicyENS_20__move_backward_loopIS1_EENS_23__move_backward_trivialEP21VkExtensionPropertiesS6_S6_EENS_4pairIT2_T4_EES8_T3_S9_, symObjAddr: 0x5C070, symBinAddr: 0x10005E880, symSize: 0x210 }
  - { offsetInCU: 0x39A0F, offset: 0x39A0F, size: 0x8, addend: 0x0, symName: __ZNSt3__121__unwrap_and_dispatchB7v160006INS_10__overloadINS_20__move_backward_loopINS_17_ClassicAlgPolicyEEENS_23__move_backward_trivialEEEP21VkExtensionPropertiesS8_S8_Li0EEENS_4pairIT0_T2_EESA_T1_SB_, symObjAddr: 0x5C280, symBinAddr: 0x10005EA90, symSize: 0x650 }
  - { offsetInCU: 0x39AA8, offset: 0x39AA8, size: 0x8, addend: 0x0, symName: __ZNSt3__114__unwrap_rangeB7v160006IP21VkExtensionPropertiesS2_EEDaT_T0_, symObjAddr: 0x5C8D0, symBinAddr: 0x10005F0E0, symSize: 0x210 }
  - { offsetInCU: 0x39CE9, offset: 0x39CE9, size: 0x8, addend: 0x0, symName: __ZNSt3__113__unwrap_iterB7v160006IP21VkExtensionPropertiesNS_18__unwrap_iter_implIS2_Lb1EEELi0EEEDTclsrT0_8__unwrapclsr3stdE7declvalIT_EEEES6_, symObjAddr: 0x5CCF0, symBinAddr: 0x10005F500, symSize: 0x20 }
  - { offsetInCU: 0x39D2D, offset: 0x39D2D, size: 0x8, addend: 0x0, symName: __ZNSt3__19make_pairB7v160006IP21VkExtensionPropertiesS2_EENS_4pairINS_18__unwrap_ref_decayIT_E4typeENS4_IT0_E4typeEEEOS5_OS8_, symObjAddr: 0x5CD10, symBinAddr: 0x10005F520, symSize: 0x190 }
  - { offsetInCU: 0x39D7E, offset: 0x39D7E, size: 0x8, addend: 0x0, symName: __ZNSt3__114__rewrap_rangeB7v160006IP21VkExtensionPropertiesS2_S2_EET0_S3_T1_, symObjAddr: 0x5CEA0, symBinAddr: 0x10005F6B0, symSize: 0x30 }
  - { offsetInCU: 0x39DD3, offset: 0x39DD3, size: 0x8, addend: 0x0, symName: __ZNSt3__113__rewrap_iterB7v160006IP21VkExtensionPropertiesS2_NS_18__unwrap_iter_implIS2_Lb1EEEEET_S5_T0_, symObjAddr: 0x5CED0, symBinAddr: 0x10005F6E0, symSize: 0x50 }
  - { offsetInCU: 0x39E78, offset: 0x39E78, size: 0x8, addend: 0x0, symName: __ZNSt3__128__copy_backward_trivial_implB7v160006I21VkExtensionPropertiesS1_EENS_4pairIPT_PT0_EES4_S4_S6_, symObjAddr: 0x5D2D0, symBinAddr: 0x10005FAE0, symSize: 0x380 }
  - { offsetInCU: 0x39EEA, offset: 0x39EEA, size: 0x8, addend: 0x0, symName: __ZNSt3__19make_pairB7v160006IRP21VkExtensionPropertiesS3_EENS_4pairINS_18__unwrap_ref_decayIT_E4typeENS5_IT0_E4typeEEEOS6_OS9_, symObjAddr: 0x5D650, symBinAddr: 0x10005FE60, symSize: 0x190 }
  - { offsetInCU: 0x39F8F, offset: 0x39F8F, size: 0x8, addend: 0x0, symName: __ZNSt3__16__copyB7v160006INS_17_ClassicAlgPolicyENS_11__wrap_iterIP21VkExtensionPropertiesEES5_S4_EENS_4pairIT0_T2_EES7_T1_S8_, symObjAddr: 0x5D9D0, symBinAddr: 0x1000601E0, symSize: 0x3E0 }
  - { offsetInCU: 0x3A004, offset: 0x3A004, size: 0x8, addend: 0x0, symName: __ZNSt3__123__dispatch_copy_or_moveB7v160006INS_17_ClassicAlgPolicyENS_11__copy_loopIS1_EENS_14__copy_trivialENS_11__wrap_iterIP21VkExtensionPropertiesEES8_S7_EENS_4pairIT2_T4_EESA_T3_SB_, symObjAddr: 0x5DDB0, symBinAddr: 0x1000605C0, symSize: 0x3E0 }
  - { offsetInCU: 0x3A08B, offset: 0x3A08B, size: 0x8, addend: 0x0, symName: __ZNSt3__121__unwrap_and_dispatchB7v160006INS_10__overloadINS_11__copy_loopINS_17_ClassicAlgPolicyEEENS_14__copy_trivialEEENS_11__wrap_iterIP21VkExtensionPropertiesEESA_S9_Li0EEENS_4pairIT0_T2_EESC_T1_SD_, symObjAddr: 0x5E190, symBinAddr: 0x1000609A0, symSize: 0x840 }
  - { offsetInCU: 0x3A12C, offset: 0x3A12C, size: 0x8, addend: 0x0, symName: __ZNSt3__114__unwrap_rangeB7v160006INS_11__wrap_iterIP21VkExtensionPropertiesEES4_EEDaT_T0_, symObjAddr: 0x5E9D0, symBinAddr: 0x1000611E0, symSize: 0x3A0 }
  - { offsetInCU: 0x3A2B6, offset: 0x3A2B6, size: 0x8, addend: 0x0, symName: __ZNSt3__19make_pairB7v160006INS_11__wrap_iterIP21VkExtensionPropertiesEES3_EENS_4pairINS_18__unwrap_ref_decayIT_E4typeENS6_IT0_E4typeEEEOS7_OSA_, symObjAddr: 0x5EF80, symBinAddr: 0x100061790, symSize: 0x190 }
  - { offsetInCU: 0x3A307, offset: 0x3A307, size: 0x8, addend: 0x0, symName: __ZNSt3__114__rewrap_rangeB7v160006INS_11__wrap_iterIP21VkExtensionPropertiesEES4_S3_EET0_S5_T1_, symObjAddr: 0x5F110, symBinAddr: 0x100061920, symSize: 0x280 }
  - { offsetInCU: 0x3A3B1, offset: 0x3A3B1, size: 0x8, addend: 0x0, symName: __ZNSt3__113__unwrap_iterB7v160006INS_11__wrap_iterIP21VkExtensionPropertiesEENS_18__unwrap_iter_implIS4_Lb1EEELi0EEEDTclsrT0_8__unwrapclsr3stdE7declvalIT_EEEES8_, symObjAddr: 0x5F790, symBinAddr: 0x100061FA0, symSize: 0x1E0 }
  - { offsetInCU: 0x3A44D, offset: 0x3A44D, size: 0x8, addend: 0x0, symName: __ZNSt3__112__to_addressB7v160006INS_11__wrap_iterIP21VkExtensionPropertiesEEvEENS_5decayIDTclsr19__to_address_helperIT_EE6__callclsr3stdE7declvalIRKS6_EEEEE4typeES8_, symObjAddr: 0x5FAF0, symBinAddr: 0x100062300, symSize: 0x20 }
  - { offsetInCU: 0x3A4EF, offset: 0x3A4EF, size: 0x8, addend: 0x0, symName: __ZNSt3__119__copy_trivial_implB7v160006I21VkExtensionPropertiesS1_EENS_4pairIPT_PT0_EES4_S4_S6_, symObjAddr: 0x5FE10, symBinAddr: 0x100062620, symSize: 0x350 }
  - { offsetInCU: 0x3A55E, offset: 0x3A55E, size: 0x8, addend: 0x0, symName: __ZNSt3__19make_pairB7v160006IRP21VkExtensionPropertiesS2_EENS_4pairINS_18__unwrap_ref_decayIT_E4typeENS5_IT0_E4typeEEEOS6_OS9_, symObjAddr: 0x60160, symBinAddr: 0x100062970, symSize: 0x190 }
  - { offsetInCU: 0x3A684, offset: 0x3A684, size: 0x8, addend: 0x0, symName: __ZNSt3__113__rewrap_iterB7v160006INS_11__wrap_iterIP21VkExtensionPropertiesEES3_NS_18__unwrap_iter_implIS4_Lb1EEEEET_S7_T0_, symObjAddr: 0x60790, symBinAddr: 0x100062FA0, symSize: 0x290 }
  - { offsetInCU: 0x3A6DE, offset: 0x3A6DE, size: 0x8, addend: 0x0, symName: __ZNSt3__119__allocate_at_leastB7v160006INS_9allocatorI21VkExtensionPropertiesEEEENS_19__allocation_resultINS_16allocator_traitsIT_E7pointerEEERS6_m, symObjAddr: 0x615E0, symBinAddr: 0x100063DF0, symSize: 0x210 }
  - { offsetInCU: 0x3A723, offset: 0x3A723, size: 0x8, addend: 0x0, symName: __ZNSt3__142__uninitialized_allocator_move_if_noexceptB7v160006INS_9allocatorI21VkExtensionPropertiesEENS_16reverse_iteratorIPS2_EES6_S2_vEET1_RT_T0_SA_S7_, symObjAddr: 0x61D10, symBinAddr: 0x100064520, symSize: 0x610 }
  - { offsetInCU: 0x3A7AD, offset: 0x3A7AD, size: 0x8, addend: 0x0, symName: __ZNSt3__142__uninitialized_allocator_move_if_noexceptB7v160006INS_9allocatorI21VkExtensionPropertiesEEPS2_S4_S2_vEET1_RT_T0_S8_S5_, symObjAddr: 0x62320, symBinAddr: 0x100064B30, symSize: 0x30 }
  - { offsetInCU: 0x3A829, offset: 0x3A829, size: 0x8, addend: 0x0, symName: __ZNSt3__14swapB7v160006IP21VkExtensionPropertiesEENS_9enable_ifIXaasr21is_move_constructibleIT_EE5valuesr18is_move_assignableIS4_EE5valueEvE4typeERS4_S7_, symObjAddr: 0x62350, symBinAddr: 0x100064B60, symSize: 0x100 }
  - { offsetInCU: 0x3A87A, offset: 0x3A87A, size: 0x8, addend: 0x0, symName: __ZNSt3__14moveB7v160006INS_16reverse_iteratorIP21VkExtensionPropertiesEES4_EET0_T_S6_S5_, symObjAddr: 0x62520, symBinAddr: 0x100064D30, symSize: 0x660 }
  - { offsetInCU: 0x3A8E1, offset: 0x3A8E1, size: 0x8, addend: 0x0, symName: __ZNSt3__16__moveB7v160006INS_17_ClassicAlgPolicyENS_16reverse_iteratorIP21VkExtensionPropertiesEES5_S5_EENS_4pairIT0_T2_EES7_T1_S8_, symObjAddr: 0x62B80, symBinAddr: 0x100065390, symSize: 0x550 }
  - { offsetInCU: 0x3A959, offset: 0x3A959, size: 0x8, addend: 0x0, symName: __ZNSt3__123__dispatch_copy_or_moveB7v160006INS_17_ClassicAlgPolicyENS_11__move_loopIS1_EENS_14__move_trivialENS_16reverse_iteratorIP21VkExtensionPropertiesEES8_S8_EENS_4pairIT2_T4_EESA_T3_SB_, symObjAddr: 0x630D0, symBinAddr: 0x1000658E0, symSize: 0x550 }
  - { offsetInCU: 0x3A9E3, offset: 0x3A9E3, size: 0x8, addend: 0x0, symName: __ZNSt3__121__unwrap_and_dispatchB7v160006INS_10__overloadINS_11__move_loopINS_17_ClassicAlgPolicyEEENS_14__move_trivialEEENS_16reverse_iteratorIP21VkExtensionPropertiesEESA_SA_Li0EEENS_4pairIT0_T2_EESC_T1_SD_, symObjAddr: 0x63620, symBinAddr: 0x100065E30, symSize: 0xD30 }
  - { offsetInCU: 0x3AA87, offset: 0x3AA87, size: 0x8, addend: 0x0, symName: __ZNSt3__114__unwrap_rangeB7v160006INS_16reverse_iteratorIP21VkExtensionPropertiesEES4_EEDaT_T0_, symObjAddr: 0x64350, symBinAddr: 0x100066B60, symSize: 0x3E0 }
  - { offsetInCU: 0x3AF7D, offset: 0x3AF7D, size: 0x8, addend: 0x0, symName: __ZNSt3__113__unwrap_iterB7v160006INS_16reverse_iteratorIP21VkExtensionPropertiesEENS_18__unwrap_iter_implIS4_Lb0EEELi0EEEDTclsrT0_8__unwrapclsr3stdE7declvalIT_EEEES8_, symObjAddr: 0x64A50, symBinAddr: 0x100067260, symSize: 0x340 }
  - { offsetInCU: 0x3AFC5, offset: 0x3AFC5, size: 0x8, addend: 0x0, symName: __ZNSt3__19make_pairB7v160006INS_16reverse_iteratorIP21VkExtensionPropertiesEES4_EENS_4pairINS_18__unwrap_ref_decayIT_E4typeENS6_IT0_E4typeEEEOS7_OSA_, symObjAddr: 0x64D90, symBinAddr: 0x1000675A0, symSize: 0x30 }
  - { offsetInCU: 0x3B014, offset: 0x3B014, size: 0x8, addend: 0x0, symName: __ZNSt3__114__rewrap_rangeB7v160006INS_16reverse_iteratorIP21VkExtensionPropertiesEES4_S4_EET0_S5_T1_, symObjAddr: 0x64DC0, symBinAddr: 0x1000675D0, symSize: 0x4E0 }
  - { offsetInCU: 0x3B071, offset: 0x3B071, size: 0x8, addend: 0x0, symName: __ZNSt3__113__rewrap_iterB7v160006INS_16reverse_iteratorIP21VkExtensionPropertiesEES4_NS_18__unwrap_iter_implIS4_Lb0EEEEET_S7_T0_, symObjAddr: 0x652A0, symBinAddr: 0x100067AB0, symSize: 0x4F0 }
  - { offsetInCU: 0x3B611, offset: 0x3B611, size: 0x8, addend: 0x0, symName: __ZNSt3__14moveB7v160006IP21VkExtensionPropertiesS2_EET0_T_S4_S3_, symObjAddr: 0x66810, symBinAddr: 0x100069020, symSize: 0x220 }
  - { offsetInCU: 0x3B66E, offset: 0x3B66E, size: 0x8, addend: 0x0, symName: __ZNSt3__16__moveB7v160006INS_17_ClassicAlgPolicyEP21VkExtensionPropertiesS3_S3_EENS_4pairIT0_T2_EES5_T1_S6_, symObjAddr: 0x66A30, symBinAddr: 0x100069240, symSize: 0x210 }
  - { offsetInCU: 0x3B6DD, offset: 0x3B6DD, size: 0x8, addend: 0x0, symName: __ZNSt3__123__dispatch_copy_or_moveB7v160006INS_17_ClassicAlgPolicyENS_11__move_loopIS1_EENS_14__move_trivialEP21VkExtensionPropertiesS6_S6_EENS_4pairIT2_T4_EES8_T3_S9_, symObjAddr: 0x66C40, symBinAddr: 0x100069450, symSize: 0x210 }
  - { offsetInCU: 0x3B75E, offset: 0x3B75E, size: 0x8, addend: 0x0, symName: __ZNSt3__121__unwrap_and_dispatchB7v160006INS_10__overloadINS_11__move_loopINS_17_ClassicAlgPolicyEEENS_14__move_trivialEEEP21VkExtensionPropertiesS8_S8_Li0EEENS_4pairIT0_T2_EESA_T1_SB_, symObjAddr: 0x66E50, symBinAddr: 0x100069660, symSize: 0x650 }
  - { offsetInCU: 0x3B8B6, offset: 0x3B8B6, size: 0x8, addend: 0x0, symName: __ZNSt3__118__debug_db_erase_cB7v160006INS_6vectorI21VkExtensionPropertiesNS_9allocatorIS2_EEEEEEvPT_, symObjAddr: 0x67EE0, symBinAddr: 0x10006A6F0, symSize: 0x10 }
  - { offsetInCU: 0x3B8E8, offset: 0x3B8E8, size: 0x8, addend: 0x0, symName: __ZNSt3__118__debug_db_erase_cB7v160006INS_6vectorI17VkLayerPropertiesNS_9allocatorIS2_EEEEEEvPT_, symObjAddr: 0x683E0, symBinAddr: 0x10006ABF0, symSize: 0x10 }
  - { offsetInCU: 0x3B91A, offset: 0x3B91A, size: 0x8, addend: 0x0, symName: __ZNSt3__119__debug_db_insert_cB7v160006INS_6vectorI20VkValidationCheckEXTNS_9allocatorIS2_EEEEEEvPT_, symObjAddr: 0x6CA90, symBinAddr: 0x10006F2A0, symSize: 0x10 }
  - { offsetInCU: 0x3B94C, offset: 0x3B94C, size: 0x8, addend: 0x0, symName: __ZNSt3__119__debug_db_insert_cB7v160006INS_6vectorI28VkValidationFeatureEnableEXTNS_9allocatorIS2_EEEEEEvPT_, symObjAddr: 0x6CE10, symBinAddr: 0x10006F620, symSize: 0x10 }
  - { offsetInCU: 0x3B97E, offset: 0x3B97E, size: 0x8, addend: 0x0, symName: __ZNSt3__119__debug_db_insert_cB7v160006INS_6vectorI29VkValidationFeatureDisableEXTNS_9allocatorIS2_EEEEEEvPT_, symObjAddr: 0x6D190, symBinAddr: 0x10006F9A0, symSize: 0x10 }
  - { offsetInCU: 0x3B9AF, offset: 0x3B9AF, size: 0x8, addend: 0x0, symName: __ZNSt3__122__make_exception_guardB7v160006INS_6vectorI17VkLayerPropertiesNS_9allocatorIS2_EEE16__destroy_vectorEEENS_28__exception_guard_exceptionsIT_EES8_, symObjAddr: 0x6D870, symBinAddr: 0x100070080, symSize: 0x1F0 }
  - { offsetInCU: 0x3B9E8, offset: 0x3B9E8, size: 0x8, addend: 0x0, symName: __ZNSt3__119__allocate_at_leastB7v160006INS_9allocatorI17VkLayerPropertiesEEEENS_19__allocation_resultINS_16allocator_traitsIT_E7pointerEEERS6_m, symObjAddr: 0x6E890, symBinAddr: 0x1000710A0, symSize: 0x210 }
  - { offsetInCU: 0x3BA2D, offset: 0x3BA2D, size: 0x8, addend: 0x0, symName: __ZNSt3__130__uninitialized_allocator_copyB7v160006INS_9allocatorI17VkLayerPropertiesEEPS2_S4_S4_EET2_RT_T0_T1_S5_, symObjAddr: 0x6EC80, symBinAddr: 0x100071490, symSize: 0x550 }
  - { offsetInCU: 0x3BAD9, offset: 0x3BAD9, size: 0x8, addend: 0x0, symName: __ZNSt3__122__make_exception_guardB7v160006INS_29_AllocatorDestroyRangeReverseINS_9allocatorI17VkLayerPropertiesEEPS3_EEEENS_28__exception_guard_exceptionsIT_EES8_, symObjAddr: 0x6F480, symBinAddr: 0x100071C90, symSize: 0x2A0 }
  - { offsetInCU: 0x3BB39, offset: 0x3BB39, size: 0x8, addend: 0x0, symName: __ZNSt3__112construct_atB7v160006I17VkLayerPropertiesJRS1_EPS1_EEPT_S5_DpOT0_, symObjAddr: 0x6FD40, symBinAddr: 0x100072550, symSize: 0x40 }
  - { offsetInCU: 0x3BBAB, offset: 0x3BBAB, size: 0x8, addend: 0x0, symName: __ZNSt3__119__allocator_destroyB7v160006INS_9allocatorI17VkLayerPropertiesEENS_16reverse_iteratorIPS2_EES6_EEvRT_T0_T1_, symObjAddr: 0x70190, symBinAddr: 0x1000729A0, symSize: 0x2B0 }
  - { offsetInCU: 0x3BC17, offset: 0x3BC17, size: 0x8, addend: 0x0, symName: __ZNSt3__1neB7v160006IP17VkLayerPropertiesS2_EEbRKNS_16reverse_iteratorIT_EERKNS3_IT0_EE, symObjAddr: 0x70470, symBinAddr: 0x100072C80, symSize: 0x40 }
  - { offsetInCU: 0x3BC63, offset: 0x3BC63, size: 0x8, addend: 0x0, symName: __ZNSt3__112__to_addressB7v160006INS_16reverse_iteratorIP17VkLayerPropertiesEEvEENS_5decayIDTclsr19__to_address_helperIT_EE6__callclsr3stdE7declvalIRKS6_EEEEE4typeES8_, symObjAddr: 0x704B0, symBinAddr: 0x100072CC0, symSize: 0x20 }
  - { offsetInCU: 0x3BCC3, offset: 0x3BCC3, size: 0x8, addend: 0x0, symName: __ZNSt3__14prevB7v160006IP17VkLayerPropertiesEENS_9enable_ifIXsr25__is_cpp17_input_iteratorIT_EE5valueES4_E4typeES4_NS_15iterator_traitsIS4_E15difference_typeE, symObjAddr: 0x70620, symBinAddr: 0x100072E30, symSize: 0x1E0 }
  - { offsetInCU: 0x3BD0C, offset: 0x3BD0C, size: 0x8, addend: 0x0, symName: __ZNSt3__19__advanceB7v160006IP17VkLayerPropertiesEEvRT_NS_15iterator_traitsIS3_E15difference_typeENS_26random_access_iterator_tagE, symObjAddr: 0x70850, symBinAddr: 0x100073060, symSize: 0x60 }
  - { offsetInCU: 0x3BD56, offset: 0x3BD56, size: 0x8, addend: 0x0, symName: __ZNSt3__122__make_exception_guardB7v160006INS_6vectorI21VkExtensionPropertiesNS_9allocatorIS2_EEE16__destroy_vectorEEENS_28__exception_guard_exceptionsIT_EES8_, symObjAddr: 0x71100, symBinAddr: 0x100073910, symSize: 0x1F0 }
  - { offsetInCU: 0x3BD8F, offset: 0x3BD8F, size: 0x8, addend: 0x0, symName: __ZNSt3__130__uninitialized_allocator_copyB7v160006INS_9allocatorI21VkExtensionPropertiesEEPS2_S4_S4_EET2_RT_T0_T1_S5_, symObjAddr: 0x71E70, symBinAddr: 0x100074680, symSize: 0x550 }
  - { offsetInCU: 0x3BE3C, offset: 0x3BE3C, size: 0x8, addend: 0x0, symName: __ZNSt3__119__debug_db_insert_cB7v160006INS_6vectorIPKcNS_9allocatorIS3_EEEEEEvPT_, symObjAddr: 0x726E0, symBinAddr: 0x100074EF0, symSize: 0x10 }
  - { offsetInCU: 0x3BE6D, offset: 0x3BE6D, size: 0x8, addend: 0x0, symName: __ZNSt3__112__to_addressB7v160006IPKcEEPT_S4_, symObjAddr: 0x72E90, symBinAddr: 0x1000756A0, symSize: 0x10 }
  - { offsetInCU: 0x3BEC9, offset: 0x3BEC9, size: 0x8, addend: 0x0, symName: __ZNSt3__112construct_atB7v160006IPKcJRKS2_EPS2_EEPT_S7_DpOT0_, symObjAddr: 0x732B0, symBinAddr: 0x100075AC0, symSize: 0xA0 }
  - { offsetInCU: 0x3BF3B, offset: 0x3BF3B, size: 0x8, addend: 0x0, symName: __ZNSt3__119__allocate_at_leastB7v160006INS_9allocatorIPKcEEEENS_19__allocation_resultINS_16allocator_traitsIT_E7pointerEEERS7_m, symObjAddr: 0x74850, symBinAddr: 0x100077060, symSize: 0x210 }
  - { offsetInCU: 0x3BF80, offset: 0x3BF80, size: 0x8, addend: 0x0, symName: __ZNSt3__142__uninitialized_allocator_move_if_noexceptB7v160006INS_9allocatorIPKcEENS_16reverse_iteratorIPS3_EES7_S3_vEET1_RT_T0_SB_S8_, symObjAddr: 0x74CF0, symBinAddr: 0x100077500, symSize: 0x610 }
  - { offsetInCU: 0x3C00A, offset: 0x3C00A, size: 0x8, addend: 0x0, symName: __ZNSt3__14swapB7v160006IPPKcEENS_9enable_ifIXaasr21is_move_constructibleIT_EE5valuesr18is_move_assignableIS5_EE5valueEvE4typeERS5_S8_, symObjAddr: 0x75380, symBinAddr: 0x100077B90, symSize: 0x100 }
  - { offsetInCU: 0x3C05C, offset: 0x3C05C, size: 0x8, addend: 0x0, symName: __ZNSt3__125__debug_db_invalidate_allB7v160006INS_6vectorIPKcNS_9allocatorIS3_EEEEEEvPT_, symObjAddr: 0x75530, symBinAddr: 0x100077D40, symSize: 0x10 }
  - { offsetInCU: 0x3C08D, offset: 0x3C08D, size: 0x8, addend: 0x0, symName: __ZNSt3__14moveB7v160006INS_16reverse_iteratorIPPKcEES5_EET0_T_S7_S6_, symObjAddr: 0x75540, symBinAddr: 0x100077D50, symSize: 0x660 }
  - { offsetInCU: 0x3C0F4, offset: 0x3C0F4, size: 0x8, addend: 0x0, symName: __ZNSt3__16__moveB7v160006INS_17_ClassicAlgPolicyENS_16reverse_iteratorIPPKcEES6_S6_EENS_4pairIT0_T2_EES8_T1_S9_, symObjAddr: 0x75BA0, symBinAddr: 0x1000783B0, symSize: 0x550 }
  - { offsetInCU: 0x3C16C, offset: 0x3C16C, size: 0x8, addend: 0x0, symName: __ZNSt3__123__dispatch_copy_or_moveB7v160006INS_17_ClassicAlgPolicyENS_11__move_loopIS1_EENS_14__move_trivialENS_16reverse_iteratorIPPKcEES9_S9_EENS_4pairIT2_T4_EESB_T3_SC_, symObjAddr: 0x760F0, symBinAddr: 0x100078900, symSize: 0x550 }
  - { offsetInCU: 0x3C1F6, offset: 0x3C1F6, size: 0x8, addend: 0x0, symName: __ZNSt3__121__unwrap_and_dispatchB7v160006INS_10__overloadINS_11__move_loopINS_17_ClassicAlgPolicyEEENS_14__move_trivialEEENS_16reverse_iteratorIPPKcEESB_SB_Li0EEENS_4pairIT0_T2_EESD_T1_SE_, symObjAddr: 0x76640, symBinAddr: 0x100078E50, symSize: 0xD30 }
  - { offsetInCU: 0x3C29A, offset: 0x3C29A, size: 0x8, addend: 0x0, symName: __ZNSt3__114__unwrap_rangeB7v160006INS_16reverse_iteratorIPPKcEES5_EEDaT_T0_, symObjAddr: 0x77370, symBinAddr: 0x100079B80, symSize: 0x3E0 }
  - { offsetInCU: 0x3C3C3, offset: 0x3C3C3, size: 0x8, addend: 0x0, symName: __ZNSt3__113__unwrap_iterB7v160006INS_16reverse_iteratorIPPKcEENS_18__unwrap_iter_implIS5_Lb0EEELi0EEEDTclsrT0_8__unwrapclsr3stdE7declvalIT_EEEES9_, symObjAddr: 0x77AD0, symBinAddr: 0x10007A2E0, symSize: 0x340 }
  - { offsetInCU: 0x3C40B, offset: 0x3C40B, size: 0x8, addend: 0x0, symName: __ZNSt3__19make_pairB7v160006INS_16reverse_iteratorIPPKcEES5_EENS_4pairINS_18__unwrap_ref_decayIT_E4typeENS7_IT0_E4typeEEEOS8_OSB_, symObjAddr: 0x77E10, symBinAddr: 0x10007A620, symSize: 0x30 }
  - { offsetInCU: 0x3C45A, offset: 0x3C45A, size: 0x8, addend: 0x0, symName: __ZNSt3__114__rewrap_rangeB7v160006INS_16reverse_iteratorIPPKcEES5_S5_EET0_S6_T1_, symObjAddr: 0x77E40, symBinAddr: 0x10007A650, symSize: 0x4E0 }
  - { offsetInCU: 0x3C4B7, offset: 0x3C4B7, size: 0x8, addend: 0x0, symName: __ZNSt3__113__rewrap_iterB7v160006INS_16reverse_iteratorIPPKcEES5_NS_18__unwrap_iter_implIS5_Lb0EEEEET_S8_T0_, symObjAddr: 0x78320, symBinAddr: 0x10007AB30, symSize: 0x4F0 }
  - { offsetInCU: 0x3C564, offset: 0x3C564, size: 0x8, addend: 0x0, symName: __ZNSt3__1neB7v160006IPPKcS3_EEbRKNS_16reverse_iteratorIT_EERKNS4_IT0_EE, symObjAddr: 0x78E30, symBinAddr: 0x10007B640, symSize: 0x40 }
  - { offsetInCU: 0x3C61F, offset: 0x3C61F, size: 0x8, addend: 0x0, symName: __ZNSt3__110destroy_atB7v160006IPKcLi0EEEvPT_, symObjAddr: 0x79D00, symBinAddr: 0x10007C510, symSize: 0x20 }
  - { offsetInCU: 0x3C657, offset: 0x3C657, size: 0x8, addend: 0x0, symName: __ZNSt3__112__destroy_atB7v160006IPKcLi0EEEvPT_, symObjAddr: 0x79D20, symBinAddr: 0x10007C530, symSize: 0x10 }
  - { offsetInCU: 0x3C68E, offset: 0x3C68E, size: 0x8, addend: 0x0, symName: __ZNSt3__112construct_atB7v160006IPKcJS2_EPS2_EEPT_S5_DpOT0_, symObjAddr: 0x7A3E0, symBinAddr: 0x10007CBF0, symSize: 0xA0 }
  - { offsetInCU: 0x3C701, offset: 0x3C701, size: 0x8, addend: 0x0, symName: __ZNSt3__119__debug_db_insert_cB7v160006INS_6vectorIP18VkBaseOutStructureNS_9allocatorIS3_EEEEEEvPT_, symObjAddr: 0x7A710, symBinAddr: 0x10007CF20, symSize: 0x10 }
  - { offsetInCU: 0x3C732, offset: 0x3C732, size: 0x8, addend: 0x0, symName: __ZNSt3__112__to_addressB7v160006IP18VkBaseOutStructureEEPT_S4_, symObjAddr: 0x7AEC0, symBinAddr: 0x10007D6D0, symSize: 0x10 }
  - { offsetInCU: 0x3C78E, offset: 0x3C78E, size: 0x8, addend: 0x0, symName: __ZNSt3__112construct_atB7v160006IP18VkBaseOutStructureJS2_EPS2_EEPT_S5_DpOT0_, symObjAddr: 0x7B370, symBinAddr: 0x10007DB80, symSize: 0xA0 }
  - { offsetInCU: 0x3C800, offset: 0x3C800, size: 0x8, addend: 0x0, symName: __ZNSt3__119__allocate_at_leastB7v160006INS_9allocatorIP18VkBaseOutStructureEEEENS_19__allocation_resultINS_16allocator_traitsIT_E7pointerEEERS7_m, symObjAddr: 0x7C910, symBinAddr: 0x10007F120, symSize: 0x210 }
  - { offsetInCU: 0x3C845, offset: 0x3C845, size: 0x8, addend: 0x0, symName: __ZNSt3__142__uninitialized_allocator_move_if_noexceptB7v160006INS_9allocatorIP18VkBaseOutStructureEENS_16reverse_iteratorIPS3_EES7_S3_vEET1_RT_T0_SB_S8_, symObjAddr: 0x7CDB0, symBinAddr: 0x10007F5C0, symSize: 0x610 }
  - { offsetInCU: 0x3C8CF, offset: 0x3C8CF, size: 0x8, addend: 0x0, symName: __ZNSt3__14swapB7v160006IPP18VkBaseOutStructureEENS_9enable_ifIXaasr21is_move_constructibleIT_EE5valuesr18is_move_assignableIS5_EE5valueEvE4typeERS5_S8_, symObjAddr: 0x7D440, symBinAddr: 0x10007FC50, symSize: 0x100 }
  - { offsetInCU: 0x3C921, offset: 0x3C921, size: 0x8, addend: 0x0, symName: __ZNSt3__125__debug_db_invalidate_allB7v160006INS_6vectorIP18VkBaseOutStructureNS_9allocatorIS3_EEEEEEvPT_, symObjAddr: 0x7D5F0, symBinAddr: 0x10007FE00, symSize: 0x10 }
  - { offsetInCU: 0x3C952, offset: 0x3C952, size: 0x8, addend: 0x0, symName: __ZNSt3__14moveB7v160006INS_16reverse_iteratorIPP18VkBaseOutStructureEES5_EET0_T_S7_S6_, symObjAddr: 0x7D600, symBinAddr: 0x10007FE10, symSize: 0x660 }
  - { offsetInCU: 0x3C9B9, offset: 0x3C9B9, size: 0x8, addend: 0x0, symName: __ZNSt3__16__moveB7v160006INS_17_ClassicAlgPolicyENS_16reverse_iteratorIPP18VkBaseOutStructureEES6_S6_EENS_4pairIT0_T2_EES8_T1_S9_, symObjAddr: 0x7DC60, symBinAddr: 0x100080470, symSize: 0x550 }
  - { offsetInCU: 0x3CA31, offset: 0x3CA31, size: 0x8, addend: 0x0, symName: __ZNSt3__123__dispatch_copy_or_moveB7v160006INS_17_ClassicAlgPolicyENS_11__move_loopIS1_EENS_14__move_trivialENS_16reverse_iteratorIPP18VkBaseOutStructureEES9_S9_EENS_4pairIT2_T4_EESB_T3_SC_, symObjAddr: 0x7E1B0, symBinAddr: 0x1000809C0, symSize: 0x550 }
  - { offsetInCU: 0x3CABB, offset: 0x3CABB, size: 0x8, addend: 0x0, symName: __ZNSt3__121__unwrap_and_dispatchB7v160006INS_10__overloadINS_11__move_loopINS_17_ClassicAlgPolicyEEENS_14__move_trivialEEENS_16reverse_iteratorIPP18VkBaseOutStructureEESB_SB_Li0EEENS_4pairIT0_T2_EESD_T1_SE_, symObjAddr: 0x7E700, symBinAddr: 0x100080F10, symSize: 0xD30 }
  - { offsetInCU: 0x3CB5F, offset: 0x3CB5F, size: 0x8, addend: 0x0, symName: __ZNSt3__114__unwrap_rangeB7v160006INS_16reverse_iteratorIPP18VkBaseOutStructureEES5_EEDaT_T0_, symObjAddr: 0x7F430, symBinAddr: 0x100081C40, symSize: 0x3E0 }
  - { offsetInCU: 0x3CC88, offset: 0x3CC88, size: 0x8, addend: 0x0, symName: __ZNSt3__113__unwrap_iterB7v160006INS_16reverse_iteratorIPP18VkBaseOutStructureEENS_18__unwrap_iter_implIS5_Lb0EEELi0EEEDTclsrT0_8__unwrapclsr3stdE7declvalIT_EEEES9_, symObjAddr: 0x7FB90, symBinAddr: 0x1000823A0, symSize: 0x340 }
  - { offsetInCU: 0x3CCD0, offset: 0x3CCD0, size: 0x8, addend: 0x0, symName: __ZNSt3__19make_pairB7v160006INS_16reverse_iteratorIPP18VkBaseOutStructureEES5_EENS_4pairINS_18__unwrap_ref_decayIT_E4typeENS7_IT0_E4typeEEEOS8_OSB_, symObjAddr: 0x7FED0, symBinAddr: 0x1000826E0, symSize: 0x30 }
  - { offsetInCU: 0x3CD1F, offset: 0x3CD1F, size: 0x8, addend: 0x0, symName: __ZNSt3__114__rewrap_rangeB7v160006INS_16reverse_iteratorIPP18VkBaseOutStructureEES5_S5_EET0_S6_T1_, symObjAddr: 0x7FF00, symBinAddr: 0x100082710, symSize: 0x4E0 }
  - { offsetInCU: 0x3CD7C, offset: 0x3CD7C, size: 0x8, addend: 0x0, symName: __ZNSt3__113__rewrap_iterB7v160006INS_16reverse_iteratorIPP18VkBaseOutStructureEES5_NS_18__unwrap_iter_implIS5_Lb0EEEEET_S8_T0_, symObjAddr: 0x803E0, symBinAddr: 0x100082BF0, symSize: 0x4F0 }
  - { offsetInCU: 0x3CE29, offset: 0x3CE29, size: 0x8, addend: 0x0, symName: __ZNSt3__1neB7v160006IPP18VkBaseOutStructureS3_EEbRKNS_16reverse_iteratorIT_EERKNS4_IT0_EE, symObjAddr: 0x80EF0, symBinAddr: 0x100083700, symSize: 0x40 }
  - { offsetInCU: 0x3CEE4, offset: 0x3CEE4, size: 0x8, addend: 0x0, symName: __ZNSt3__110destroy_atB7v160006IP18VkBaseOutStructureLi0EEEvPT_, symObjAddr: 0x81DC0, symBinAddr: 0x1000845D0, symSize: 0x20 }
  - { offsetInCU: 0x3CF1C, offset: 0x3CF1C, size: 0x8, addend: 0x0, symName: __ZNSt3__112__destroy_atB7v160006IP18VkBaseOutStructureLi0EEEvPT_, symObjAddr: 0x81DE0, symBinAddr: 0x1000845F0, symSize: 0x10 }
  - { offsetInCU: 0x3CF53, offset: 0x3CF53, size: 0x8, addend: 0x0, symName: __ZNSt3__112__to_addressB7v160006I28VkValidationFeatureEnableEXTEEPT_S3_, symObjAddr: 0x81E80, symBinAddr: 0x100084690, symSize: 0x10 }
  - { offsetInCU: 0x3CF88, offset: 0x3CF88, size: 0x8, addend: 0x0, symName: __ZNSt3__112__to_addressB7v160006I29VkValidationFeatureDisableEXTEEPT_S3_, symObjAddr: 0x81E90, symBinAddr: 0x1000846A0, symSize: 0x10 }
  - { offsetInCU: 0x3CFBD, offset: 0x3CFBD, size: 0x8, addend: 0x0, symName: __ZNSt3__112__to_addressB7v160006I20VkValidationCheckEXTEEPT_S3_, symObjAddr: 0x81EA0, symBinAddr: 0x1000846B0, symSize: 0x10 }
  - { offsetInCU: 0x3CFF2, offset: 0x3CFF2, size: 0x8, addend: 0x0, symName: __ZNSt3__1eqB7v160006IPP18VkBaseOutStructureEEbRKNS_11__wrap_iterIT_EES8_, symObjAddr: 0x820C0, symBinAddr: 0x1000848D0, symSize: 0x40 }
  - { offsetInCU: 0x3D036, offset: 0x3D036, size: 0x8, addend: 0x0, symName: __ZNSt3__118__debug_db_erase_cB7v160006INS_6vectorIP18VkBaseOutStructureNS_9allocatorIS3_EEEEEEvPT_, symObjAddr: 0x836C0, symBinAddr: 0x100085ED0, symSize: 0x10 }
  - { offsetInCU: 0x3D068, offset: 0x3D068, size: 0x8, addend: 0x0, symName: __ZNSt3__118__debug_db_erase_cB7v160006INS_6vectorIPKcNS_9allocatorIS3_EEEEEEvPT_, symObjAddr: 0x83C20, symBinAddr: 0x100086430, symSize: 0x10 }
  - { offsetInCU: 0x3D0C0, offset: 0x3D0C0, size: 0x8, addend: 0x0, symName: __ZNSt3__112construct_atB7v160006I20VkValidationCheckEXTJRKS1_EPS1_EEPT_S6_DpOT0_, symObjAddr: 0x847F0, symBinAddr: 0x100087000, symSize: 0xD0 }
  - { offsetInCU: 0x3D132, offset: 0x3D132, size: 0x8, addend: 0x0, symName: __ZNSt3__119__allocate_at_leastB7v160006INS_9allocatorI20VkValidationCheckEXTEEEENS_19__allocation_resultINS_16allocator_traitsIT_E7pointerEEERS6_m, symObjAddr: 0x85DC0, symBinAddr: 0x1000885D0, symSize: 0x210 }
  - { offsetInCU: 0x3D177, offset: 0x3D177, size: 0x8, addend: 0x0, symName: __ZNSt3__142__uninitialized_allocator_move_if_noexceptB7v160006INS_9allocatorI20VkValidationCheckEXTEENS_16reverse_iteratorIPS2_EES6_S2_vEET1_RT_T0_SA_S7_, symObjAddr: 0x86260, symBinAddr: 0x100088A70, symSize: 0x610 }
  - { offsetInCU: 0x3D201, offset: 0x3D201, size: 0x8, addend: 0x0, symName: __ZNSt3__14swapB7v160006IP20VkValidationCheckEXTEENS_9enable_ifIXaasr21is_move_constructibleIT_EE5valuesr18is_move_assignableIS4_EE5valueEvE4typeERS4_S7_, symObjAddr: 0x868F0, symBinAddr: 0x100089100, symSize: 0x100 }
  - { offsetInCU: 0x3D253, offset: 0x3D253, size: 0x8, addend: 0x0, symName: __ZNSt3__125__debug_db_invalidate_allB7v160006INS_6vectorI20VkValidationCheckEXTNS_9allocatorIS2_EEEEEEvPT_, symObjAddr: 0x86AA0, symBinAddr: 0x1000892B0, symSize: 0x10 }
  - { offsetInCU: 0x3D284, offset: 0x3D284, size: 0x8, addend: 0x0, symName: __ZNSt3__14moveB7v160006INS_16reverse_iteratorIP20VkValidationCheckEXTEES4_EET0_T_S6_S5_, symObjAddr: 0x86AB0, symBinAddr: 0x1000892C0, symSize: 0x660 }
  - { offsetInCU: 0x3D2EB, offset: 0x3D2EB, size: 0x8, addend: 0x0, symName: __ZNSt3__16__moveB7v160006INS_17_ClassicAlgPolicyENS_16reverse_iteratorIP20VkValidationCheckEXTEES5_S5_EENS_4pairIT0_T2_EES7_T1_S8_, symObjAddr: 0x87110, symBinAddr: 0x100089920, symSize: 0x550 }
  - { offsetInCU: 0x3D363, offset: 0x3D363, size: 0x8, addend: 0x0, symName: __ZNSt3__123__dispatch_copy_or_moveB7v160006INS_17_ClassicAlgPolicyENS_11__move_loopIS1_EENS_14__move_trivialENS_16reverse_iteratorIP20VkValidationCheckEXTEES8_S8_EENS_4pairIT2_T4_EESA_T3_SB_, symObjAddr: 0x87660, symBinAddr: 0x100089E70, symSize: 0x550 }
  - { offsetInCU: 0x3D3ED, offset: 0x3D3ED, size: 0x8, addend: 0x0, symName: __ZNSt3__121__unwrap_and_dispatchB7v160006INS_10__overloadINS_11__move_loopINS_17_ClassicAlgPolicyEEENS_14__move_trivialEEENS_16reverse_iteratorIP20VkValidationCheckEXTEESA_SA_Li0EEENS_4pairIT0_T2_EESC_T1_SD_, symObjAddr: 0x87BB0, symBinAddr: 0x10008A3C0, symSize: 0xD30 }
  - { offsetInCU: 0x3D491, offset: 0x3D491, size: 0x8, addend: 0x0, symName: __ZNSt3__114__unwrap_rangeB7v160006INS_16reverse_iteratorIP20VkValidationCheckEXTEES4_EEDaT_T0_, symObjAddr: 0x888E0, symBinAddr: 0x10008B0F0, symSize: 0x3E0 }
  - { offsetInCU: 0x3D5BA, offset: 0x3D5BA, size: 0x8, addend: 0x0, symName: __ZNSt3__113__unwrap_iterB7v160006INS_16reverse_iteratorIP20VkValidationCheckEXTEENS_18__unwrap_iter_implIS4_Lb0EEELi0EEEDTclsrT0_8__unwrapclsr3stdE7declvalIT_EEEES8_, symObjAddr: 0x89080, symBinAddr: 0x10008B890, symSize: 0x340 }
  - { offsetInCU: 0x3D602, offset: 0x3D602, size: 0x8, addend: 0x0, symName: __ZNSt3__19make_pairB7v160006INS_16reverse_iteratorIP20VkValidationCheckEXTEES4_EENS_4pairINS_18__unwrap_ref_decayIT_E4typeENS6_IT0_E4typeEEEOS7_OSA_, symObjAddr: 0x893C0, symBinAddr: 0x10008BBD0, symSize: 0x30 }
  - { offsetInCU: 0x3D651, offset: 0x3D651, size: 0x8, addend: 0x0, symName: __ZNSt3__114__rewrap_rangeB7v160006INS_16reverse_iteratorIP20VkValidationCheckEXTEES4_S4_EET0_S5_T1_, symObjAddr: 0x893F0, symBinAddr: 0x10008BC00, symSize: 0x4E0 }
  - { offsetInCU: 0x3D6AE, offset: 0x3D6AE, size: 0x8, addend: 0x0, symName: __ZNSt3__113__rewrap_iterB7v160006INS_16reverse_iteratorIP20VkValidationCheckEXTEES4_NS_18__unwrap_iter_implIS4_Lb0EEEEET_S7_T0_, symObjAddr: 0x898D0, symBinAddr: 0x10008C0E0, symSize: 0x4F0 }
  - { offsetInCU: 0x3D75B, offset: 0x3D75B, size: 0x8, addend: 0x0, symName: __ZNSt3__1neB7v160006IP20VkValidationCheckEXTS2_EEbRKNS_16reverse_iteratorIT_EERKNS3_IT0_EE, symObjAddr: 0x8A3E0, symBinAddr: 0x10008CBF0, symSize: 0x40 }
  - { offsetInCU: 0x3D816, offset: 0x3D816, size: 0x8, addend: 0x0, symName: __ZNSt3__110destroy_atB7v160006I20VkValidationCheckEXTLi0EEEvPT_, symObjAddr: 0x8B2B0, symBinAddr: 0x10008DAC0, symSize: 0x20 }
  - { offsetInCU: 0x3D84E, offset: 0x3D84E, size: 0x8, addend: 0x0, symName: __ZNSt3__112__destroy_atB7v160006I20VkValidationCheckEXTLi0EEEvPT_, symObjAddr: 0x8B2D0, symBinAddr: 0x10008DAE0, symSize: 0x10 }
  - { offsetInCU: 0x3D8AC, offset: 0x3D8AC, size: 0x8, addend: 0x0, symName: __ZNSt3__112construct_atB7v160006I28VkValidationFeatureEnableEXTJRKS1_EPS1_EEPT_S6_DpOT0_, symObjAddr: 0x8BDF0, symBinAddr: 0x10008E600, symSize: 0xD0 }
  - { offsetInCU: 0x3D91E, offset: 0x3D91E, size: 0x8, addend: 0x0, symName: __ZNSt3__119__allocate_at_leastB7v160006INS_9allocatorI28VkValidationFeatureEnableEXTEEEENS_19__allocation_resultINS_16allocator_traitsIT_E7pointerEEERS6_m, symObjAddr: 0x8D3C0, symBinAddr: 0x10008FBD0, symSize: 0x210 }
  - { offsetInCU: 0x3D963, offset: 0x3D963, size: 0x8, addend: 0x0, symName: __ZNSt3__142__uninitialized_allocator_move_if_noexceptB7v160006INS_9allocatorI28VkValidationFeatureEnableEXTEENS_16reverse_iteratorIPS2_EES6_S2_vEET1_RT_T0_SA_S7_, symObjAddr: 0x8D860, symBinAddr: 0x100090070, symSize: 0x610 }
  - { offsetInCU: 0x3D9ED, offset: 0x3D9ED, size: 0x8, addend: 0x0, symName: __ZNSt3__14swapB7v160006IP28VkValidationFeatureEnableEXTEENS_9enable_ifIXaasr21is_move_constructibleIT_EE5valuesr18is_move_assignableIS4_EE5valueEvE4typeERS4_S7_, symObjAddr: 0x8DEF0, symBinAddr: 0x100090700, symSize: 0x100 }
  - { offsetInCU: 0x3DA3F, offset: 0x3DA3F, size: 0x8, addend: 0x0, symName: __ZNSt3__125__debug_db_invalidate_allB7v160006INS_6vectorI28VkValidationFeatureEnableEXTNS_9allocatorIS2_EEEEEEvPT_, symObjAddr: 0x8E0A0, symBinAddr: 0x1000908B0, symSize: 0x10 }
  - { offsetInCU: 0x3DA70, offset: 0x3DA70, size: 0x8, addend: 0x0, symName: __ZNSt3__14moveB7v160006INS_16reverse_iteratorIP28VkValidationFeatureEnableEXTEES4_EET0_T_S6_S5_, symObjAddr: 0x8E0B0, symBinAddr: 0x1000908C0, symSize: 0x660 }
  - { offsetInCU: 0x3DAD7, offset: 0x3DAD7, size: 0x8, addend: 0x0, symName: __ZNSt3__16__moveB7v160006INS_17_ClassicAlgPolicyENS_16reverse_iteratorIP28VkValidationFeatureEnableEXTEES5_S5_EENS_4pairIT0_T2_EES7_T1_S8_, symObjAddr: 0x8E710, symBinAddr: 0x100090F20, symSize: 0x550 }
  - { offsetInCU: 0x3DB4F, offset: 0x3DB4F, size: 0x8, addend: 0x0, symName: __ZNSt3__123__dispatch_copy_or_moveB7v160006INS_17_ClassicAlgPolicyENS_11__move_loopIS1_EENS_14__move_trivialENS_16reverse_iteratorIP28VkValidationFeatureEnableEXTEES8_S8_EENS_4pairIT2_T4_EESA_T3_SB_, symObjAddr: 0x8EC60, symBinAddr: 0x100091470, symSize: 0x550 }
  - { offsetInCU: 0x3DBD9, offset: 0x3DBD9, size: 0x8, addend: 0x0, symName: __ZNSt3__121__unwrap_and_dispatchB7v160006INS_10__overloadINS_11__move_loopINS_17_ClassicAlgPolicyEEENS_14__move_trivialEEENS_16reverse_iteratorIP28VkValidationFeatureEnableEXTEESA_SA_Li0EEENS_4pairIT0_T2_EESC_T1_SD_, symObjAddr: 0x8F1B0, symBinAddr: 0x1000919C0, symSize: 0xD30 }
  - { offsetInCU: 0x3DC7D, offset: 0x3DC7D, size: 0x8, addend: 0x0, symName: __ZNSt3__114__unwrap_rangeB7v160006INS_16reverse_iteratorIP28VkValidationFeatureEnableEXTEES4_EEDaT_T0_, symObjAddr: 0x8FEE0, symBinAddr: 0x1000926F0, symSize: 0x3E0 }
  - { offsetInCU: 0x3DDA6, offset: 0x3DDA6, size: 0x8, addend: 0x0, symName: __ZNSt3__113__unwrap_iterB7v160006INS_16reverse_iteratorIP28VkValidationFeatureEnableEXTEENS_18__unwrap_iter_implIS4_Lb0EEELi0EEEDTclsrT0_8__unwrapclsr3stdE7declvalIT_EEEES8_, symObjAddr: 0x90680, symBinAddr: 0x100092E90, symSize: 0x340 }
  - { offsetInCU: 0x3DDEE, offset: 0x3DDEE, size: 0x8, addend: 0x0, symName: __ZNSt3__19make_pairB7v160006INS_16reverse_iteratorIP28VkValidationFeatureEnableEXTEES4_EENS_4pairINS_18__unwrap_ref_decayIT_E4typeENS6_IT0_E4typeEEEOS7_OSA_, symObjAddr: 0x909C0, symBinAddr: 0x1000931D0, symSize: 0x30 }
  - { offsetInCU: 0x3DE3D, offset: 0x3DE3D, size: 0x8, addend: 0x0, symName: __ZNSt3__114__rewrap_rangeB7v160006INS_16reverse_iteratorIP28VkValidationFeatureEnableEXTEES4_S4_EET0_S5_T1_, symObjAddr: 0x909F0, symBinAddr: 0x100093200, symSize: 0x4E0 }
  - { offsetInCU: 0x3DE9A, offset: 0x3DE9A, size: 0x8, addend: 0x0, symName: __ZNSt3__113__rewrap_iterB7v160006INS_16reverse_iteratorIP28VkValidationFeatureEnableEXTEES4_NS_18__unwrap_iter_implIS4_Lb0EEEEET_S7_T0_, symObjAddr: 0x90ED0, symBinAddr: 0x1000936E0, symSize: 0x4F0 }
  - { offsetInCU: 0x3DF47, offset: 0x3DF47, size: 0x8, addend: 0x0, symName: __ZNSt3__1neB7v160006IP28VkValidationFeatureEnableEXTS2_EEbRKNS_16reverse_iteratorIT_EERKNS3_IT0_EE, symObjAddr: 0x919E0, symBinAddr: 0x1000941F0, symSize: 0x40 }
  - { offsetInCU: 0x3E002, offset: 0x3E002, size: 0x8, addend: 0x0, symName: __ZNSt3__110destroy_atB7v160006I28VkValidationFeatureEnableEXTLi0EEEvPT_, symObjAddr: 0x928B0, symBinAddr: 0x1000950C0, symSize: 0x20 }
  - { offsetInCU: 0x3E03A, offset: 0x3E03A, size: 0x8, addend: 0x0, symName: __ZNSt3__112__destroy_atB7v160006I28VkValidationFeatureEnableEXTLi0EEEvPT_, symObjAddr: 0x928D0, symBinAddr: 0x1000950E0, symSize: 0x10 }
  - { offsetInCU: 0x3E098, offset: 0x3E098, size: 0x8, addend: 0x0, symName: __ZNSt3__112construct_atB7v160006I29VkValidationFeatureDisableEXTJRKS1_EPS1_EEPT_S6_DpOT0_, symObjAddr: 0x933F0, symBinAddr: 0x100095C00, symSize: 0xD0 }
  - { offsetInCU: 0x3E10A, offset: 0x3E10A, size: 0x8, addend: 0x0, symName: __ZNSt3__119__allocate_at_leastB7v160006INS_9allocatorI29VkValidationFeatureDisableEXTEEEENS_19__allocation_resultINS_16allocator_traitsIT_E7pointerEEERS6_m, symObjAddr: 0x949C0, symBinAddr: 0x1000971D0, symSize: 0x210 }
  - { offsetInCU: 0x3E14F, offset: 0x3E14F, size: 0x8, addend: 0x0, symName: __ZNSt3__142__uninitialized_allocator_move_if_noexceptB7v160006INS_9allocatorI29VkValidationFeatureDisableEXTEENS_16reverse_iteratorIPS2_EES6_S2_vEET1_RT_T0_SA_S7_, symObjAddr: 0x94E60, symBinAddr: 0x100097670, symSize: 0x610 }
  - { offsetInCU: 0x3E1D9, offset: 0x3E1D9, size: 0x8, addend: 0x0, symName: __ZNSt3__14swapB7v160006IP29VkValidationFeatureDisableEXTEENS_9enable_ifIXaasr21is_move_constructibleIT_EE5valuesr18is_move_assignableIS4_EE5valueEvE4typeERS4_S7_, symObjAddr: 0x954F0, symBinAddr: 0x100097D00, symSize: 0x100 }
  - { offsetInCU: 0x3E22B, offset: 0x3E22B, size: 0x8, addend: 0x0, symName: __ZNSt3__125__debug_db_invalidate_allB7v160006INS_6vectorI29VkValidationFeatureDisableEXTNS_9allocatorIS2_EEEEEEvPT_, symObjAddr: 0x956A0, symBinAddr: 0x100097EB0, symSize: 0x10 }
  - { offsetInCU: 0x3E25C, offset: 0x3E25C, size: 0x8, addend: 0x0, symName: __ZNSt3__14moveB7v160006INS_16reverse_iteratorIP29VkValidationFeatureDisableEXTEES4_EET0_T_S6_S5_, symObjAddr: 0x956B0, symBinAddr: 0x100097EC0, symSize: 0x660 }
  - { offsetInCU: 0x3E2C3, offset: 0x3E2C3, size: 0x8, addend: 0x0, symName: __ZNSt3__16__moveB7v160006INS_17_ClassicAlgPolicyENS_16reverse_iteratorIP29VkValidationFeatureDisableEXTEES5_S5_EENS_4pairIT0_T2_EES7_T1_S8_, symObjAddr: 0x95D10, symBinAddr: 0x100098520, symSize: 0x550 }
  - { offsetInCU: 0x3E33B, offset: 0x3E33B, size: 0x8, addend: 0x0, symName: __ZNSt3__123__dispatch_copy_or_moveB7v160006INS_17_ClassicAlgPolicyENS_11__move_loopIS1_EENS_14__move_trivialENS_16reverse_iteratorIP29VkValidationFeatureDisableEXTEES8_S8_EENS_4pairIT2_T4_EESA_T3_SB_, symObjAddr: 0x96260, symBinAddr: 0x100098A70, symSize: 0x550 }
  - { offsetInCU: 0x3E3C5, offset: 0x3E3C5, size: 0x8, addend: 0x0, symName: __ZNSt3__121__unwrap_and_dispatchB7v160006INS_10__overloadINS_11__move_loopINS_17_ClassicAlgPolicyEEENS_14__move_trivialEEENS_16reverse_iteratorIP29VkValidationFeatureDisableEXTEESA_SA_Li0EEENS_4pairIT0_T2_EESC_T1_SD_, symObjAddr: 0x967B0, symBinAddr: 0x100098FC0, symSize: 0xD30 }
  - { offsetInCU: 0x3E469, offset: 0x3E469, size: 0x8, addend: 0x0, symName: __ZNSt3__114__unwrap_rangeB7v160006INS_16reverse_iteratorIP29VkValidationFeatureDisableEXTEES4_EEDaT_T0_, symObjAddr: 0x974E0, symBinAddr: 0x100099CF0, symSize: 0x3E0 }
  - { offsetInCU: 0x3E592, offset: 0x3E592, size: 0x8, addend: 0x0, symName: __ZNSt3__113__unwrap_iterB7v160006INS_16reverse_iteratorIP29VkValidationFeatureDisableEXTEENS_18__unwrap_iter_implIS4_Lb0EEELi0EEEDTclsrT0_8__unwrapclsr3stdE7declvalIT_EEEES8_, symObjAddr: 0x97C80, symBinAddr: 0x10009A490, symSize: 0x340 }
  - { offsetInCU: 0x3E5DA, offset: 0x3E5DA, size: 0x8, addend: 0x0, symName: __ZNSt3__19make_pairB7v160006INS_16reverse_iteratorIP29VkValidationFeatureDisableEXTEES4_EENS_4pairINS_18__unwrap_ref_decayIT_E4typeENS6_IT0_E4typeEEEOS7_OSA_, symObjAddr: 0x97FC0, symBinAddr: 0x10009A7D0, symSize: 0x30 }
  - { offsetInCU: 0x3E629, offset: 0x3E629, size: 0x8, addend: 0x0, symName: __ZNSt3__114__rewrap_rangeB7v160006INS_16reverse_iteratorIP29VkValidationFeatureDisableEXTEES4_S4_EET0_S5_T1_, symObjAddr: 0x97FF0, symBinAddr: 0x10009A800, symSize: 0x4E0 }
  - { offsetInCU: 0x3E686, offset: 0x3E686, size: 0x8, addend: 0x0, symName: __ZNSt3__113__rewrap_iterB7v160006INS_16reverse_iteratorIP29VkValidationFeatureDisableEXTEES4_NS_18__unwrap_iter_implIS4_Lb0EEEEET_S7_T0_, symObjAddr: 0x984D0, symBinAddr: 0x10009ACE0, symSize: 0x4F0 }
  - { offsetInCU: 0x3E733, offset: 0x3E733, size: 0x8, addend: 0x0, symName: __ZNSt3__1neB7v160006IP29VkValidationFeatureDisableEXTS2_EEbRKNS_16reverse_iteratorIT_EERKNS3_IT0_EE, symObjAddr: 0x98FE0, symBinAddr: 0x10009B7F0, symSize: 0x40 }
  - { offsetInCU: 0x3E7EE, offset: 0x3E7EE, size: 0x8, addend: 0x0, symName: __ZNSt3__110destroy_atB7v160006I29VkValidationFeatureDisableEXTLi0EEEvPT_, symObjAddr: 0x99EB0, symBinAddr: 0x10009C6C0, symSize: 0x20 }
  - { offsetInCU: 0x3E826, offset: 0x3E826, size: 0x8, addend: 0x0, symName: __ZNSt3__112__destroy_atB7v160006I29VkValidationFeatureDisableEXTLi0EEEvPT_, symObjAddr: 0x99ED0, symBinAddr: 0x10009C6E0, symSize: 0x10 }
  - { offsetInCU: 0x3E85E, offset: 0x3E85E, size: 0x8, addend: 0x0, symName: __ZNSt3__119__debug_db_insert_cB7v160006INS_6vectorINS_12basic_stringIcNS_11char_traitsIcEENS_9allocatorIcEEEENS5_IS7_EEEEEEvPT_, symObjAddr: 0x9A200, symBinAddr: 0x10009CA10, symSize: 0x10 }
  - { offsetInCU: 0x3E88F, offset: 0x3E88F, size: 0x8, addend: 0x0, symName: __ZNSt3__118__constexpr_memcmpB7v160006IcEEiPKT_S3_m, symObjAddr: 0x9A490, symBinAddr: 0x10009CCA0, symSize: 0x30 }
  - { offsetInCU: 0x3E8E0, offset: 0x3E8E0, size: 0x8, addend: 0x0, symName: __ZNSt3__112construct_atB7v160006INS_12basic_stringIcNS_11char_traitsIcEENS_9allocatorIcEEEEJRKS6_EPS6_EEPT_SB_DpOT0_, symObjAddr: 0x9AAE0, symBinAddr: 0x10009D2F0, symSize: 0x40 }
  - { offsetInCU: 0x3E953, offset: 0x3E953, size: 0x8, addend: 0x0, symName: __ZNSt3__118__debug_db_erase_cB7v160006INS_6vectorINS_12basic_stringIcNS_11char_traitsIcEENS_9allocatorIcEEEENS5_IS7_EEEEEEvPT_, symObjAddr: 0x9AF30, symBinAddr: 0x10009D740, symSize: 0x10 }
  - { offsetInCU: 0x3E985, offset: 0x3E985, size: 0x8, addend: 0x0, symName: __ZNSt3__119__debug_db_insert_cB7v160006INS_6vectorI23VkQueueFamilyPropertiesNS_9allocatorIS2_EEEEEEvPT_, symObjAddr: 0x9D260, symBinAddr: 0x10009FA70, symSize: 0x10 }
  - { offsetInCU: 0x3E9B7, offset: 0x3E9B7, size: 0x8, addend: 0x0, symName: __ZNSt3__119__debug_db_insert_cB7v160006INS_6vectorIN3vkb6detail24GenericFeaturesPNextNodeENS_9allocatorIS4_EEEEEEvPT_, symObjAddr: 0x9D5E0, symBinAddr: 0x10009FDF0, symSize: 0x10 }
  - { offsetInCU: 0x3E9E8, offset: 0x3E9E8, size: 0x8, addend: 0x0, symName: __ZNSt3__18distanceB7v160006IP23VkQueueFamilyPropertiesEENS_15iterator_traitsIT_E15difference_typeES4_S4_, symObjAddr: 0x9DAF0, symBinAddr: 0x1000A0300, symSize: 0x30 }
  - { offsetInCU: 0x3EA2B, offset: 0x3EA2B, size: 0x8, addend: 0x0, symName: __ZNSt3__14copyB7v160006IP23VkQueueFamilyPropertiesS2_EET0_T_S4_S3_, symObjAddr: 0x9DC10, symBinAddr: 0x1000A0420, symSize: 0x220 }
  - { offsetInCU: 0x3EA89, offset: 0x3EA89, size: 0x8, addend: 0x0, symName: __ZNSt3__125__debug_db_invalidate_allB7v160006INS_6vectorI23VkQueueFamilyPropertiesNS_9allocatorIS2_EEEEEEvPT_, symObjAddr: 0x9E9F0, symBinAddr: 0x1000A1200, symSize: 0x10 }
  - { offsetInCU: 0x3EABA, offset: 0x3EABA, size: 0x8, addend: 0x0, symName: __ZNSt3__110__distanceB7v160006IP23VkQueueFamilyPropertiesEENS_15iterator_traitsIT_E15difference_typeES4_S4_NS_26random_access_iterator_tagE, symObjAddr: 0x9EA00, symBinAddr: 0x1000A1210, symSize: 0x30 }
  - { offsetInCU: 0x3EB08, offset: 0x3EB08, size: 0x8, addend: 0x0, symName: __ZNSt3__121__convert_to_integralB7v160006Em, symObjAddr: 0x9EA80, symBinAddr: 0x1000A1290, symSize: 0x10 }
  - { offsetInCU: 0x3EB35, offset: 0x3EB35, size: 0x8, addend: 0x0, symName: __ZNSt3__19__advanceB7v160006IP23VkQueueFamilyPropertiesEEvRT_NS_15iterator_traitsIS3_E15difference_typeENS_26random_access_iterator_tagE, symObjAddr: 0x9EA90, symBinAddr: 0x1000A12A0, symSize: 0x60 }
  - { offsetInCU: 0x3EB7F, offset: 0x3EB7F, size: 0x8, addend: 0x0, symName: __ZNSt3__16__copyB7v160006INS_17_ClassicAlgPolicyEP23VkQueueFamilyPropertiesS3_S3_EENS_4pairIT0_T2_EES5_T1_S6_, symObjAddr: 0x9EAF0, symBinAddr: 0x1000A1300, symSize: 0x210 }
  - { offsetInCU: 0x3EBEE, offset: 0x3EBEE, size: 0x8, addend: 0x0, symName: __ZNSt3__123__dispatch_copy_or_moveB7v160006INS_17_ClassicAlgPolicyENS_11__copy_loopIS1_EENS_14__copy_trivialEP23VkQueueFamilyPropertiesS6_S6_EENS_4pairIT2_T4_EES8_T3_S9_, symObjAddr: 0x9ED00, symBinAddr: 0x1000A1510, symSize: 0x210 }
  - { offsetInCU: 0x3EC6F, offset: 0x3EC6F, size: 0x8, addend: 0x0, symName: __ZNSt3__121__unwrap_and_dispatchB7v160006INS_10__overloadINS_11__copy_loopINS_17_ClassicAlgPolicyEEENS_14__copy_trivialEEEP23VkQueueFamilyPropertiesS8_S8_Li0EEENS_4pairIT0_T2_EESA_T1_SB_, symObjAddr: 0x9EF10, symBinAddr: 0x1000A1720, symSize: 0x650 }
  - { offsetInCU: 0x3ED08, offset: 0x3ED08, size: 0x8, addend: 0x0, symName: __ZNSt3__114__unwrap_rangeB7v160006IP23VkQueueFamilyPropertiesS2_EEDaT_T0_, symObjAddr: 0x9F560, symBinAddr: 0x1000A1D70, symSize: 0x210 }
  - { offsetInCU: 0x3EE5B, offset: 0x3EE5B, size: 0x8, addend: 0x0, symName: __ZNSt3__113__unwrap_iterB7v160006IP23VkQueueFamilyPropertiesNS_18__unwrap_iter_implIS2_Lb1EEELi0EEEDTclsrT0_8__unwrapclsr3stdE7declvalIT_EEEES6_, symObjAddr: 0x9F980, symBinAddr: 0x1000A2190, symSize: 0x20 }
  - { offsetInCU: 0x3EE9F, offset: 0x3EE9F, size: 0x8, addend: 0x0, symName: __ZNSt3__19make_pairB7v160006IP23VkQueueFamilyPropertiesS2_EENS_4pairINS_18__unwrap_ref_decayIT_E4typeENS4_IT0_E4typeEEEOS5_OS8_, symObjAddr: 0x9F9A0, symBinAddr: 0x1000A21B0, symSize: 0x190 }
  - { offsetInCU: 0x3EEF0, offset: 0x3EEF0, size: 0x8, addend: 0x0, symName: __ZNSt3__114__rewrap_rangeB7v160006IP23VkQueueFamilyPropertiesS2_S2_EET0_S3_T1_, symObjAddr: 0x9FB30, symBinAddr: 0x1000A2340, symSize: 0x30 }
  - { offsetInCU: 0x3EF45, offset: 0x3EF45, size: 0x8, addend: 0x0, symName: __ZNSt3__113__rewrap_iterB7v160006IP23VkQueueFamilyPropertiesS2_NS_18__unwrap_iter_implIS2_Lb1EEEEET_S5_T0_, symObjAddr: 0x9FB60, symBinAddr: 0x1000A2370, symSize: 0x50 }
  - { offsetInCU: 0x3EFEA, offset: 0x3EFEA, size: 0x8, addend: 0x0, symName: __ZNSt3__119__copy_trivial_implB7v160006I23VkQueueFamilyPropertiesS1_EENS_4pairIPT_PT0_EES4_S4_S6_, symObjAddr: 0x9FF60, symBinAddr: 0x1000A2770, symSize: 0x350 }
  - { offsetInCU: 0x3F059, offset: 0x3F059, size: 0x8, addend: 0x0, symName: __ZNSt3__19make_pairB7v160006IRP23VkQueueFamilyPropertiesS2_EENS_4pairINS_18__unwrap_ref_decayIT_E4typeENS5_IT0_E4typeEEEOS6_OS9_, symObjAddr: 0xA02B0, symBinAddr: 0x1000A2AC0, symSize: 0x190 }
  - { offsetInCU: 0x3F0FE, offset: 0x3F0FE, size: 0x8, addend: 0x0, symName: __ZNSt3__112__to_addressB7v160006I23VkQueueFamilyPropertiesEEPT_S3_, symObjAddr: 0xA05A0, symBinAddr: 0x1000A2DB0, symSize: 0x10 }
  - { offsetInCU: 0x3F133, offset: 0x3F133, size: 0x8, addend: 0x0, symName: __ZNSt3__130__uninitialized_allocator_copyB7v160006INS_9allocatorI23VkQueueFamilyPropertiesEEPS2_S4_S4_EET2_RT_T0_T1_S5_, symObjAddr: 0xA0670, symBinAddr: 0x1000A2E80, symSize: 0x550 }
  - { offsetInCU: 0x3F1DF, offset: 0x3F1DF, size: 0x8, addend: 0x0, symName: __ZNSt3__122__make_exception_guardB7v160006INS_29_AllocatorDestroyRangeReverseINS_9allocatorI23VkQueueFamilyPropertiesEEPS3_EEEENS_28__exception_guard_exceptionsIT_EES8_, symObjAddr: 0xA0F10, symBinAddr: 0x1000A3720, symSize: 0x2A0 }
  - { offsetInCU: 0x3F23F, offset: 0x3F23F, size: 0x8, addend: 0x0, symName: __ZNSt3__112construct_atB7v160006I23VkQueueFamilyPropertiesJRS1_EPS1_EEPT_S5_DpOT0_, symObjAddr: 0xA17D0, symBinAddr: 0x1000A3FE0, symSize: 0x40 }
  - { offsetInCU: 0x3F2B1, offset: 0x3F2B1, size: 0x8, addend: 0x0, symName: __ZNSt3__119__allocator_destroyB7v160006INS_9allocatorI23VkQueueFamilyPropertiesEENS_16reverse_iteratorIPS2_EES6_EEvRT_T0_T1_, symObjAddr: 0xA1C20, symBinAddr: 0x1000A4430, symSize: 0x2B0 }
  - { offsetInCU: 0x3F31D, offset: 0x3F31D, size: 0x8, addend: 0x0, symName: __ZNSt3__1neB7v160006IP23VkQueueFamilyPropertiesS2_EEbRKNS_16reverse_iteratorIT_EERKNS3_IT0_EE, symObjAddr: 0xA1F00, symBinAddr: 0x1000A4710, symSize: 0x40 }
  - { offsetInCU: 0x3F369, offset: 0x3F369, size: 0x8, addend: 0x0, symName: __ZNSt3__112__to_addressB7v160006INS_16reverse_iteratorIP23VkQueueFamilyPropertiesEEvEENS_5decayIDTclsr19__to_address_helperIT_EE6__callclsr3stdE7declvalIRKS6_EEEEE4typeES8_, symObjAddr: 0xA1F60, symBinAddr: 0x1000A4770, symSize: 0x20 }
  - { offsetInCU: 0x3F3A0, offset: 0x3F3A0, size: 0x8, addend: 0x0, symName: __ZNSt3__110destroy_atB7v160006I23VkQueueFamilyPropertiesLi0EEEvPT_, symObjAddr: 0xA2030, symBinAddr: 0x1000A4840, symSize: 0x20 }
  - { offsetInCU: 0x3F3D8, offset: 0x3F3D8, size: 0x8, addend: 0x0, symName: __ZNSt3__112__destroy_atB7v160006I23VkQueueFamilyPropertiesLi0EEEvPT_, symObjAddr: 0xA2050, symBinAddr: 0x1000A4860, symSize: 0x10 }
  - { offsetInCU: 0x3F439, offset: 0x3F439, size: 0x8, addend: 0x0, symName: __ZNSt3__14prevB7v160006IP23VkQueueFamilyPropertiesEENS_9enable_ifIXsr25__is_cpp17_input_iteratorIT_EE5valueES4_E4typeES4_NS_15iterator_traitsIS4_E15difference_typeE, symObjAddr: 0xA2100, symBinAddr: 0x1000A4910, symSize: 0x1E0 }
  - { offsetInCU: 0x3F481, offset: 0x3F481, size: 0x8, addend: 0x0, symName: __ZNSt3__119__allocate_at_leastB7v160006INS_9allocatorI23VkQueueFamilyPropertiesEEEENS_19__allocation_resultINS_16allocator_traitsIT_E7pointerEEERS6_m, symObjAddr: 0xA2BF0, symBinAddr: 0x1000A5400, symSize: 0x210 }
  - { offsetInCU: 0x3F4C6, offset: 0x3F4C6, size: 0x8, addend: 0x0, symName: __ZNSt3__122__make_exception_guardB7v160006INS_6vectorIN3vkb6detail24GenericFeaturesPNextNodeENS_9allocatorIS4_EEE16__destroy_vectorEEENS_28__exception_guard_exceptionsIT_EESA_, symObjAddr: 0xA34A0, symBinAddr: 0x1000A5CB0, symSize: 0x1F0 }
  - { offsetInCU: 0x3F4FF, offset: 0x3F4FF, size: 0x8, addend: 0x0, symName: __ZNSt3__119__allocate_at_leastB7v160006INS_9allocatorIN3vkb6detail24GenericFeaturesPNextNodeEEEEENS_19__allocation_resultINS_16allocator_traitsIT_E7pointerEEERS8_m, symObjAddr: 0xA4550, symBinAddr: 0x1000A6D60, symSize: 0x210 }
  - { offsetInCU: 0x3F544, offset: 0x3F544, size: 0x8, addend: 0x0, symName: __ZNSt3__112__to_addressB7v160006IN3vkb6detail24GenericFeaturesPNextNodeEEEPT_S5_, symObjAddr: 0xA4AA0, symBinAddr: 0x1000A72B0, symSize: 0x10 }
  - { offsetInCU: 0x3F579, offset: 0x3F579, size: 0x8, addend: 0x0, symName: __ZNSt3__130__uninitialized_allocator_copyB7v160006INS_9allocatorIN3vkb6detail24GenericFeaturesPNextNodeEEEPS4_S6_S6_EET2_RT_T0_T1_S7_, symObjAddr: 0xA4B30, symBinAddr: 0x1000A7340, symSize: 0x550 }
  - { offsetInCU: 0x3F625, offset: 0x3F625, size: 0x8, addend: 0x0, symName: __ZNSt3__122__make_exception_guardB7v160006INS_29_AllocatorDestroyRangeReverseINS_9allocatorIN3vkb6detail24GenericFeaturesPNextNodeEEEPS5_EEEENS_28__exception_guard_exceptionsIT_EESA_, symObjAddr: 0xA5320, symBinAddr: 0x1000A7B30, symSize: 0x2A0 }
  - { offsetInCU: 0x3F685, offset: 0x3F685, size: 0x8, addend: 0x0, symName: __ZNSt3__112construct_atB7v160006IN3vkb6detail24GenericFeaturesPNextNodeEJRS3_EPS3_EEPT_S7_DpOT0_, symObjAddr: 0xA5BE0, symBinAddr: 0x1000A83F0, symSize: 0x40 }
  - { offsetInCU: 0x3F6F7, offset: 0x3F6F7, size: 0x8, addend: 0x0, symName: __ZNSt3__119__allocator_destroyB7v160006INS_9allocatorIN3vkb6detail24GenericFeaturesPNextNodeEEENS_16reverse_iteratorIPS4_EES8_EEvRT_T0_T1_, symObjAddr: 0xA6030, symBinAddr: 0x1000A8840, symSize: 0x2B0 }
  - { offsetInCU: 0x3F763, offset: 0x3F763, size: 0x8, addend: 0x0, symName: __ZNSt3__1neB7v160006IPN3vkb6detail24GenericFeaturesPNextNodeES4_EEbRKNS_16reverse_iteratorIT_EERKNS5_IT0_EE, symObjAddr: 0xA6310, symBinAddr: 0x1000A8B20, symSize: 0x40 }
  - { offsetInCU: 0x3F7AF, offset: 0x3F7AF, size: 0x8, addend: 0x0, symName: __ZNSt3__112__to_addressB7v160006INS_16reverse_iteratorIPN3vkb6detail24GenericFeaturesPNextNodeEEEvEENS_5decayIDTclsr19__to_address_helperIT_EE6__callclsr3stdE7declvalIRKS8_EEEEE4typeESA_, symObjAddr: 0xA6370, symBinAddr: 0x1000A8B80, symSize: 0x20 }
  - { offsetInCU: 0x3F7E6, offset: 0x3F7E6, size: 0x8, addend: 0x0, symName: __ZNSt3__110destroy_atB7v160006IN3vkb6detail24GenericFeaturesPNextNodeELi0EEEvPT_, symObjAddr: 0xA6440, symBinAddr: 0x1000A8C50, symSize: 0x20 }
  - { offsetInCU: 0x3F81E, offset: 0x3F81E, size: 0x8, addend: 0x0, symName: __ZNSt3__112__destroy_atB7v160006IN3vkb6detail24GenericFeaturesPNextNodeELi0EEEvPT_, symObjAddr: 0xA6460, symBinAddr: 0x1000A8C70, symSize: 0x10 }
  - { offsetInCU: 0x3F87F, offset: 0x3F87F, size: 0x8, addend: 0x0, symName: __ZNSt3__14prevB7v160006IPN3vkb6detail24GenericFeaturesPNextNodeEEENS_9enable_ifIXsr25__is_cpp17_input_iteratorIT_EE5valueES6_E4typeES6_NS_15iterator_traitsIS6_E15difference_typeE, symObjAddr: 0xA6510, symBinAddr: 0x1000A8D20, symSize: 0x1E0 }
  - { offsetInCU: 0x3F8C8, offset: 0x3F8C8, size: 0x8, addend: 0x0, symName: __ZNSt3__19__advanceB7v160006IPN3vkb6detail24GenericFeaturesPNextNodeEEEvRT_NS_15iterator_traitsIS5_E15difference_typeENS_26random_access_iterator_tagE, symObjAddr: 0xA6740, symBinAddr: 0x1000A8F50, symSize: 0x60 }
  - { offsetInCU: 0x3F913, offset: 0x3F913, size: 0x8, addend: 0x0, symName: __ZNSt3__118__debug_db_erase_cB7v160006INS_6vectorIN3vkb6detail24GenericFeaturesPNextNodeENS_9allocatorIS4_EEEEEEvPT_, symObjAddr: 0xA6EA0, symBinAddr: 0x1000A96B0, symSize: 0x10 }
  - { offsetInCU: 0x3F944, offset: 0x3F944, size: 0x8, addend: 0x0, symName: __ZNSt3__1eqB7v160006IPN3vkb6detail24GenericFeaturesPNextNodeEEEbRKNS_11__wrap_iterIT_EES9_, symObjAddr: 0xA7290, symBinAddr: 0x1000A9AA0, symSize: 0x40 }
  - { offsetInCU: 0x3F987, offset: 0x3F987, size: 0x8, addend: 0x0, symName: __ZNSt3__18distanceB7v160006IPN3vkb6detail24GenericFeaturesPNextNodeEEENS_15iterator_traitsIT_E15difference_typeES6_S6_, symObjAddr: 0xA7740, symBinAddr: 0x1000A9F50, symSize: 0x30 }
  - { offsetInCU: 0x3F9CA, offset: 0x3F9CA, size: 0x8, addend: 0x0, symName: __ZNSt3__14copyB7v160006IPN3vkb6detail24GenericFeaturesPNextNodeES4_EET0_T_S6_S5_, symObjAddr: 0xA77C0, symBinAddr: 0x1000A9FD0, symSize: 0x220 }
  - { offsetInCU: 0x3FA28, offset: 0x3FA28, size: 0x8, addend: 0x0, symName: __ZNSt3__125__debug_db_invalidate_allB7v160006INS_6vectorIN3vkb6detail24GenericFeaturesPNextNodeENS_9allocatorIS4_EEEEEEvPT_, symObjAddr: 0xA7EA0, symBinAddr: 0x1000AA6B0, symSize: 0x10 }
  - { offsetInCU: 0x3FA59, offset: 0x3FA59, size: 0x8, addend: 0x0, symName: __ZNSt3__110__distanceB7v160006IPN3vkb6detail24GenericFeaturesPNextNodeEEENS_15iterator_traitsIT_E15difference_typeES6_S6_NS_26random_access_iterator_tagE, symObjAddr: 0xA7EB0, symBinAddr: 0x1000AA6C0, symSize: 0x30 }
  - { offsetInCU: 0x3FAA7, offset: 0x3FAA7, size: 0x8, addend: 0x0, symName: __ZNSt3__16__copyB7v160006INS_17_ClassicAlgPolicyEPN3vkb6detail24GenericFeaturesPNextNodeES5_S5_EENS_4pairIT0_T2_EES7_T1_S8_, symObjAddr: 0xA7EE0, symBinAddr: 0x1000AA6F0, symSize: 0x210 }
  - { offsetInCU: 0x3FB16, offset: 0x3FB16, size: 0x8, addend: 0x0, symName: __ZNSt3__123__dispatch_copy_or_moveB7v160006INS_17_ClassicAlgPolicyENS_11__copy_loopIS1_EENS_14__copy_trivialEPN3vkb6detail24GenericFeaturesPNextNodeES8_S8_EENS_4pairIT2_T4_EESA_T3_SB_, symObjAddr: 0xA80F0, symBinAddr: 0x1000AA900, symSize: 0x210 }
  - { offsetInCU: 0x3FB97, offset: 0x3FB97, size: 0x8, addend: 0x0, symName: __ZNSt3__121__unwrap_and_dispatchB7v160006INS_10__overloadINS_11__copy_loopINS_17_ClassicAlgPolicyEEENS_14__copy_trivialEEEPN3vkb6detail24GenericFeaturesPNextNodeESA_SA_Li0EEENS_4pairIT0_T2_EESC_T1_SD_, symObjAddr: 0xA8300, symBinAddr: 0x1000AAB10, symSize: 0x650 }
  - { offsetInCU: 0x3FC30, offset: 0x3FC30, size: 0x8, addend: 0x0, symName: __ZNSt3__114__unwrap_rangeB7v160006IPN3vkb6detail24GenericFeaturesPNextNodeES4_EEDaT_T0_, symObjAddr: 0xA8950, symBinAddr: 0x1000AB160, symSize: 0x210 }
  - { offsetInCU: 0x3FD83, offset: 0x3FD83, size: 0x8, addend: 0x0, symName: __ZNSt3__113__unwrap_iterB7v160006IPN3vkb6detail24GenericFeaturesPNextNodeENS_18__unwrap_iter_implIS4_Lb1EEELi0EEEDTclsrT0_8__unwrapclsr3stdE7declvalIT_EEEES8_, symObjAddr: 0xA8D70, symBinAddr: 0x1000AB580, symSize: 0x20 }
  - { offsetInCU: 0x3FDC7, offset: 0x3FDC7, size: 0x8, addend: 0x0, symName: __ZNSt3__19make_pairB7v160006IPN3vkb6detail24GenericFeaturesPNextNodeES4_EENS_4pairINS_18__unwrap_ref_decayIT_E4typeENS6_IT0_E4typeEEEOS7_OSA_, symObjAddr: 0xA8D90, symBinAddr: 0x1000AB5A0, symSize: 0x190 }
  - { offsetInCU: 0x3FE18, offset: 0x3FE18, size: 0x8, addend: 0x0, symName: __ZNSt3__114__rewrap_rangeB7v160006IPN3vkb6detail24GenericFeaturesPNextNodeES4_S4_EET0_S5_T1_, symObjAddr: 0xA8F20, symBinAddr: 0x1000AB730, symSize: 0x30 }
  - { offsetInCU: 0x3FE6D, offset: 0x3FE6D, size: 0x8, addend: 0x0, symName: __ZNSt3__113__rewrap_iterB7v160006IPN3vkb6detail24GenericFeaturesPNextNodeES4_NS_18__unwrap_iter_implIS4_Lb1EEEEET_S7_T0_, symObjAddr: 0xA8F50, symBinAddr: 0x1000AB760, symSize: 0x50 }
  - { offsetInCU: 0x3FF12, offset: 0x3FF12, size: 0x8, addend: 0x0, symName: __ZNSt3__119__copy_trivial_implB7v160006IN3vkb6detail24GenericFeaturesPNextNodeES3_EENS_4pairIPT_PT0_EES6_S6_S8_, symObjAddr: 0xA9350, symBinAddr: 0x1000ABB60, symSize: 0x350 }
  - { offsetInCU: 0x3FF81, offset: 0x3FF81, size: 0x8, addend: 0x0, symName: __ZNSt3__19make_pairB7v160006IRPN3vkb6detail24GenericFeaturesPNextNodeES4_EENS_4pairINS_18__unwrap_ref_decayIT_E4typeENS7_IT0_E4typeEEEOS8_OSB_, symObjAddr: 0xA96A0, symBinAddr: 0x1000ABEB0, symSize: 0x190 }
  - { offsetInCU: 0x40027, offset: 0x40027, size: 0x8, addend: 0x0, symName: __ZNSt3__118__debug_db_erase_cB7v160006INS_6vectorI23VkQueueFamilyPropertiesNS_9allocatorIS2_EEEEEEvPT_, symObjAddr: 0xAA0E0, symBinAddr: 0x1000AC8F0, symSize: 0x10 }
  - { offsetInCU: 0x40058, offset: 0x40058, size: 0x8, addend: 0x0, symName: __ZNSt3__1eqB7v160006IcNS_11char_traitsIcEEEEbNS_17basic_string_viewIT_T0_EES6_, symObjAddr: 0xAA210, symBinAddr: 0x1000ACA20, symSize: 0x340 }
  - { offsetInCU: 0x400AF, offset: 0x400AF, size: 0x8, addend: 0x0, symName: __ZNSt3__128__char_traits_length_checkedB7v160006INS_11char_traitsIcEEEEmPKNT_9char_typeE, symObjAddr: 0xAAD60, symBinAddr: 0x1000AD570, symSize: 0x20 }
  - { offsetInCU: 0x400E5, offset: 0x400E5, size: 0x8, addend: 0x0, symName: __ZNSt3__119__debug_db_insert_cB7v160006INS_6vectorI18VkSurfaceFormatKHRNS_9allocatorIS2_EEEEEEvPT_, symObjAddr: 0xAB010, symBinAddr: 0x1000AD820, symSize: 0x10 }
  - { offsetInCU: 0x40117, offset: 0x40117, size: 0x8, addend: 0x0, symName: __ZNSt3__119__debug_db_insert_cB7v160006INS_6vectorI16VkPresentModeKHRNS_9allocatorIS2_EEEEEEvPT_, symObjAddr: 0xAB390, symBinAddr: 0x1000ADBA0, symSize: 0x10 }
  - { offsetInCU: 0x40149, offset: 0x40149, size: 0x8, addend: 0x0, symName: __ZNSt3__118__debug_db_erase_cB7v160006INS_6vectorI16VkPresentModeKHRNS_9allocatorIS2_EEEEEEvPT_, symObjAddr: 0xAB950, symBinAddr: 0x1000AE160, symSize: 0x10 }
  - { offsetInCU: 0x4017A, offset: 0x4017A, size: 0x8, addend: 0x0, symName: __ZNSt3__112__to_addressB7v160006I16VkPresentModeKHREEPT_S3_, symObjAddr: 0xABB30, symBinAddr: 0x1000AE340, symSize: 0x10 }
  - { offsetInCU: 0x401B0, offset: 0x401B0, size: 0x8, addend: 0x0, symName: __ZNSt3__110destroy_atB7v160006I16VkPresentModeKHRLi0EEEvPT_, symObjAddr: 0xABC50, symBinAddr: 0x1000AE460, symSize: 0x20 }
  - { offsetInCU: 0x401E8, offset: 0x401E8, size: 0x8, addend: 0x0, symName: __ZNSt3__112__destroy_atB7v160006I16VkPresentModeKHRLi0EEEvPT_, symObjAddr: 0xABC70, symBinAddr: 0x1000AE480, symSize: 0x10 }
  - { offsetInCU: 0x40220, offset: 0x40220, size: 0x8, addend: 0x0, symName: __ZNSt3__118__debug_db_erase_cB7v160006INS_6vectorI18VkSurfaceFormatKHRNS_9allocatorIS2_EEEEEEvPT_, symObjAddr: 0xAC220, symBinAddr: 0x1000AEA30, symSize: 0x10 }
  - { offsetInCU: 0x40251, offset: 0x40251, size: 0x8, addend: 0x0, symName: __ZNSt3__112__to_addressB7v160006I18VkSurfaceFormatKHREEPT_S3_, symObjAddr: 0xAC400, symBinAddr: 0x1000AEC10, symSize: 0x10 }
  - { offsetInCU: 0x40287, offset: 0x40287, size: 0x8, addend: 0x0, symName: __ZNSt3__110destroy_atB7v160006I18VkSurfaceFormatKHRLi0EEEvPT_, symObjAddr: 0xAC520, symBinAddr: 0x1000AED30, symSize: 0x20 }
  - { offsetInCU: 0x402BF, offset: 0x402BF, size: 0x8, addend: 0x0, symName: __ZNSt3__112__destroy_atB7v160006I18VkSurfaceFormatKHRLi0EEEvPT_, symObjAddr: 0xAC540, symBinAddr: 0x1000AED50, symSize: 0x10 }
  - { offsetInCU: 0x402F6, offset: 0x402F6, size: 0x8, addend: 0x0, symName: __ZNSt3__1eqB7v160006IPKN3vkb6detail24GenericFeaturesPNextNodeEEEbRKNS_11__wrap_iterIT_EESA_, symObjAddr: 0xAE6A0, symBinAddr: 0x1000B0EB0, symSize: 0x40 }
  - { offsetInCU: 0x4033A, offset: 0x4033A, size: 0x8, addend: 0x0, symName: __ZNSt3__119__debug_db_insert_cB7v160006INS_6vectorIP18VkPhysicalDevice_TNS_9allocatorIS3_EEEEEEvPT_, symObjAddr: 0xAE9C0, symBinAddr: 0x1000B11D0, symSize: 0x10 }
  - { offsetInCU: 0x4036B, offset: 0x4036B, size: 0x8, addend: 0x0, symName: __ZNSt3__1miB7v160006IPKNS_12basic_stringIcNS_11char_traitsIcEENS_9allocatorIcEEEEPS6_EEDTmicldtfp_4baseEcldtfp0_4baseEERKNS_11__wrap_iterIT_EERKNSB_IT0_EE, symObjAddr: 0xB0B90, symBinAddr: 0x1000B33A0, symSize: 0x40 }
  - { offsetInCU: 0x403B7, offset: 0x403B7, size: 0x8, addend: 0x0, symName: __ZNSt3__18distanceB7v160006INS_11__wrap_iterIPKNS_12basic_stringIcNS_11char_traitsIcEENS_9allocatorIcEEEEEEEENS_15iterator_traitsIT_E15difference_typeESC_SC_, symObjAddr: 0xB0BD0, symBinAddr: 0x1000B33E0, symSize: 0x2C0 }
  - { offsetInCU: 0x40402, offset: 0x40402, size: 0x8, addend: 0x0, symName: __ZNSt3__14copyB7v160006INS_11__wrap_iterIPKNS_12basic_stringIcNS_11char_traitsIcEENS_9allocatorIcEEEEEEPS7_EET0_T_SD_SC_, symObjAddr: 0xB17B0, symBinAddr: 0x1000B3FC0, symSize: 0x3F0 }
  - { offsetInCU: 0x40465, offset: 0x40465, size: 0x8, addend: 0x0, symName: __ZNSt3__110__distanceB7v160006INS_11__wrap_iterIPKNS_12basic_stringIcNS_11char_traitsIcEENS_9allocatorIcEEEEEEEENS_15iterator_traitsIT_E15difference_typeESC_SC_NS_26random_access_iterator_tagE, symObjAddr: 0xB2970, symBinAddr: 0x1000B5180, symSize: 0x1E0 }
  - { offsetInCU: 0x404BC, offset: 0x404BC, size: 0x8, addend: 0x0, symName: __ZNSt3__1miB7v160006IPKNS_12basic_stringIcNS_11char_traitsIcEENS_9allocatorIcEEEES8_EEDTmicldtfp_4baseEcldtfp0_4baseEERKNS_11__wrap_iterIT_EERKNSA_IT0_EE, symObjAddr: 0xB2B50, symBinAddr: 0x1000B5360, symSize: 0x40 }
  - { offsetInCU: 0x40509, offset: 0x40509, size: 0x8, addend: 0x0, symName: __ZNSt3__19__advanceB7v160006INS_11__wrap_iterIPKNS_12basic_stringIcNS_11char_traitsIcEENS_9allocatorIcEEEEEEEEvRT_NS_15iterator_traitsISB_E15difference_typeENS_26random_access_iterator_tagE, symObjAddr: 0xB2B90, symBinAddr: 0x1000B53A0, symSize: 0x30 }
  - { offsetInCU: 0x40553, offset: 0x40553, size: 0x8, addend: 0x0, symName: __ZNSt3__130__uninitialized_allocator_copyB7v160006INS_9allocatorINS_12basic_stringIcNS_11char_traitsIcEENS1_IcEEEEEENS_11__wrap_iterIPKS6_EESB_PS6_EET2_RT_T0_T1_SD_, symObjAddr: 0xB2C20, symBinAddr: 0x1000B5430, symSize: 0x5F0 }
  - { offsetInCU: 0x40607, offset: 0x40607, size: 0x8, addend: 0x0, symName: __ZNSt3__122__make_exception_guardB7v160006INS_29_AllocatorDestroyRangeReverseINS_9allocatorINS_12basic_stringIcNS_11char_traitsIcEENS2_IcEEEEEEPS7_EEEENS_28__exception_guard_exceptionsIT_EESC_, symObjAddr: 0xB3210, symBinAddr: 0x1000B5A20, symSize: 0x2A0 }
  - { offsetInCU: 0x40640, offset: 0x40640, size: 0x8, addend: 0x0, symName: __ZNSt3__119__allocator_destroyB7v160006INS_9allocatorINS_12basic_stringIcNS_11char_traitsIcEENS1_IcEEEEEENS_16reverse_iteratorIPS6_EESA_EEvRT_T0_T1_, symObjAddr: 0xB3EB0, symBinAddr: 0x1000B66C0, symSize: 0x2B0 }
  - { offsetInCU: 0x406AC, offset: 0x406AC, size: 0x8, addend: 0x0, symName: __ZNSt3__113move_backwardB7v160006IPNS_12basic_stringIcNS_11char_traitsIcEENS_9allocatorIcEEEES7_EET0_T_S9_S8_, symObjAddr: 0xB4160, symBinAddr: 0x1000B6970, symSize: 0x220 }
  - { offsetInCU: 0x40709, offset: 0x40709, size: 0x8, addend: 0x0, symName: __ZNSt3__115__move_backwardB7v160006INS_17_ClassicAlgPolicyEPNS_12basic_stringIcNS_11char_traitsIcEENS_9allocatorIcEEEES8_S8_EENS_4pairIT0_T2_EESA_T1_SB_, symObjAddr: 0xB4380, symBinAddr: 0x1000B6B90, symSize: 0x210 }
  - { offsetInCU: 0x40778, offset: 0x40778, size: 0x8, addend: 0x0, symName: __ZNSt3__123__dispatch_copy_or_moveB7v160006INS_17_ClassicAlgPolicyENS_20__move_backward_loopIS1_EENS_23__move_backward_trivialEPNS_12basic_stringIcNS_11char_traitsIcEENS_9allocatorIcEEEESB_SB_EENS_4pairIT2_T4_EESD_T3_SE_, symObjAddr: 0xB4590, symBinAddr: 0x1000B6DA0, symSize: 0x210 }
  - { offsetInCU: 0x407F9, offset: 0x407F9, size: 0x8, addend: 0x0, symName: __ZNSt3__121__unwrap_and_dispatchB7v160006INS_10__overloadINS_20__move_backward_loopINS_17_ClassicAlgPolicyEEENS_23__move_backward_trivialEEEPNS_12basic_stringIcNS_11char_traitsIcEENS_9allocatorIcEEEESD_SD_Li0EEENS_4pairIT0_T2_EESF_T1_SG_, symObjAddr: 0xB47A0, symBinAddr: 0x1000B6FB0, symSize: 0x650 }
  - { offsetInCU: 0x40892, offset: 0x40892, size: 0x8, addend: 0x0, symName: __ZNSt3__114__unwrap_rangeB7v160006IPNS_12basic_stringIcNS_11char_traitsIcEENS_9allocatorIcEEEES7_EEDaT_T0_, symObjAddr: 0xB4DF0, symBinAddr: 0x1000B7600, symSize: 0x210 }
  - { offsetInCU: 0x40A46, offset: 0x40A46, size: 0x8, addend: 0x0, symName: __ZNSt3__113__unwrap_iterB7v160006IPNS_12basic_stringIcNS_11char_traitsIcEENS_9allocatorIcEEEENS_18__unwrap_iter_implIS7_Lb1EEELi0EEEDTclsrT0_8__unwrapclsr3stdE7declvalIT_EEEESB_, symObjAddr: 0xB5490, symBinAddr: 0x1000B7CA0, symSize: 0x20 }
  - { offsetInCU: 0x40A8A, offset: 0x40A8A, size: 0x8, addend: 0x0, symName: __ZNSt3__19make_pairB7v160006IPNS_12basic_stringIcNS_11char_traitsIcEENS_9allocatorIcEEEES7_EENS_4pairINS_18__unwrap_ref_decayIT_E4typeENS9_IT0_E4typeEEEOSA_OSD_, symObjAddr: 0xB54B0, symBinAddr: 0x1000B7CC0, symSize: 0x190 }
  - { offsetInCU: 0x40ADB, offset: 0x40ADB, size: 0x8, addend: 0x0, symName: __ZNSt3__114__rewrap_rangeB7v160006IPNS_12basic_stringIcNS_11char_traitsIcEENS_9allocatorIcEEEES7_S7_EET0_S8_T1_, symObjAddr: 0xB5640, symBinAddr: 0x1000B7E50, symSize: 0x30 }
  - { offsetInCU: 0x40B30, offset: 0x40B30, size: 0x8, addend: 0x0, symName: __ZNSt3__113__rewrap_iterB7v160006IPNS_12basic_stringIcNS_11char_traitsIcEENS_9allocatorIcEEEES7_NS_18__unwrap_iter_implIS7_Lb1EEEEET_SA_T0_, symObjAddr: 0xB5670, symBinAddr: 0x1000B7E80, symSize: 0x50 }
  - { offsetInCU: 0x40C4E, offset: 0x40C4E, size: 0x8, addend: 0x0, symName: __ZNSt3__16__copyB7v160006INS_17_ClassicAlgPolicyENS_11__wrap_iterIPKNS_12basic_stringIcNS_11char_traitsIcEENS_9allocatorIcEEEEEESB_PS8_EENS_4pairIT0_T2_EESE_T1_SF_, symObjAddr: 0xB61C0, symBinAddr: 0x1000B89D0, symSize: 0x3E0 }
  - { offsetInCU: 0x40CC3, offset: 0x40CC3, size: 0x8, addend: 0x0, symName: __ZNSt3__123__dispatch_copy_or_moveB7v160006INS_17_ClassicAlgPolicyENS_11__copy_loopIS1_EENS_14__copy_trivialENS_11__wrap_iterIPKNS_12basic_stringIcNS_11char_traitsIcEENS_9allocatorIcEEEEEESE_PSB_EENS_4pairIT2_T4_EESH_T3_SI_, symObjAddr: 0xB65A0, symBinAddr: 0x1000B8DB0, symSize: 0x3E0 }
  - { offsetInCU: 0x40D4A, offset: 0x40D4A, size: 0x8, addend: 0x0, symName: __ZNSt3__121__unwrap_and_dispatchB7v160006INS_10__overloadINS_11__copy_loopINS_17_ClassicAlgPolicyEEENS_14__copy_trivialEEENS_11__wrap_iterIPKNS_12basic_stringIcNS_11char_traitsIcEENS_9allocatorIcEEEEEESG_PSD_Li0EEENS_4pairIT0_T2_EESJ_T1_SK_, symObjAddr: 0xB6980, symBinAddr: 0x1000B9190, symSize: 0x840 }
  - { offsetInCU: 0x40DEB, offset: 0x40DEB, size: 0x8, addend: 0x0, symName: __ZNSt3__114__unwrap_rangeB7v160006INS_11__wrap_iterIPKNS_12basic_stringIcNS_11char_traitsIcEENS_9allocatorIcEEEEEESA_EEDaT_T0_, symObjAddr: 0xB71C0, symBinAddr: 0x1000B99D0, symSize: 0x3A0 }
  - { offsetInCU: 0x40FE4, offset: 0x40FE4, size: 0x8, addend: 0x0, symName: __ZNSt3__19make_pairB7v160006INS_11__wrap_iterIPKNS_12basic_stringIcNS_11char_traitsIcEENS_9allocatorIcEEEEEEPS7_EENS_4pairINS_18__unwrap_ref_decayIT_E4typeENSD_IT0_E4typeEEEOSE_OSH_, symObjAddr: 0xB7950, symBinAddr: 0x1000BA160, symSize: 0x190 }
  - { offsetInCU: 0x41035, offset: 0x41035, size: 0x8, addend: 0x0, symName: __ZNSt3__114__rewrap_rangeB7v160006INS_11__wrap_iterIPKNS_12basic_stringIcNS_11char_traitsIcEENS_9allocatorIcEEEEEESA_S9_EET0_SB_T1_, symObjAddr: 0xB7AE0, symBinAddr: 0x1000BA2F0, symSize: 0x280 }
  - { offsetInCU: 0x411AC, offset: 0x411AC, size: 0x8, addend: 0x0, symName: __ZNSt3__113__unwrap_iterB7v160006INS_11__wrap_iterIPKNS_12basic_stringIcNS_11char_traitsIcEENS_9allocatorIcEEEEEENS_18__unwrap_iter_implISA_Lb1EEELi0EEEDTclsrT0_8__unwrapclsr3stdE7declvalIT_EEEESE_, symObjAddr: 0xB8160, symBinAddr: 0x1000BA970, symSize: 0x1E0 }
  - { offsetInCU: 0x41248, offset: 0x41248, size: 0x8, addend: 0x0, symName: __ZNSt3__112__to_addressB7v160006INS_11__wrap_iterIPKNS_12basic_stringIcNS_11char_traitsIcEENS_9allocatorIcEEEEEEvEENS_5decayIDTclsr19__to_address_helperIT_EE6__callclsr3stdE7declvalIRKSC_EEEEE4typeESE_, symObjAddr: 0xB84F0, symBinAddr: 0x1000BAD00, symSize: 0x20 }
  - { offsetInCU: 0x412EA, offset: 0x412EA, size: 0x8, addend: 0x0, symName: __ZNSt3__19make_pairB7v160006IPKNS_12basic_stringIcNS_11char_traitsIcEENS_9allocatorIcEEEEPS6_EENS_4pairINS_18__unwrap_ref_decayIT_E4typeENSB_IT0_E4typeEEEOSC_OSF_, symObjAddr: 0xB8920, symBinAddr: 0x1000BB130, symSize: 0x190 }
  - { offsetInCU: 0x41410, offset: 0x41410, size: 0x8, addend: 0x0, symName: __ZNSt3__113__rewrap_iterB7v160006INS_11__wrap_iterIPKNS_12basic_stringIcNS_11char_traitsIcEENS_9allocatorIcEEEEEES9_NS_18__unwrap_iter_implISA_Lb1EEEEET_SD_T0_, symObjAddr: 0xB8F50, symBinAddr: 0x1000BB760, symSize: 0x290 }
  - { offsetInCU: 0x4146A, offset: 0x4146A, size: 0x8, addend: 0x0, symName: __ZNSt3__142__uninitialized_allocator_move_if_noexceptB7v160006INS_9allocatorINS_12basic_stringIcNS_11char_traitsIcEENS1_IcEEEEEEPS6_S8_S8_EET2_RT_T0_T1_S9_, symObjAddr: 0xB9810, symBinAddr: 0x1000BC020, symSize: 0x550 }
  - { offsetInCU: 0x41516, offset: 0x41516, size: 0x8, addend: 0x0, symName: __ZNSt3__18distanceB7v160006INS_11__wrap_iterIPNS_12basic_stringIcNS_11char_traitsIcEENS_9allocatorIcEEEEEEEENS_15iterator_traitsIT_E15difference_typeESB_SB_, symObjAddr: 0xB9DD0, symBinAddr: 0x1000BC5E0, symSize: 0x2C0 }
  - { offsetInCU: 0x41561, offset: 0x41561, size: 0x8, addend: 0x0, symName: __ZNSt3__14copyB7v160006INS_11__wrap_iterIPNS_12basic_stringIcNS_11char_traitsIcEENS_9allocatorIcEEEEEES8_EET0_T_SB_SA_, symObjAddr: 0xBA5B0, symBinAddr: 0x1000BCDC0, symSize: 0x3F0 }
  - { offsetInCU: 0x415C4, offset: 0x415C4, size: 0x8, addend: 0x0, symName: __ZNSt3__110__distanceB7v160006INS_11__wrap_iterIPNS_12basic_stringIcNS_11char_traitsIcEENS_9allocatorIcEEEEEEEENS_15iterator_traitsIT_E15difference_typeESB_SB_NS_26random_access_iterator_tagE, symObjAddr: 0xBAF20, symBinAddr: 0x1000BD730, symSize: 0x1E0 }
  - { offsetInCU: 0x4161B, offset: 0x4161B, size: 0x8, addend: 0x0, symName: __ZNSt3__1miB7v160006IPNS_12basic_stringIcNS_11char_traitsIcEENS_9allocatorIcEEEES7_EEDTmicldtfp_4baseEcldtfp0_4baseEERKNS_11__wrap_iterIT_EERKNS9_IT0_EE, symObjAddr: 0xBB100, symBinAddr: 0x1000BD910, symSize: 0x40 }
  - { offsetInCU: 0x41668, offset: 0x41668, size: 0x8, addend: 0x0, symName: __ZNSt3__19__advanceB7v160006INS_11__wrap_iterIPNS_12basic_stringIcNS_11char_traitsIcEENS_9allocatorIcEEEEEEEEvRT_NS_15iterator_traitsISA_E15difference_typeENS_26random_access_iterator_tagE, symObjAddr: 0xBB140, symBinAddr: 0x1000BD950, symSize: 0x30 }
  - { offsetInCU: 0x416B2, offset: 0x416B2, size: 0x8, addend: 0x0, symName: __ZNSt3__130__uninitialized_allocator_copyB7v160006INS_9allocatorINS_12basic_stringIcNS_11char_traitsIcEENS1_IcEEEEEENS_11__wrap_iterIPS6_EESA_S9_EET2_RT_T0_T1_SB_, symObjAddr: 0xBB1D0, symBinAddr: 0x1000BD9E0, symSize: 0x5F0 }
  - { offsetInCU: 0x41766, offset: 0x41766, size: 0x8, addend: 0x0, symName: __ZNSt3__112construct_atB7v160006INS_12basic_stringIcNS_11char_traitsIcEENS_9allocatorIcEEEEJRS6_EPS6_EEPT_SA_DpOT0_, symObjAddr: 0xBB7F0, symBinAddr: 0x1000BE000, symSize: 0x40 }
  - { offsetInCU: 0x417D8, offset: 0x417D8, size: 0x8, addend: 0x0, symName: __ZNSt3__16__copyB7v160006INS_17_ClassicAlgPolicyENS_11__wrap_iterIPNS_12basic_stringIcNS_11char_traitsIcEENS_9allocatorIcEEEEEESA_S9_EENS_4pairIT0_T2_EESC_T1_SD_, symObjAddr: 0xBB830, symBinAddr: 0x1000BE040, symSize: 0x3E0 }
  - { offsetInCU: 0x4184D, offset: 0x4184D, size: 0x8, addend: 0x0, symName: __ZNSt3__123__dispatch_copy_or_moveB7v160006INS_17_ClassicAlgPolicyENS_11__copy_loopIS1_EENS_14__copy_trivialENS_11__wrap_iterIPNS_12basic_stringIcNS_11char_traitsIcEENS_9allocatorIcEEEEEESD_SC_EENS_4pairIT2_T4_EESF_T3_SG_, symObjAddr: 0xBBC10, symBinAddr: 0x1000BE420, symSize: 0x3E0 }
  - { offsetInCU: 0x418D4, offset: 0x418D4, size: 0x8, addend: 0x0, symName: __ZNSt3__121__unwrap_and_dispatchB7v160006INS_10__overloadINS_11__copy_loopINS_17_ClassicAlgPolicyEEENS_14__copy_trivialEEENS_11__wrap_iterIPNS_12basic_stringIcNS_11char_traitsIcEENS_9allocatorIcEEEEEESF_SE_Li0EEENS_4pairIT0_T2_EESH_T1_SI_, symObjAddr: 0xBBFF0, symBinAddr: 0x1000BE800, symSize: 0x840 }
  - { offsetInCU: 0x41975, offset: 0x41975, size: 0x8, addend: 0x0, symName: __ZNSt3__114__unwrap_rangeB7v160006INS_11__wrap_iterIPNS_12basic_stringIcNS_11char_traitsIcEENS_9allocatorIcEEEEEES9_EEDaT_T0_, symObjAddr: 0xBC830, symBinAddr: 0x1000BF040, symSize: 0x3A0 }
  - { offsetInCU: 0x419C9, offset: 0x419C9, size: 0x8, addend: 0x0, symName: __ZNSt3__19make_pairB7v160006INS_11__wrap_iterIPNS_12basic_stringIcNS_11char_traitsIcEENS_9allocatorIcEEEEEES8_EENS_4pairINS_18__unwrap_ref_decayIT_E4typeENSB_IT0_E4typeEEEOSC_OSF_, symObjAddr: 0xBCFC0, symBinAddr: 0x1000BF7D0, symSize: 0x190 }
  - { offsetInCU: 0x41A1A, offset: 0x41A1A, size: 0x8, addend: 0x0, symName: __ZNSt3__114__rewrap_rangeB7v160006INS_11__wrap_iterIPNS_12basic_stringIcNS_11char_traitsIcEENS_9allocatorIcEEEEEES9_S8_EET0_SA_T1_, symObjAddr: 0xBD150, symBinAddr: 0x1000BF960, symSize: 0x280 }
  - { offsetInCU: 0x41AC4, offset: 0x41AC4, size: 0x8, addend: 0x0, symName: __ZNSt3__113__unwrap_iterB7v160006INS_11__wrap_iterIPNS_12basic_stringIcNS_11char_traitsIcEENS_9allocatorIcEEEEEENS_18__unwrap_iter_implIS9_Lb1EEELi0EEEDTclsrT0_8__unwrapclsr3stdE7declvalIT_EEEESD_, symObjAddr: 0xBD7D0, symBinAddr: 0x1000BFFE0, symSize: 0x1E0 }
  - { offsetInCU: 0x41B60, offset: 0x41B60, size: 0x8, addend: 0x0, symName: __ZNSt3__112__to_addressB7v160006INS_11__wrap_iterIPNS_12basic_stringIcNS_11char_traitsIcEENS_9allocatorIcEEEEEEvEENS_5decayIDTclsr19__to_address_helperIT_EE6__callclsr3stdE7declvalIRKSB_EEEEE4typeESD_, symObjAddr: 0xBDB30, symBinAddr: 0x1000C0340, symSize: 0x20 }
  - { offsetInCU: 0x41CD7, offset: 0x41CD7, size: 0x8, addend: 0x0, symName: __ZNSt3__113__rewrap_iterB7v160006INS_11__wrap_iterIPNS_12basic_stringIcNS_11char_traitsIcEENS_9allocatorIcEEEEEES8_NS_18__unwrap_iter_implIS9_Lb1EEEEET_SC_T0_, symObjAddr: 0xBE1B0, symBinAddr: 0x1000C09C0, symSize: 0x290 }
  - { offsetInCU: 0x41D31, offset: 0x41D31, size: 0x8, addend: 0x0, symName: __ZNSt3__122__make_exception_guardB7v160006INS_6vectorIN3vkb14PhysicalDeviceENS_9allocatorIS3_EEE16__destroy_vectorEEENS_28__exception_guard_exceptionsIT_EES9_, symObjAddr: 0xBEE80, symBinAddr: 0x1000C1690, symSize: 0x1F0 }
  - { offsetInCU: 0x41D6B, offset: 0x41D6B, size: 0x8, addend: 0x0, symName: __ZNSt3__119__debug_db_insert_cB7v160006INS_6vectorIN3vkb14PhysicalDeviceENS_9allocatorIS3_EEEEEEvPT_, symObjAddr: 0xBF0A0, symBinAddr: 0x1000C18B0, symSize: 0x10 }
  - { offsetInCU: 0x41D9C, offset: 0x41D9C, size: 0x8, addend: 0x0, symName: __ZNSt3__119__allocate_at_leastB7v160006INS_9allocatorIN3vkb14PhysicalDeviceEEEEENS_19__allocation_resultINS_16allocator_traitsIT_E7pointerEEERS7_m, symObjAddr: 0xC00D0, symBinAddr: 0x1000C28E0, symSize: 0x210 }
  - { offsetInCU: 0x41DE1, offset: 0x41DE1, size: 0x8, addend: 0x0, symName: __ZNSt3__112__to_addressB7v160006IN3vkb14PhysicalDeviceEEEPT_S4_, symObjAddr: 0xC0670, symBinAddr: 0x1000C2E80, symSize: 0x10 }
  - { offsetInCU: 0x41E16, offset: 0x41E16, size: 0x8, addend: 0x0, symName: __ZNSt3__130__uninitialized_allocator_copyB7v160006INS_9allocatorIN3vkb14PhysicalDeviceEEEPKS3_S6_PS3_EET2_RT_T0_T1_S8_, symObjAddr: 0xC0700, symBinAddr: 0x1000C2F10, symSize: 0x550 }
  - { offsetInCU: 0x41EC2, offset: 0x41EC2, size: 0x8, addend: 0x0, symName: __ZNSt3__122__make_exception_guardB7v160006INS_29_AllocatorDestroyRangeReverseINS_9allocatorIN3vkb14PhysicalDeviceEEEPS4_EEEENS_28__exception_guard_exceptionsIT_EES9_, symObjAddr: 0xC0EF0, symBinAddr: 0x1000C3700, symSize: 0x2A0 }
  - { offsetInCU: 0x41F22, offset: 0x41F22, size: 0x8, addend: 0x0, symName: __ZNSt3__112construct_atB7v160006IN3vkb14PhysicalDeviceEJRKS2_EPS2_EEPT_S7_DpOT0_, symObjAddr: 0xC17B0, symBinAddr: 0x1000C3FC0, symSize: 0x40 }
  - { offsetInCU: 0x41F94, offset: 0x41F94, size: 0x8, addend: 0x0, symName: __ZNSt3__119__allocator_destroyB7v160006INS_9allocatorIN3vkb14PhysicalDeviceEEENS_16reverse_iteratorIPS3_EES7_EEvRT_T0_T1_, symObjAddr: 0xC1C00, symBinAddr: 0x1000C4410, symSize: 0x2B0 }
  - { offsetInCU: 0x42000, offset: 0x42000, size: 0x8, addend: 0x0, symName: __ZNSt3__1neB7v160006IPN3vkb14PhysicalDeviceES3_EEbRKNS_16reverse_iteratorIT_EERKNS4_IT0_EE, symObjAddr: 0xC1EE0, symBinAddr: 0x1000C46F0, symSize: 0x40 }
  - { offsetInCU: 0x4204C, offset: 0x4204C, size: 0x8, addend: 0x0, symName: __ZNSt3__112__to_addressB7v160006INS_16reverse_iteratorIPN3vkb14PhysicalDeviceEEEvEENS_5decayIDTclsr19__to_address_helperIT_EE6__callclsr3stdE7declvalIRKS7_EEEEE4typeES9_, symObjAddr: 0xC1F40, symBinAddr: 0x1000C4750, symSize: 0x20 }
  - { offsetInCU: 0x42083, offset: 0x42083, size: 0x8, addend: 0x0, symName: __ZNSt3__110destroy_atB7v160006IN3vkb14PhysicalDeviceELi0EEEvPT_, symObjAddr: 0xC2010, symBinAddr: 0x1000C4820, symSize: 0x20 }
  - { offsetInCU: 0x420BB, offset: 0x420BB, size: 0x8, addend: 0x0, symName: __ZNSt3__112__destroy_atB7v160006IN3vkb14PhysicalDeviceELi0EEEvPT_, symObjAddr: 0xC2030, symBinAddr: 0x1000C4840, symSize: 0x20 }
  - { offsetInCU: 0x4211C, offset: 0x4211C, size: 0x8, addend: 0x0, symName: __ZNSt3__14prevB7v160006IPN3vkb14PhysicalDeviceEEENS_9enable_ifIXsr25__is_cpp17_input_iteratorIT_EE5valueES5_E4typeES5_NS_15iterator_traitsIS5_E15difference_typeE, symObjAddr: 0xC20F0, symBinAddr: 0x1000C4900, symSize: 0x1E0 }
  - { offsetInCU: 0x42165, offset: 0x42165, size: 0x8, addend: 0x0, symName: __ZNSt3__19__advanceB7v160006IPN3vkb14PhysicalDeviceEEEvRT_NS_15iterator_traitsIS4_E15difference_typeENS_26random_access_iterator_tagE, symObjAddr: 0xC2320, symBinAddr: 0x1000C4B30, symSize: 0x60 }
  - { offsetInCU: 0x421B0, offset: 0x421B0, size: 0x8, addend: 0x0, symName: __ZNSt3__118__debug_db_erase_cB7v160006INS_6vectorIN3vkb14PhysicalDeviceENS_9allocatorIS3_EEEEEEvPT_, symObjAddr: 0xC2A80, symBinAddr: 0x1000C5290, symSize: 0x10 }
  - { offsetInCU: 0x421E1, offset: 0x421E1, size: 0x8, addend: 0x0, symName: __ZNSt3__1eqB7v160006IPP18VkPhysicalDevice_TEEbRKNS_11__wrap_iterIT_EES8_, symObjAddr: 0xC3240, symBinAddr: 0x1000C5A50, symSize: 0x40 }
  - { offsetInCU: 0x42224, offset: 0x42224, size: 0x8, addend: 0x0, symName: __ZNSt3__142__uninitialized_allocator_move_if_noexceptB7v160006INS_9allocatorIN3vkb14PhysicalDeviceEEENS_16reverse_iteratorIPS3_EES7_S7_EET2_RT_T0_T1_S8_, symObjAddr: 0xC4940, symBinAddr: 0x1000C7150, symSize: 0x660 }
  - { offsetInCU: 0x422D9, offset: 0x422D9, size: 0x8, addend: 0x0, symName: __ZNSt3__14swapB7v160006IPN3vkb14PhysicalDeviceEEENS_9enable_ifIXaasr21is_move_constructibleIT_EE5valuesr18is_move_assignableIS5_EE5valueEvE4typeERS5_S8_, symObjAddr: 0xC4FA0, symBinAddr: 0x1000C77B0, symSize: 0x100 }
  - { offsetInCU: 0x4232B, offset: 0x4232B, size: 0x8, addend: 0x0, symName: __ZNSt3__125__debug_db_invalidate_allB7v160006INS_6vectorIN3vkb14PhysicalDeviceENS_9allocatorIS3_EEEEEEvPT_, symObjAddr: 0xC50A0, symBinAddr: 0x1000C78B0, symSize: 0x10 }
  - { offsetInCU: 0x4235C, offset: 0x4235C, size: 0x8, addend: 0x0, symName: __ZNSt3__122__make_exception_guardB7v160006INS_29_AllocatorDestroyRangeReverseINS_9allocatorIN3vkb14PhysicalDeviceEEENS_16reverse_iteratorIPS4_EEEEEENS_28__exception_guard_exceptionsIT_EESB_, symObjAddr: 0xC50B0, symBinAddr: 0x1000C78C0, symSize: 0x2A0 }
  - { offsetInCU: 0x42395, offset: 0x42395, size: 0x8, addend: 0x0, symName: __ZNSt3__112construct_atB7v160006IN3vkb14PhysicalDeviceEJS2_EPS2_EEPT_S5_DpOT0_, symObjAddr: 0xC59D0, symBinAddr: 0x1000C81E0, symSize: 0x40 }
  - { offsetInCU: 0x42408, offset: 0x42408, size: 0x8, addend: 0x0, symName: __ZNSt3__115__debug_db_swapB7v160006INS_6vectorINS_12basic_stringIcNS_11char_traitsIcEENS_9allocatorIcEEEENS5_IS7_EEEEEEvPT_SB_, symObjAddr: 0xC60A0, symBinAddr: 0x1000C88B0, symSize: 0x10 }
  - { offsetInCU: 0x42448, offset: 0x42448, size: 0x8, addend: 0x0, symName: __ZNSt3__115__debug_db_swapB7v160006INS_6vectorI23VkQueueFamilyPropertiesNS_9allocatorIS2_EEEEEEvPT_S7_, symObjAddr: 0xC6600, symBinAddr: 0x1000C8E10, symSize: 0x10 }
  - { offsetInCU: 0x42488, offset: 0x42488, size: 0x8, addend: 0x0, symName: __ZNSt3__115__debug_db_swapB7v160006INS_6vectorIN3vkb6detail24GenericFeaturesPNextNodeENS_9allocatorIS4_EEEEEEvPT_S9_, symObjAddr: 0xC6B30, symBinAddr: 0x1000C9340, symSize: 0x10 }
  - { offsetInCU: 0x424C7, offset: 0x424C7, size: 0x8, addend: 0x0, symName: __ZNSt3__119__allocator_destroyB7v160006INS_9allocatorIN3vkb14PhysicalDeviceEEENS_16reverse_iteratorINS5_IPS3_EEEES8_EEvRT_T0_T1_, symObjAddr: 0xC7100, symBinAddr: 0x1000C9910, symSize: 0x220 }
  - { offsetInCU: 0x42533, offset: 0x42533, size: 0x8, addend: 0x0, symName: __ZNSt3__1neB7v160006INS_16reverse_iteratorIPN3vkb14PhysicalDeviceEEES5_EEbRKNS1_IT_EERKNS1_IT0_EE, symObjAddr: 0xC7550, symBinAddr: 0x1000C9D60, symSize: 0x2C0 }
  - { offsetInCU: 0x42581, offset: 0x42581, size: 0x8, addend: 0x0, symName: __ZNSt3__112__to_addressB7v160006INS_16reverse_iteratorINS1_IPN3vkb14PhysicalDeviceEEEEEvEENS_5decayIDTclsr19__to_address_helperIT_EE6__callclsr3stdE7declvalIRKS8_EEEEE4typeESA_, symObjAddr: 0xC7810, symBinAddr: 0x1000CA020, symSize: 0x20 }
  - { offsetInCU: 0x425E1, offset: 0x425E1, size: 0x8, addend: 0x0, symName: __ZNSt3__14prevB7v160006INS_16reverse_iteratorIPN3vkb14PhysicalDeviceEEEEENS_9enable_ifIXsr25__is_cpp17_input_iteratorIT_EE5valueES7_E4typeES7_NS_15iterator_traitsIS7_E15difference_typeE, symObjAddr: 0xC7CB0, symBinAddr: 0x1000CA4C0, symSize: 0x260 }
  - { offsetInCU: 0x4262A, offset: 0x4262A, size: 0x8, addend: 0x0, symName: __ZNSt3__19__advanceB7v160006INS_16reverse_iteratorIPN3vkb14PhysicalDeviceEEEEEvRT_NS_15iterator_traitsIS6_E15difference_typeENS_26random_access_iterator_tagE, symObjAddr: 0xC7F60, symBinAddr: 0x1000CA770, symSize: 0x30 }
  - { offsetInCU: 0x42674, offset: 0x42674, size: 0x8, addend: 0x0, symName: __ZNSt3__1miB7v160006IPKN3vkb14PhysicalDeviceEPS2_EEDTmicldtfp_4baseEcldtfp0_4baseEERKNS_11__wrap_iterIT_EERKNS7_IT0_EE, symObjAddr: 0xC8790, symBinAddr: 0x1000CAFA0, symSize: 0x40 }
  - { offsetInCU: 0x426C0, offset: 0x426C0, size: 0x8, addend: 0x0, symName: __ZNSt3__14moveB7v160006IPN3vkb14PhysicalDeviceES3_EET0_T_S5_S4_, symObjAddr: 0xC8840, symBinAddr: 0x1000CB050, symSize: 0x220 }
  - { offsetInCU: 0x4271D, offset: 0x4271D, size: 0x8, addend: 0x0, symName: __ZNSt3__1miB7v160006IPKN3vkb14PhysicalDeviceES4_EEDTmicldtfp_4baseEcldtfp0_4baseEERKNS_11__wrap_iterIT_EERKNS6_IT0_EE, symObjAddr: 0xC8A60, symBinAddr: 0x1000CB270, symSize: 0x40 }
  - { offsetInCU: 0x42769, offset: 0x42769, size: 0x8, addend: 0x0, symName: __ZNSt3__16__moveB7v160006INS_17_ClassicAlgPolicyEPN3vkb14PhysicalDeviceES4_S4_EENS_4pairIT0_T2_EES6_T1_S7_, symObjAddr: 0xC8B50, symBinAddr: 0x1000CB360, symSize: 0x210 }
  - { offsetInCU: 0x427D8, offset: 0x427D8, size: 0x8, addend: 0x0, symName: __ZNSt3__123__dispatch_copy_or_moveB7v160006INS_17_ClassicAlgPolicyENS_11__move_loopIS1_EENS_14__move_trivialEPN3vkb14PhysicalDeviceES7_S7_EENS_4pairIT2_T4_EES9_T3_SA_, symObjAddr: 0xC8D60, symBinAddr: 0x1000CB570, symSize: 0x210 }
  - { offsetInCU: 0x42859, offset: 0x42859, size: 0x8, addend: 0x0, symName: __ZNSt3__121__unwrap_and_dispatchB7v160006INS_10__overloadINS_11__move_loopINS_17_ClassicAlgPolicyEEENS_14__move_trivialEEEPN3vkb14PhysicalDeviceES9_S9_Li0EEENS_4pairIT0_T2_EESB_T1_SC_, symObjAddr: 0xC8F70, symBinAddr: 0x1000CB780, symSize: 0x650 }
  - { offsetInCU: 0x428F2, offset: 0x428F2, size: 0x8, addend: 0x0, symName: __ZNSt3__114__unwrap_rangeB7v160006IPN3vkb14PhysicalDeviceES3_EEDaT_T0_, symObjAddr: 0xC95C0, symBinAddr: 0x1000CBDD0, symSize: 0x210 }
  - { offsetInCU: 0x42A15, offset: 0x42A15, size: 0x8, addend: 0x0, symName: __ZNSt3__113__unwrap_iterB7v160006IPN3vkb14PhysicalDeviceENS_18__unwrap_iter_implIS3_Lb1EEELi0EEEDTclsrT0_8__unwrapclsr3stdE7declvalIT_EEEES7_, symObjAddr: 0xC9BA0, symBinAddr: 0x1000CC3B0, symSize: 0x20 }
  - { offsetInCU: 0x42A59, offset: 0x42A59, size: 0x8, addend: 0x0, symName: __ZNSt3__19make_pairB7v160006IPN3vkb14PhysicalDeviceES3_EENS_4pairINS_18__unwrap_ref_decayIT_E4typeENS5_IT0_E4typeEEEOS6_OS9_, symObjAddr: 0xC9BC0, symBinAddr: 0x1000CC3D0, symSize: 0x190 }
  - { offsetInCU: 0x42AAA, offset: 0x42AAA, size: 0x8, addend: 0x0, symName: __ZNSt3__114__rewrap_rangeB7v160006IPN3vkb14PhysicalDeviceES3_S3_EET0_S4_T1_, symObjAddr: 0xC9D50, symBinAddr: 0x1000CC560, symSize: 0x30 }
  - { offsetInCU: 0x42AFF, offset: 0x42AFF, size: 0x8, addend: 0x0, symName: __ZNSt3__113__rewrap_iterB7v160006IPN3vkb14PhysicalDeviceES3_NS_18__unwrap_iter_implIS3_Lb1EEEEET_S6_T0_, symObjAddr: 0xC9D80, symBinAddr: 0x1000CC590, symSize: 0x50 }
  - { offsetInCU: 0x42C1D, offset: 0x42C1D, size: 0x8, addend: 0x0, symName: __ZNSt3__1eqB7v160006IPN3vkb14PhysicalDeviceEEEbRKNS_11__wrap_iterIT_EES8_, symObjAddr: 0xCA300, symBinAddr: 0x1000CCB10, symSize: 0x40 }
  - { offsetInCU: 0x42C61, offset: 0x42C61, size: 0x8, addend: 0x0, symName: __ZNSt3__118__debug_db_erase_cB7v160006INS_6vectorIP18VkPhysicalDevice_TNS_9allocatorIS3_EEEEEEvPT_, symObjAddr: 0xCA810, symBinAddr: 0x1000CD020, symSize: 0x10 }
  - { offsetInCU: 0x42C92, offset: 0x42C92, size: 0x8, addend: 0x0, symName: __ZNSt3__112__to_addressB7v160006IP18VkPhysicalDevice_TEEPT_S4_, symObjAddr: 0xCA9F0, symBinAddr: 0x1000CD200, symSize: 0x10 }
  - { offsetInCU: 0x42CC8, offset: 0x42CC8, size: 0x8, addend: 0x0, symName: __ZNSt3__110destroy_atB7v160006IP18VkPhysicalDevice_TLi0EEEvPT_, symObjAddr: 0xCAB10, symBinAddr: 0x1000CD320, symSize: 0x20 }
  - { offsetInCU: 0x42D00, offset: 0x42D00, size: 0x8, addend: 0x0, symName: __ZNSt3__112__destroy_atB7v160006IP18VkPhysicalDevice_TLi0EEEvPT_, symObjAddr: 0xCAB30, symBinAddr: 0x1000CD340, symSize: 0x10 }
  - { offsetInCU: 0x42D38, offset: 0x42D38, size: 0x8, addend: 0x0, symName: __ZNSt3__120__throw_out_of_rangeB7v160006EPKc, symObjAddr: 0xCAC30, symBinAddr: 0x1000CD440, symSize: 0x70 }
  - { offsetInCU: 0x42D62, offset: 0x42D62, size: 0x8, addend: 0x0, symName: __ZNSt3__1eqB7v160006IPKN3vkb14PhysicalDeviceEEEbRKNS_11__wrap_iterIT_EES9_, symObjAddr: 0xCAF50, symBinAddr: 0x1000CD760, symSize: 0x40 }
  - { offsetInCU: 0x42DA5, offset: 0x42DA5, size: 0x8, addend: 0x0, symName: __ZNSt3__122__make_exception_guardB7v160006INS_6vectorI23VkQueueFamilyPropertiesNS_9allocatorIS2_EEE16__destroy_vectorEEENS_28__exception_guard_exceptionsIT_EES8_, symObjAddr: 0xCB450, symBinAddr: 0x1000CDC60, symSize: 0x1F0 }
  - { offsetInCU: 0x42DDE, offset: 0x42DDE, size: 0x8, addend: 0x0, symName: __ZNSt3__122__make_exception_guardB7v160006INS_6vectorINS_12basic_stringIcNS_11char_traitsIcEENS_9allocatorIcEEEENS5_IS7_EEE16__destroy_vectorEEENS_28__exception_guard_exceptionsIT_EESC_, symObjAddr: 0xCBFB0, symBinAddr: 0x1000CE7C0, symSize: 0x1F0 }
  - { offsetInCU: 0x42E17, offset: 0x42E17, size: 0x8, addend: 0x0, symName: __ZNSt3__130__uninitialized_allocator_copyB7v160006INS_9allocatorINS_12basic_stringIcNS_11char_traitsIcEENS1_IcEEEEEEPS6_S8_S8_EET2_RT_T0_T1_S9_, symObjAddr: 0xCCCC0, symBinAddr: 0x1000CF4D0, symSize: 0x550 }
  - { offsetInCU: 0x42EC4, offset: 0x42EC4, size: 0x8, addend: 0x0, symName: __ZNSt3__119__debug_db_insert_cB7v160006INS_6vectorIfNS_9allocatorIfEEEEEEvPT_, symObjAddr: 0xE4010, symBinAddr: 0x1000E6820, symSize: 0x10 }
  - { offsetInCU: 0x42EF6, offset: 0x42EF6, size: 0x8, addend: 0x0, symName: __ZNSt3__115__debug_db_swapB7v160006INS_6vectorIfNS_9allocatorIfEEEEEEvPT_S6_, symObjAddr: 0xE4020, symBinAddr: 0x1000E6830, symSize: 0x10 }
  - { offsetInCU: 0x42F36, offset: 0x42F36, size: 0x8, addend: 0x0, symName: __ZNSt3__119__debug_db_insert_cB7v160006INS_6vectorIN3vkb22CustomQueueDescriptionENS_9allocatorIS3_EEEEEEvPT_, symObjAddr: 0xE4ED0, symBinAddr: 0x1000E76E0, symSize: 0x10 }
  - { offsetInCU: 0x42F67, offset: 0x42F67, size: 0x8, addend: 0x0, symName: __ZNSt3__1miB7v160006IPKN3vkb22CustomQueueDescriptionEPS2_EEDTmicldtfp_4baseEcldtfp0_4baseEERKNS_11__wrap_iterIT_EERKNS7_IT0_EE, symObjAddr: 0xE4FC0, symBinAddr: 0x1000E77D0, symSize: 0x40 }
  - { offsetInCU: 0x42FB3, offset: 0x42FB3, size: 0x8, addend: 0x0, symName: __ZNSt3__18distanceB7v160006INS_11__wrap_iterIPKN3vkb22CustomQueueDescriptionEEEEENS_15iterator_traitsIT_E15difference_typeES8_S8_, symObjAddr: 0xE5000, symBinAddr: 0x1000E7810, symSize: 0x2C0 }
  - { offsetInCU: 0x42FFE, offset: 0x42FFE, size: 0x8, addend: 0x0, symName: __ZNSt3__14copyB7v160006INS_11__wrap_iterIPKN3vkb22CustomQueueDescriptionEEEPS3_EET0_T_S9_S8_, symObjAddr: 0xE5BF0, symBinAddr: 0x1000E8400, symSize: 0x3F0 }
  - { offsetInCU: 0x43061, offset: 0x43061, size: 0x8, addend: 0x0, symName: __ZNSt3__110__distanceB7v160006INS_11__wrap_iterIPKN3vkb22CustomQueueDescriptionEEEEENS_15iterator_traitsIT_E15difference_typeES8_S8_NS_26random_access_iterator_tagE, symObjAddr: 0xE7380, symBinAddr: 0x1000E9B90, symSize: 0x1E0 }
  - { offsetInCU: 0x430B8, offset: 0x430B8, size: 0x8, addend: 0x0, symName: __ZNSt3__1miB7v160006IPKN3vkb22CustomQueueDescriptionES4_EEDTmicldtfp_4baseEcldtfp0_4baseEERKNS_11__wrap_iterIT_EERKNS6_IT0_EE, symObjAddr: 0xE7560, symBinAddr: 0x1000E9D70, symSize: 0x40 }
  - { offsetInCU: 0x43105, offset: 0x43105, size: 0x8, addend: 0x0, symName: __ZNSt3__19__advanceB7v160006INS_11__wrap_iterIPKN3vkb22CustomQueueDescriptionEEEEEvRT_NS_15iterator_traitsIS7_E15difference_typeENS_26random_access_iterator_tagE, symObjAddr: 0xE75D0, symBinAddr: 0x1000E9DE0, symSize: 0x30 }
  - { offsetInCU: 0x4314F, offset: 0x4314F, size: 0x8, addend: 0x0, symName: __ZNSt3__130__uninitialized_allocator_copyB7v160006INS_9allocatorIN3vkb22CustomQueueDescriptionEEENS_11__wrap_iterIPKS3_EES8_PS3_EET2_RT_T0_T1_SA_, symObjAddr: 0xE7690, symBinAddr: 0x1000E9EA0, symSize: 0x5F0 }
  - { offsetInCU: 0x43203, offset: 0x43203, size: 0x8, addend: 0x0, symName: __ZNSt3__112__to_addressB7v160006IN3vkb22CustomQueueDescriptionEEEPT_S4_, symObjAddr: 0xE8040, symBinAddr: 0x1000EA850, symSize: 0x10 }
  - { offsetInCU: 0x43238, offset: 0x43238, size: 0x8, addend: 0x0, symName: __ZNSt3__122__make_exception_guardB7v160006INS_29_AllocatorDestroyRangeReverseINS_9allocatorIN3vkb22CustomQueueDescriptionEEEPS4_EEEENS_28__exception_guard_exceptionsIT_EES9_, symObjAddr: 0xE80A0, symBinAddr: 0x1000EA8B0, symSize: 0x2A0 }
  - { offsetInCU: 0x43271, offset: 0x43271, size: 0x8, addend: 0x0, symName: __ZNSt3__1neB7v160006IPKN3vkb22CustomQueueDescriptionEEEbRKNS_11__wrap_iterIT_EES9_, symObjAddr: 0xE8380, symBinAddr: 0x1000EAB90, symSize: 0x30 }
  - { offsetInCU: 0x432B4, offset: 0x432B4, size: 0x8, addend: 0x0, symName: __ZNSt3__1eqB7v160006IPKN3vkb22CustomQueueDescriptionEEEbRKNS_11__wrap_iterIT_EES9_, symObjAddr: 0xE8A30, symBinAddr: 0x1000EB240, symSize: 0x40 }
  - { offsetInCU: 0x4331E, offset: 0x4331E, size: 0x8, addend: 0x0, symName: __ZNSt3__112construct_atB7v160006IN3vkb22CustomQueueDescriptionEJRKS2_EPS2_EEPT_S7_DpOT0_, symObjAddr: 0xE8A70, symBinAddr: 0x1000EB280, symSize: 0x40 }
  - { offsetInCU: 0x43390, offset: 0x43390, size: 0x8, addend: 0x0, symName: __ZNSt3__122__make_exception_guardB7v160006INS_6vectorIfNS_9allocatorIfEEE16__destroy_vectorEEENS_28__exception_guard_exceptionsIT_EES7_, symObjAddr: 0xE90C0, symBinAddr: 0x1000EB8D0, symSize: 0x1F0 }
  - { offsetInCU: 0x433C9, offset: 0x433C9, size: 0x8, addend: 0x0, symName: __ZNSt3__119__allocate_at_leastB7v160006INS_9allocatorIfEEEENS_19__allocation_resultINS_16allocator_traitsIT_E7pointerEEERS5_m, symObjAddr: 0xEA120, symBinAddr: 0x1000EC930, symSize: 0x210 }
  - { offsetInCU: 0x4340E, offset: 0x4340E, size: 0x8, addend: 0x0, symName: __ZNSt3__112__to_addressB7v160006IfEEPT_S2_, symObjAddr: 0xEA590, symBinAddr: 0x1000ECDA0, symSize: 0x10 }
  - { offsetInCU: 0x43443, offset: 0x43443, size: 0x8, addend: 0x0, symName: __ZNSt3__130__uninitialized_allocator_copyB7v160006INS_9allocatorIfEEPfS3_S3_EET2_RT_T0_T1_S4_, symObjAddr: 0xEA620, symBinAddr: 0x1000ECE30, symSize: 0x550 }
  - { offsetInCU: 0x434EF, offset: 0x434EF, size: 0x8, addend: 0x0, symName: __ZNSt3__122__make_exception_guardB7v160006INS_29_AllocatorDestroyRangeReverseINS_9allocatorIfEEPfEEEENS_28__exception_guard_exceptionsIT_EES7_, symObjAddr: 0xEAE00, symBinAddr: 0x1000ED610, symSize: 0x2A0 }
  - { offsetInCU: 0x4354F, offset: 0x4354F, size: 0x8, addend: 0x0, symName: __ZNSt3__112construct_atB7v160006IfJRfEPfEEPT_S4_DpOT0_, symObjAddr: 0xEB6C0, symBinAddr: 0x1000EDED0, symSize: 0xD0 }
  - { offsetInCU: 0x435C1, offset: 0x435C1, size: 0x8, addend: 0x0, symName: __ZNSt3__119__allocator_destroyB7v160006INS_9allocatorIfEENS_16reverse_iteratorIPfEES5_EEvRT_T0_T1_, symObjAddr: 0xEBBA0, symBinAddr: 0x1000EE3B0, symSize: 0x2B0 }
  - { offsetInCU: 0x4362D, offset: 0x4362D, size: 0x8, addend: 0x0, symName: __ZNSt3__1neB7v160006IPfS1_EEbRKNS_16reverse_iteratorIT_EERKNS2_IT0_EE, symObjAddr: 0xEBE80, symBinAddr: 0x1000EE690, symSize: 0x40 }
  - { offsetInCU: 0x43679, offset: 0x43679, size: 0x8, addend: 0x0, symName: __ZNSt3__112__to_addressB7v160006INS_16reverse_iteratorIPfEEvEENS_5decayIDTclsr19__to_address_helperIT_EE6__callclsr3stdE7declvalIRKS5_EEEEE4typeES7_, symObjAddr: 0xEBEE0, symBinAddr: 0x1000EE6F0, symSize: 0x20 }
  - { offsetInCU: 0x436B0, offset: 0x436B0, size: 0x8, addend: 0x0, symName: __ZNSt3__110destroy_atB7v160006IfLi0EEEvPT_, symObjAddr: 0xEBFB0, symBinAddr: 0x1000EE7C0, symSize: 0x20 }
  - { offsetInCU: 0x436E8, offset: 0x436E8, size: 0x8, addend: 0x0, symName: __ZNSt3__112__destroy_atB7v160006IfLi0EEEvPT_, symObjAddr: 0xEBFD0, symBinAddr: 0x1000EE7E0, symSize: 0x10 }
  - { offsetInCU: 0x43749, offset: 0x43749, size: 0x8, addend: 0x0, symName: __ZNSt3__14prevB7v160006IPfEENS_9enable_ifIXsr25__is_cpp17_input_iteratorIT_EE5valueES3_E4typeES3_NS_15iterator_traitsIS3_E15difference_typeE, symObjAddr: 0xEC080, symBinAddr: 0x1000EE890, symSize: 0x1E0 }
  - { offsetInCU: 0x43792, offset: 0x43792, size: 0x8, addend: 0x0, symName: __ZNSt3__19__advanceB7v160006IPfEEvRT_NS_15iterator_traitsIS2_E15difference_typeENS_26random_access_iterator_tagE, symObjAddr: 0xEC2B0, symBinAddr: 0x1000EEAC0, symSize: 0x60 }
  - { offsetInCU: 0x437DD, offset: 0x437DD, size: 0x8, addend: 0x0, symName: __ZNSt3__118__debug_db_erase_cB7v160006INS_6vectorIfNS_9allocatorIfEEEEEEvPT_, symObjAddr: 0xEC9E0, symBinAddr: 0x1000EF1F0, symSize: 0x10 }
  - { offsetInCU: 0x4380E, offset: 0x4380E, size: 0x8, addend: 0x0, symName: __ZNSt3__119__allocator_destroyB7v160006INS_9allocatorIN3vkb22CustomQueueDescriptionEEENS_16reverse_iteratorIPS3_EES7_EEvRT_T0_T1_, symObjAddr: 0xECFC0, symBinAddr: 0x1000EF7D0, symSize: 0x2B0 }
  - { offsetInCU: 0x4387A, offset: 0x4387A, size: 0x8, addend: 0x0, symName: __ZNSt3__1neB7v160006IPN3vkb22CustomQueueDescriptionES3_EEbRKNS_16reverse_iteratorIT_EERKNS4_IT0_EE, symObjAddr: 0xED2A0, symBinAddr: 0x1000EFAB0, symSize: 0x40 }
  - { offsetInCU: 0x438C6, offset: 0x438C6, size: 0x8, addend: 0x0, symName: __ZNSt3__112__to_addressB7v160006INS_16reverse_iteratorIPN3vkb22CustomQueueDescriptionEEEvEENS_5decayIDTclsr19__to_address_helperIT_EE6__callclsr3stdE7declvalIRKS7_EEEEE4typeES9_, symObjAddr: 0xED300, symBinAddr: 0x1000EFB10, symSize: 0x20 }
  - { offsetInCU: 0x438FD, offset: 0x438FD, size: 0x8, addend: 0x0, symName: __ZNSt3__110destroy_atB7v160006IN3vkb22CustomQueueDescriptionELi0EEEvPT_, symObjAddr: 0xED3D0, symBinAddr: 0x1000EFBE0, symSize: 0x20 }
  - { offsetInCU: 0x43935, offset: 0x43935, size: 0x8, addend: 0x0, symName: __ZNSt3__112__destroy_atB7v160006IN3vkb22CustomQueueDescriptionELi0EEEvPT_, symObjAddr: 0xED3F0, symBinAddr: 0x1000EFC00, symSize: 0x20 }
  - { offsetInCU: 0x43996, offset: 0x43996, size: 0x8, addend: 0x0, symName: __ZNSt3__14prevB7v160006IPN3vkb22CustomQueueDescriptionEEENS_9enable_ifIXsr25__is_cpp17_input_iteratorIT_EE5valueES5_E4typeES5_NS_15iterator_traitsIS5_E15difference_typeE, symObjAddr: 0xED4F0, symBinAddr: 0x1000EFD00, symSize: 0x1E0 }
  - { offsetInCU: 0x439DF, offset: 0x439DF, size: 0x8, addend: 0x0, symName: __ZNSt3__19__advanceB7v160006IPN3vkb22CustomQueueDescriptionEEEvRT_NS_15iterator_traitsIS4_E15difference_typeENS_26random_access_iterator_tagE, symObjAddr: 0xED720, symBinAddr: 0x1000EFF30, symSize: 0x60 }
  - { offsetInCU: 0x43A29, offset: 0x43A29, size: 0x8, addend: 0x0, symName: __ZNSt3__113move_backwardB7v160006IPN3vkb22CustomQueueDescriptionES3_EET0_T_S5_S4_, symObjAddr: 0xEDB30, symBinAddr: 0x1000F0340, symSize: 0x220 }
  - { offsetInCU: 0x43A86, offset: 0x43A86, size: 0x8, addend: 0x0, symName: __ZNSt3__112construct_atB7v160006IN3vkb22CustomQueueDescriptionEJS2_EPS2_EEPT_S5_DpOT0_, symObjAddr: 0xEDD50, symBinAddr: 0x1000F0560, symSize: 0x40 }
  - { offsetInCU: 0x43AF8, offset: 0x43AF8, size: 0x8, addend: 0x0, symName: __ZNSt3__115__move_backwardB7v160006INS_17_ClassicAlgPolicyEPN3vkb22CustomQueueDescriptionES4_S4_EENS_4pairIT0_T2_EES6_T1_S7_, symObjAddr: 0xEDE90, symBinAddr: 0x1000F06A0, symSize: 0x210 }
  - { offsetInCU: 0x43B67, offset: 0x43B67, size: 0x8, addend: 0x0, symName: __ZNSt3__123__dispatch_copy_or_moveB7v160006INS_17_ClassicAlgPolicyENS_20__move_backward_loopIS1_EENS_23__move_backward_trivialEPN3vkb22CustomQueueDescriptionES7_S7_EENS_4pairIT2_T4_EES9_T3_SA_, symObjAddr: 0xEE0A0, symBinAddr: 0x1000F08B0, symSize: 0x210 }
  - { offsetInCU: 0x43BE8, offset: 0x43BE8, size: 0x8, addend: 0x0, symName: __ZNSt3__121__unwrap_and_dispatchB7v160006INS_10__overloadINS_20__move_backward_loopINS_17_ClassicAlgPolicyEEENS_23__move_backward_trivialEEEPN3vkb22CustomQueueDescriptionES9_S9_Li0EEENS_4pairIT0_T2_EESB_T1_SC_, symObjAddr: 0xEE2B0, symBinAddr: 0x1000F0AC0, symSize: 0x650 }
  - { offsetInCU: 0x43C81, offset: 0x43C81, size: 0x8, addend: 0x0, symName: __ZNSt3__114__unwrap_rangeB7v160006IPN3vkb22CustomQueueDescriptionES3_EEDaT_T0_, symObjAddr: 0xEE900, symBinAddr: 0x1000F1110, symSize: 0x210 }
  - { offsetInCU: 0x43DA4, offset: 0x43DA4, size: 0x8, addend: 0x0, symName: __ZNSt3__113__unwrap_iterB7v160006IPN3vkb22CustomQueueDescriptionENS_18__unwrap_iter_implIS3_Lb1EEELi0EEEDTclsrT0_8__unwrapclsr3stdE7declvalIT_EEEES7_, symObjAddr: 0xEEFA0, symBinAddr: 0x1000F17B0, symSize: 0x20 }
  - { offsetInCU: 0x43DE8, offset: 0x43DE8, size: 0x8, addend: 0x0, symName: __ZNSt3__19make_pairB7v160006IPN3vkb22CustomQueueDescriptionES3_EENS_4pairINS_18__unwrap_ref_decayIT_E4typeENS5_IT0_E4typeEEEOS6_OS9_, symObjAddr: 0xEEFC0, symBinAddr: 0x1000F17D0, symSize: 0x190 }
  - { offsetInCU: 0x43E39, offset: 0x43E39, size: 0x8, addend: 0x0, symName: __ZNSt3__114__rewrap_rangeB7v160006IPN3vkb22CustomQueueDescriptionES3_S3_EET0_S4_T1_, symObjAddr: 0xEF150, symBinAddr: 0x1000F1960, symSize: 0x30 }
  - { offsetInCU: 0x43E8E, offset: 0x43E8E, size: 0x8, addend: 0x0, symName: __ZNSt3__113__rewrap_iterB7v160006IPN3vkb22CustomQueueDescriptionES3_NS_18__unwrap_iter_implIS3_Lb1EEEEET_S6_T0_, symObjAddr: 0xEF180, symBinAddr: 0x1000F1990, symSize: 0x50 }
  - { offsetInCU: 0x43F59, offset: 0x43F59, size: 0x8, addend: 0x0, symName: __ZNSt3__125__debug_db_invalidate_allB7v160006INS_6vectorIfNS_9allocatorIfEEEEEEvPT_, symObjAddr: 0xEFB60, symBinAddr: 0x1000F2370, symSize: 0x10 }
  - { offsetInCU: 0x43FDE, offset: 0x43FDE, size: 0x8, addend: 0x0, symName: __ZNSt3__16__copyB7v160006INS_17_ClassicAlgPolicyENS_11__wrap_iterIPKN3vkb22CustomQueueDescriptionEEES7_PS4_EENS_4pairIT0_T2_EESA_T1_SB_, symObjAddr: 0xEFC40, symBinAddr: 0x1000F2450, symSize: 0x3E0 }
  - { offsetInCU: 0x44053, offset: 0x44053, size: 0x8, addend: 0x0, symName: __ZNSt3__123__dispatch_copy_or_moveB7v160006INS_17_ClassicAlgPolicyENS_11__copy_loopIS1_EENS_14__copy_trivialENS_11__wrap_iterIPKN3vkb22CustomQueueDescriptionEEESA_PS7_EENS_4pairIT2_T4_EESD_T3_SE_, symObjAddr: 0xF0020, symBinAddr: 0x1000F2830, symSize: 0x3E0 }
  - { offsetInCU: 0x440DA, offset: 0x440DA, size: 0x8, addend: 0x0, symName: __ZNSt3__121__unwrap_and_dispatchB7v160006INS_10__overloadINS_11__copy_loopINS_17_ClassicAlgPolicyEEENS_14__copy_trivialEEENS_11__wrap_iterIPKN3vkb22CustomQueueDescriptionEEESC_PS9_Li0EEENS_4pairIT0_T2_EESF_T1_SG_, symObjAddr: 0xF0400, symBinAddr: 0x1000F2C10, symSize: 0x840 }
  - { offsetInCU: 0x4417B, offset: 0x4417B, size: 0x8, addend: 0x0, symName: __ZNSt3__114__unwrap_rangeB7v160006INS_11__wrap_iterIPKN3vkb22CustomQueueDescriptionEEES6_EEDaT_T0_, symObjAddr: 0xF0C40, symBinAddr: 0x1000F3450, symSize: 0x3A0 }
  - { offsetInCU: 0x442A4, offset: 0x442A4, size: 0x8, addend: 0x0, symName: __ZNSt3__19make_pairB7v160006INS_11__wrap_iterIPKN3vkb22CustomQueueDescriptionEEEPS3_EENS_4pairINS_18__unwrap_ref_decayIT_E4typeENS9_IT0_E4typeEEEOSA_OSD_, symObjAddr: 0xF13D0, symBinAddr: 0x1000F3BE0, symSize: 0x190 }
  - { offsetInCU: 0x442F5, offset: 0x442F5, size: 0x8, addend: 0x0, symName: __ZNSt3__114__rewrap_rangeB7v160006INS_11__wrap_iterIPKN3vkb22CustomQueueDescriptionEEES6_S5_EET0_S7_T1_, symObjAddr: 0xF1560, symBinAddr: 0x1000F3D70, symSize: 0x280 }
  - { offsetInCU: 0x4446C, offset: 0x4446C, size: 0x8, addend: 0x0, symName: __ZNSt3__113__unwrap_iterB7v160006INS_11__wrap_iterIPKN3vkb22CustomQueueDescriptionEEENS_18__unwrap_iter_implIS6_Lb1EEELi0EEEDTclsrT0_8__unwrapclsr3stdE7declvalIT_EEEESA_, symObjAddr: 0xF1BE0, symBinAddr: 0x1000F43F0, symSize: 0x1E0 }
  - { offsetInCU: 0x44508, offset: 0x44508, size: 0x8, addend: 0x0, symName: __ZNSt3__112__to_addressB7v160006INS_11__wrap_iterIPKN3vkb22CustomQueueDescriptionEEEvEENS_5decayIDTclsr19__to_address_helperIT_EE6__callclsr3stdE7declvalIRKS8_EEEEE4typeESA_, symObjAddr: 0xF1F70, symBinAddr: 0x1000F4780, symSize: 0x20 }
  - { offsetInCU: 0x445E8, offset: 0x445E8, size: 0x8, addend: 0x0, symName: __ZNSt3__112__to_addressB7v160006IKN3vkb22CustomQueueDescriptionEEEPT_S5_, symObjAddr: 0xF2290, symBinAddr: 0x1000F4AA0, symSize: 0x10 }
  - { offsetInCU: 0x4461D, offset: 0x4461D, size: 0x8, addend: 0x0, symName: __ZNSt3__19make_pairB7v160006IPKN3vkb22CustomQueueDescriptionEPS2_EENS_4pairINS_18__unwrap_ref_decayIT_E4typeENS7_IT0_E4typeEEEOS8_OSB_, symObjAddr: 0xF2490, symBinAddr: 0x1000F4CA0, symSize: 0x190 }
  - { offsetInCU: 0x4466E, offset: 0x4466E, size: 0x8, addend: 0x0, symName: __ZNSt3__18distanceB7v160006IPfEENS_15iterator_traitsIT_E15difference_typeES3_S3_, symObjAddr: 0xF2B00, symBinAddr: 0x1000F5310, symSize: 0x30 }
  - { offsetInCU: 0x446B1, offset: 0x446B1, size: 0x8, addend: 0x0, symName: __ZNSt3__14copyB7v160006IPfS1_EET0_T_S3_S2_, symObjAddr: 0xF2B80, symBinAddr: 0x1000F5390, symSize: 0x220 }
  - { offsetInCU: 0x4470E, offset: 0x4470E, size: 0x8, addend: 0x0, symName: __ZNSt3__110__distanceB7v160006IPfEENS_15iterator_traitsIT_E15difference_typeES3_S3_NS_26random_access_iterator_tagE, symObjAddr: 0xF3100, symBinAddr: 0x1000F5910, symSize: 0x20 }
  - { offsetInCU: 0x4475C, offset: 0x4475C, size: 0x8, addend: 0x0, symName: __ZNSt3__16__copyB7v160006INS_17_ClassicAlgPolicyEPfS2_S2_EENS_4pairIT0_T2_EES4_T1_S5_, symObjAddr: 0xF3120, symBinAddr: 0x1000F5930, symSize: 0x210 }
  - { offsetInCU: 0x447CB, offset: 0x447CB, size: 0x8, addend: 0x0, symName: __ZNSt3__123__dispatch_copy_or_moveB7v160006INS_17_ClassicAlgPolicyENS_11__copy_loopIS1_EENS_14__copy_trivialEPfS5_S5_EENS_4pairIT2_T4_EES7_T3_S8_, symObjAddr: 0xF3330, symBinAddr: 0x1000F5B40, symSize: 0x210 }
  - { offsetInCU: 0x4484C, offset: 0x4484C, size: 0x8, addend: 0x0, symName: __ZNSt3__121__unwrap_and_dispatchB7v160006INS_10__overloadINS_11__copy_loopINS_17_ClassicAlgPolicyEEENS_14__copy_trivialEEEPfS7_S7_Li0EEENS_4pairIT0_T2_EES9_T1_SA_, symObjAddr: 0xF3540, symBinAddr: 0x1000F5D50, symSize: 0x650 }
  - { offsetInCU: 0x448E5, offset: 0x448E5, size: 0x8, addend: 0x0, symName: __ZNSt3__114__unwrap_rangeB7v160006IPfS1_EEDaT_T0_, symObjAddr: 0xF3B90, symBinAddr: 0x1000F63A0, symSize: 0x210 }
  - { offsetInCU: 0x44A38, offset: 0x44A38, size: 0x8, addend: 0x0, symName: __ZNSt3__113__unwrap_iterB7v160006IPfNS_18__unwrap_iter_implIS1_Lb1EEELi0EEEDTclsrT0_8__unwrapclsr3stdE7declvalIT_EEEES5_, symObjAddr: 0xF3FB0, symBinAddr: 0x1000F67C0, symSize: 0x20 }
  - { offsetInCU: 0x44A7C, offset: 0x44A7C, size: 0x8, addend: 0x0, symName: __ZNSt3__19make_pairB7v160006IPfS1_EENS_4pairINS_18__unwrap_ref_decayIT_E4typeENS3_IT0_E4typeEEEOS4_OS7_, symObjAddr: 0xF3FD0, symBinAddr: 0x1000F67E0, symSize: 0x190 }
  - { offsetInCU: 0x44ACD, offset: 0x44ACD, size: 0x8, addend: 0x0, symName: __ZNSt3__114__rewrap_rangeB7v160006IPfS1_S1_EET0_S2_T1_, symObjAddr: 0xF4160, symBinAddr: 0x1000F6970, symSize: 0x30 }
  - { offsetInCU: 0x44B22, offset: 0x44B22, size: 0x8, addend: 0x0, symName: __ZNSt3__113__rewrap_iterB7v160006IPfS1_NS_18__unwrap_iter_implIS1_Lb1EEEEET_S4_T0_, symObjAddr: 0xF4190, symBinAddr: 0x1000F69A0, symSize: 0x50 }
  - { offsetInCU: 0x44BC7, offset: 0x44BC7, size: 0x8, addend: 0x0, symName: __ZNSt3__119__copy_trivial_implB7v160006IffEENS_4pairIPT_PT0_EES3_S3_S5_, symObjAddr: 0xF4590, symBinAddr: 0x1000F6DA0, symSize: 0x350 }
  - { offsetInCU: 0x44C36, offset: 0x44C36, size: 0x8, addend: 0x0, symName: __ZNSt3__19make_pairB7v160006IRPfS1_EENS_4pairINS_18__unwrap_ref_decayIT_E4typeENS4_IT0_E4typeEEEOS5_OS8_, symObjAddr: 0xF48E0, symBinAddr: 0x1000F70F0, symSize: 0x190 }
  - { offsetInCU: 0x44DB0, offset: 0x44DB0, size: 0x8, addend: 0x0, symName: __ZNSt3__113__rewrap_iterB7v160006INS_11__wrap_iterIPKN3vkb22CustomQueueDescriptionEEES5_NS_18__unwrap_iter_implIS6_Lb1EEEEET_S9_T0_, symObjAddr: 0xF5100, symBinAddr: 0x1000F7910, symSize: 0x290 }
  - { offsetInCU: 0x44E0A, offset: 0x44E0A, size: 0x8, addend: 0x0, symName: __ZNSt3__119__allocate_at_leastB7v160006INS_9allocatorIN3vkb22CustomQueueDescriptionEEEEENS_19__allocation_resultINS_16allocator_traitsIT_E7pointerEEERS7_m, symObjAddr: 0xF5F60, symBinAddr: 0x1000F8770, symSize: 0x210 }
  - { offsetInCU: 0x44E4F, offset: 0x44E4F, size: 0x8, addend: 0x0, symName: __ZNSt3__142__uninitialized_allocator_move_if_noexceptB7v160006INS_9allocatorIN3vkb22CustomQueueDescriptionEEENS_16reverse_iteratorIPS3_EES7_S7_EET2_RT_T0_T1_S8_, symObjAddr: 0xF6670, symBinAddr: 0x1000F8E80, symSize: 0x660 }
  - { offsetInCU: 0x44F04, offset: 0x44F04, size: 0x8, addend: 0x0, symName: __ZNSt3__142__uninitialized_allocator_move_if_noexceptB7v160006INS_9allocatorIN3vkb22CustomQueueDescriptionEEEPS3_S5_S5_EET2_RT_T0_T1_S6_, symObjAddr: 0xF6CD0, symBinAddr: 0x1000F94E0, symSize: 0x550 }
  - { offsetInCU: 0x44FB0, offset: 0x44FB0, size: 0x8, addend: 0x0, symName: __ZNSt3__14swapB7v160006IPN3vkb22CustomQueueDescriptionEEENS_9enable_ifIXaasr21is_move_constructibleIT_EE5valuesr18is_move_assignableIS5_EE5valueEvE4typeERS5_S8_, symObjAddr: 0xF7220, symBinAddr: 0x1000F9A30, symSize: 0x100 }
  - { offsetInCU: 0x45002, offset: 0x45002, size: 0x8, addend: 0x0, symName: __ZNSt3__125__debug_db_invalidate_allB7v160006INS_6vectorIN3vkb22CustomQueueDescriptionENS_9allocatorIS3_EEEEEEvPT_, symObjAddr: 0xF73E0, symBinAddr: 0x1000F9BF0, symSize: 0x10 }
  - { offsetInCU: 0x45033, offset: 0x45033, size: 0x8, addend: 0x0, symName: __ZNSt3__122__make_exception_guardB7v160006INS_29_AllocatorDestroyRangeReverseINS_9allocatorIN3vkb22CustomQueueDescriptionEEENS_16reverse_iteratorIPS4_EEEEEENS_28__exception_guard_exceptionsIT_EESB_, symObjAddr: 0xF73F0, symBinAddr: 0x1000F9C00, symSize: 0x2A0 }
  - { offsetInCU: 0x4506C, offset: 0x4506C, size: 0x8, addend: 0x0, symName: __ZNSt3__119__allocator_destroyB7v160006INS_9allocatorIN3vkb22CustomQueueDescriptionEEENS_16reverse_iteratorINS5_IPS3_EEEES8_EEvRT_T0_T1_, symObjAddr: 0xF82A0, symBinAddr: 0x1000FAAB0, symSize: 0x220 }
  - { offsetInCU: 0x450D8, offset: 0x450D8, size: 0x8, addend: 0x0, symName: __ZNSt3__1neB7v160006INS_16reverse_iteratorIPN3vkb22CustomQueueDescriptionEEES5_EEbRKNS1_IT_EERKNS1_IT0_EE, symObjAddr: 0xF86F0, symBinAddr: 0x1000FAF00, symSize: 0x2C0 }
  - { offsetInCU: 0x45126, offset: 0x45126, size: 0x8, addend: 0x0, symName: __ZNSt3__112__to_addressB7v160006INS_16reverse_iteratorINS1_IPN3vkb22CustomQueueDescriptionEEEEEvEENS_5decayIDTclsr19__to_address_helperIT_EE6__callclsr3stdE7declvalIRKS8_EEEEE4typeESA_, symObjAddr: 0xF89B0, symBinAddr: 0x1000FB1C0, symSize: 0x20 }
  - { offsetInCU: 0x45186, offset: 0x45186, size: 0x8, addend: 0x0, symName: __ZNSt3__14prevB7v160006INS_16reverse_iteratorIPN3vkb22CustomQueueDescriptionEEEEENS_9enable_ifIXsr25__is_cpp17_input_iteratorIT_EE5valueES7_E4typeES7_NS_15iterator_traitsIS7_E15difference_typeE, symObjAddr: 0xF8E50, symBinAddr: 0x1000FB660, symSize: 0x260 }
  - { offsetInCU: 0x451CF, offset: 0x451CF, size: 0x8, addend: 0x0, symName: __ZNSt3__19__advanceB7v160006INS_16reverse_iteratorIPN3vkb22CustomQueueDescriptionEEEEEvRT_NS_15iterator_traitsIS6_E15difference_typeENS_26random_access_iterator_tagE, symObjAddr: 0xF9100, symBinAddr: 0x1000FB910, symSize: 0x30 }
  - { offsetInCU: 0x45219, offset: 0x45219, size: 0x8, addend: 0x0, symName: __ZNSt3__112construct_atB7v160006IN3vkb22CustomQueueDescriptionEJRjNS_6vectorIfNS_9allocatorIfEEEEEPS2_EEPT_SA_DpOT0_, symObjAddr: 0xFA140, symBinAddr: 0x1000FC950, symSize: 0x1F0 }
  - { offsetInCU: 0x452A2, offset: 0x452A2, size: 0x8, addend: 0x0, symName: __ZNSt3__130__uninitialized_allocator_copyB7v160006INS_9allocatorIfEEffLPv0EEEPT0_RT_PKS4_S9_S5_, symObjAddr: 0xFB3D0, symBinAddr: 0x1000FDBE0, symSize: 0x30 }
  - { offsetInCU: 0x4531B, offset: 0x4531B, size: 0x8, addend: 0x0, symName: __ZNSt3__14copyB7v160006IPKfPfEET0_T_S5_S4_, symObjAddr: 0xFB400, symBinAddr: 0x1000FDC10, symSize: 0x220 }
  - { offsetInCU: 0x45378, offset: 0x45378, size: 0x8, addend: 0x0, symName: __ZNSt3__16__copyB7v160006INS_17_ClassicAlgPolicyEPKfS3_PfEENS_4pairIT0_T2_EES6_T1_S7_, symObjAddr: 0xFB620, symBinAddr: 0x1000FDE30, symSize: 0x210 }
  - { offsetInCU: 0x453E7, offset: 0x453E7, size: 0x8, addend: 0x0, symName: __ZNSt3__123__dispatch_copy_or_moveB7v160006INS_17_ClassicAlgPolicyENS_11__copy_loopIS1_EENS_14__copy_trivialEPKfS6_PfEENS_4pairIT2_T4_EES9_T3_SA_, symObjAddr: 0xFB830, symBinAddr: 0x1000FE040, symSize: 0x210 }
  - { offsetInCU: 0x45468, offset: 0x45468, size: 0x8, addend: 0x0, symName: __ZNSt3__121__unwrap_and_dispatchB7v160006INS_10__overloadINS_11__copy_loopINS_17_ClassicAlgPolicyEEENS_14__copy_trivialEEEPKfS8_PfLi0EEENS_4pairIT0_T2_EESB_T1_SC_, symObjAddr: 0xFBA40, symBinAddr: 0x1000FE250, symSize: 0x650 }
  - { offsetInCU: 0x45501, offset: 0x45501, size: 0x8, addend: 0x0, symName: __ZNSt3__114__unwrap_rangeB7v160006IPKfS2_EEDaT_T0_, symObjAddr: 0xFC090, symBinAddr: 0x1000FE8A0, symSize: 0x210 }
  - { offsetInCU: 0x45654, offset: 0x45654, size: 0x8, addend: 0x0, symName: __ZNSt3__19make_pairB7v160006IPKfPfEENS_4pairINS_18__unwrap_ref_decayIT_E4typeENS5_IT0_E4typeEEEOS6_OS9_, symObjAddr: 0xFC4B0, symBinAddr: 0x1000FECC0, symSize: 0x190 }
  - { offsetInCU: 0x456A5, offset: 0x456A5, size: 0x8, addend: 0x0, symName: __ZNSt3__114__rewrap_rangeB7v160006IPKfS2_S2_EET0_S3_T1_, symObjAddr: 0xFC640, symBinAddr: 0x1000FEE50, symSize: 0x30 }
  - { offsetInCU: 0x45817, offset: 0x45817, size: 0x8, addend: 0x0, symName: __ZNSt3__113__unwrap_iterB7v160006IPKfNS_18__unwrap_iter_implIS2_Lb1EEELi0EEEDTclsrT0_8__unwrapclsr3stdE7declvalIT_EEEES6_, symObjAddr: 0xFC8E0, symBinAddr: 0x1000FF0F0, symSize: 0x20 }
  - { offsetInCU: 0x458AF, offset: 0x458AF, size: 0x8, addend: 0x0, symName: __ZNSt3__112__to_addressB7v160006IKfEEPT_S3_, symObjAddr: 0xFC950, symBinAddr: 0x1000FF160, symSize: 0x10 }
  - { offsetInCU: 0x458E4, offset: 0x458E4, size: 0x8, addend: 0x0, symName: __ZNSt3__119__copy_trivial_implB7v160006IKffEENS_4pairIPT_PT0_EES4_S4_S6_, symObjAddr: 0xFCA70, symBinAddr: 0x1000FF280, symSize: 0x350 }
  - { offsetInCU: 0x45953, offset: 0x45953, size: 0x8, addend: 0x0, symName: __ZNSt3__19make_pairB7v160006IRPKfPfEENS_4pairINS_18__unwrap_ref_decayIT_E4typeENS6_IT0_E4typeEEEOS7_OSA_, symObjAddr: 0xFCDC0, symBinAddr: 0x1000FF5D0, symSize: 0x190 }
  - { offsetInCU: 0x459A4, offset: 0x459A4, size: 0x8, addend: 0x0, symName: __ZNSt3__113__rewrap_iterB7v160006IPKfS2_NS_18__unwrap_iter_implIS2_Lb1EEEEET_S5_T0_, symObjAddr: 0xFD200, symBinAddr: 0x1000FFA10, symSize: 0x50 }
  - { offsetInCU: 0x459FA, offset: 0x459FA, size: 0x8, addend: 0x0, symName: __ZNSt3__119__debug_db_insert_cB7v160006INS_6vectorI23VkDeviceQueueCreateInfoNS_9allocatorIS2_EEEEEEvPT_, symObjAddr: 0xFD6A0, symBinAddr: 0x1000FFEB0, symSize: 0x10 }
  - { offsetInCU: 0x45A2B, offset: 0x45A2B, size: 0x8, addend: 0x0, symName: __ZNSt3__1eqB7v160006IPN3vkb22CustomQueueDescriptionEEEbRKNS_11__wrap_iterIT_EES8_, symObjAddr: 0xFD790, symBinAddr: 0x1000FFFA0, symSize: 0x40 }
  - { offsetInCU: 0x45A6E, offset: 0x45A6E, size: 0x8, addend: 0x0, symName: __ZNSt3__112__to_addressB7v160006I23VkDeviceQueueCreateInfoEEPT_S3_, symObjAddr: 0xFDE90, symBinAddr: 0x1001006A0, symSize: 0x10 }
  - { offsetInCU: 0x45ACA, offset: 0x45ACA, size: 0x8, addend: 0x0, symName: __ZNSt3__112construct_atB7v160006I23VkDeviceQueueCreateInfoJRKS1_EPS1_EEPT_S6_DpOT0_, symObjAddr: 0xFE2C0, symBinAddr: 0x100100AD0, symSize: 0x40 }
  - { offsetInCU: 0x45B3C, offset: 0x45B3C, size: 0x8, addend: 0x0, symName: __ZNSt3__119__allocate_at_leastB7v160006INS_9allocatorI23VkDeviceQueueCreateInfoEEEENS_19__allocation_resultINS_16allocator_traitsIT_E7pointerEEERS6_m, symObjAddr: 0xFF820, symBinAddr: 0x100102030, symSize: 0x210 }
  - { offsetInCU: 0x45B81, offset: 0x45B81, size: 0x8, addend: 0x0, symName: __ZNSt3__142__uninitialized_allocator_move_if_noexceptB7v160006INS_9allocatorI23VkDeviceQueueCreateInfoEENS_16reverse_iteratorIPS2_EES6_S2_vEET1_RT_T0_SA_S7_, symObjAddr: 0xFFCC0, symBinAddr: 0x1001024D0, symSize: 0x610 }
  - { offsetInCU: 0x45C0B, offset: 0x45C0B, size: 0x8, addend: 0x0, symName: __ZNSt3__14swapB7v160006IP23VkDeviceQueueCreateInfoEENS_9enable_ifIXaasr21is_move_constructibleIT_EE5valuesr18is_move_assignableIS4_EE5valueEvE4typeERS4_S7_, symObjAddr: 0x100350, symBinAddr: 0x100102B60, symSize: 0x100 }
  - { offsetInCU: 0x45C5D, offset: 0x45C5D, size: 0x8, addend: 0x0, symName: __ZNSt3__125__debug_db_invalidate_allB7v160006INS_6vectorI23VkDeviceQueueCreateInfoNS_9allocatorIS2_EEEEEEvPT_, symObjAddr: 0x100510, symBinAddr: 0x100102D20, symSize: 0x10 }
  - { offsetInCU: 0x45C8E, offset: 0x45C8E, size: 0x8, addend: 0x0, symName: __ZNSt3__14moveB7v160006INS_16reverse_iteratorIP23VkDeviceQueueCreateInfoEES4_EET0_T_S6_S5_, symObjAddr: 0x100520, symBinAddr: 0x100102D30, symSize: 0x660 }
  - { offsetInCU: 0x45CF5, offset: 0x45CF5, size: 0x8, addend: 0x0, symName: __ZNSt3__16__moveB7v160006INS_17_ClassicAlgPolicyENS_16reverse_iteratorIP23VkDeviceQueueCreateInfoEES5_S5_EENS_4pairIT0_T2_EES7_T1_S8_, symObjAddr: 0x100B80, symBinAddr: 0x100103390, symSize: 0x550 }
  - { offsetInCU: 0x45D6D, offset: 0x45D6D, size: 0x8, addend: 0x0, symName: __ZNSt3__123__dispatch_copy_or_moveB7v160006INS_17_ClassicAlgPolicyENS_11__move_loopIS1_EENS_14__move_trivialENS_16reverse_iteratorIP23VkDeviceQueueCreateInfoEES8_S8_EENS_4pairIT2_T4_EESA_T3_SB_, symObjAddr: 0x1010D0, symBinAddr: 0x1001038E0, symSize: 0x550 }
  - { offsetInCU: 0x45DF7, offset: 0x45DF7, size: 0x8, addend: 0x0, symName: __ZNSt3__121__unwrap_and_dispatchB7v160006INS_10__overloadINS_11__move_loopINS_17_ClassicAlgPolicyEEENS_14__move_trivialEEENS_16reverse_iteratorIP23VkDeviceQueueCreateInfoEESA_SA_Li0EEENS_4pairIT0_T2_EESC_T1_SD_, symObjAddr: 0x101620, symBinAddr: 0x100103E30, symSize: 0xD30 }
  - { offsetInCU: 0x45E9B, offset: 0x45E9B, size: 0x8, addend: 0x0, symName: __ZNSt3__114__unwrap_rangeB7v160006INS_16reverse_iteratorIP23VkDeviceQueueCreateInfoEES4_EEDaT_T0_, symObjAddr: 0x102350, symBinAddr: 0x100104B60, symSize: 0x3E0 }
  - { offsetInCU: 0x45FC4, offset: 0x45FC4, size: 0x8, addend: 0x0, symName: __ZNSt3__113__unwrap_iterB7v160006INS_16reverse_iteratorIP23VkDeviceQueueCreateInfoEENS_18__unwrap_iter_implIS4_Lb0EEELi0EEEDTclsrT0_8__unwrapclsr3stdE7declvalIT_EEEES8_, symObjAddr: 0x102A50, symBinAddr: 0x100105260, symSize: 0x340 }
  - { offsetInCU: 0x4600C, offset: 0x4600C, size: 0x8, addend: 0x0, symName: __ZNSt3__19make_pairB7v160006INS_16reverse_iteratorIP23VkDeviceQueueCreateInfoEES4_EENS_4pairINS_18__unwrap_ref_decayIT_E4typeENS6_IT0_E4typeEEEOS7_OSA_, symObjAddr: 0x102D90, symBinAddr: 0x1001055A0, symSize: 0x30 }
  - { offsetInCU: 0x4605B, offset: 0x4605B, size: 0x8, addend: 0x0, symName: __ZNSt3__114__rewrap_rangeB7v160006INS_16reverse_iteratorIP23VkDeviceQueueCreateInfoEES4_S4_EET0_S5_T1_, symObjAddr: 0x102DC0, symBinAddr: 0x1001055D0, symSize: 0x4E0 }
  - { offsetInCU: 0x460B8, offset: 0x460B8, size: 0x8, addend: 0x0, symName: __ZNSt3__113__rewrap_iterB7v160006INS_16reverse_iteratorIP23VkDeviceQueueCreateInfoEES4_NS_18__unwrap_iter_implIS4_Lb0EEEEET_S7_T0_, symObjAddr: 0x1032A0, symBinAddr: 0x100105AB0, symSize: 0x4F0 }
  - { offsetInCU: 0x46165, offset: 0x46165, size: 0x8, addend: 0x0, symName: __ZNSt3__1neB7v160006IP23VkDeviceQueueCreateInfoS2_EEbRKNS_16reverse_iteratorIT_EERKNS3_IT0_EE, symObjAddr: 0x103DB0, symBinAddr: 0x1001065C0, symSize: 0x40 }
  - { offsetInCU: 0x46220, offset: 0x46220, size: 0x8, addend: 0x0, symName: __ZNSt3__110destroy_atB7v160006I23VkDeviceQueueCreateInfoLi0EEEvPT_, symObjAddr: 0x104C90, symBinAddr: 0x1001074A0, symSize: 0x20 }
  - { offsetInCU: 0x46258, offset: 0x46258, size: 0x8, addend: 0x0, symName: __ZNSt3__112__destroy_atB7v160006I23VkDeviceQueueCreateInfoLi0EEEvPT_, symObjAddr: 0x104CB0, symBinAddr: 0x1001074C0, symSize: 0x10 }
  - { offsetInCU: 0x4628F, offset: 0x4628F, size: 0x8, addend: 0x0, symName: __ZNSt3__1eqB7v160006IPKP18VkBaseOutStructureEEbRKNS_11__wrap_iterIT_EES9_, symObjAddr: 0x104F60, symBinAddr: 0x100107770, symSize: 0x40 }
  - { offsetInCU: 0x462D2, offset: 0x462D2, size: 0x8, addend: 0x0, symName: __ZNSt3__112construct_atB7v160006IP18VkBaseOutStructureJRKS2_EPS2_EEPT_S7_DpOT0_, symObjAddr: 0x105610, symBinAddr: 0x100107E20, symSize: 0xA0 }
  - { offsetInCU: 0x46344, offset: 0x46344, size: 0x8, addend: 0x0, symName: __ZNSt3__18distanceB7v160006IPNS_12basic_stringIcNS_11char_traitsIcEENS_9allocatorIcEEEEEENS_15iterator_traitsIT_E15difference_typeES9_S9_, symObjAddr: 0x105DD0, symBinAddr: 0x1001085E0, symSize: 0x30 }
  - { offsetInCU: 0x46387, offset: 0x46387, size: 0x8, addend: 0x0, symName: __ZNSt3__14copyB7v160006IPNS_12basic_stringIcNS_11char_traitsIcEENS_9allocatorIcEEEES7_EET0_T_S9_S8_, symObjAddr: 0x105E50, symBinAddr: 0x100108660, symSize: 0x220 }
  - { offsetInCU: 0x463E4, offset: 0x463E4, size: 0x8, addend: 0x0, symName: __ZNSt3__110__distanceB7v160006IPNS_12basic_stringIcNS_11char_traitsIcEENS_9allocatorIcEEEEEENS_15iterator_traitsIT_E15difference_typeES9_S9_NS_26random_access_iterator_tagE, symObjAddr: 0x1060E0, symBinAddr: 0x1001088F0, symSize: 0x30 }
  - { offsetInCU: 0x46432, offset: 0x46432, size: 0x8, addend: 0x0, symName: __ZNSt3__16__copyB7v160006INS_17_ClassicAlgPolicyEPNS_12basic_stringIcNS_11char_traitsIcEENS_9allocatorIcEEEES8_S8_EENS_4pairIT0_T2_EESA_T1_SB_, symObjAddr: 0x106110, symBinAddr: 0x100108920, symSize: 0x210 }
  - { offsetInCU: 0x464A1, offset: 0x464A1, size: 0x8, addend: 0x0, symName: __ZNSt3__123__dispatch_copy_or_moveB7v160006INS_17_ClassicAlgPolicyENS_11__copy_loopIS1_EENS_14__copy_trivialEPNS_12basic_stringIcNS_11char_traitsIcEENS_9allocatorIcEEEESB_SB_EENS_4pairIT2_T4_EESD_T3_SE_, symObjAddr: 0x106320, symBinAddr: 0x100108B30, symSize: 0x210 }
  - { offsetInCU: 0x46522, offset: 0x46522, size: 0x8, addend: 0x0, symName: __ZNSt3__121__unwrap_and_dispatchB7v160006INS_10__overloadINS_11__copy_loopINS_17_ClassicAlgPolicyEEENS_14__copy_trivialEEEPNS_12basic_stringIcNS_11char_traitsIcEENS_9allocatorIcEEEESD_SD_Li0EEENS_4pairIT0_T2_EESF_T1_SG_, symObjAddr: 0x106530, symBinAddr: 0x100108D40, symSize: 0x650 }
  - { offsetInCU: 0x465BC, offset: 0x465BC, size: 0x8, addend: 0x0, symName: __ZNSt3__118__debug_db_erase_cB7v160006INS_6vectorI23VkDeviceQueueCreateInfoNS_9allocatorIS2_EEEEEEvPT_, symObjAddr: 0x106FE0, symBinAddr: 0x1001097F0, symSize: 0x10 }
  - { offsetInCU: 0x465EE, offset: 0x465EE, size: 0x8, addend: 0x0, symName: __ZNSt3__118__debug_db_erase_cB7v160006INS_6vectorIN3vkb22CustomQueueDescriptionENS_9allocatorIS3_EEEEEEvPT_, symObjAddr: 0x107540, symBinAddr: 0x100109D50, symSize: 0x10 }
  - { offsetInCU: 0x46620, offset: 0x46620, size: 0x8, addend: 0x0, symName: __ZNSt3__115__debug_db_swapB7v160006INS_6vectorIN3vkb22CustomQueueDescriptionENS_9allocatorIS3_EEEEEEvPT_S8_, symObjAddr: 0x107A90, symBinAddr: 0x10010A2A0, symSize: 0x10 }
  - { offsetInCU: 0x4665F, offset: 0x4665F, size: 0x8, addend: 0x0, symName: __ZNSt3__122__make_exception_guardB7v160006INS_6vectorI18VkSurfaceFormatKHRNS_9allocatorIS2_EEE16__destroy_vectorEEENS_28__exception_guard_exceptionsIT_EES8_, symObjAddr: 0x108050, symBinAddr: 0x10010A860, symSize: 0x1F0 }
  - { offsetInCU: 0x46698, offset: 0x46698, size: 0x8, addend: 0x0, symName: __ZNSt3__119__allocate_at_leastB7v160006INS_9allocatorI18VkSurfaceFormatKHREEEENS_19__allocation_resultINS_16allocator_traitsIT_E7pointerEEERS6_m, symObjAddr: 0x109070, symBinAddr: 0x10010B880, symSize: 0x210 }
  - { offsetInCU: 0x466DD, offset: 0x466DD, size: 0x8, addend: 0x0, symName: __ZNSt3__130__uninitialized_allocator_copyB7v160006INS_9allocatorI18VkSurfaceFormatKHREEPS2_S4_S4_EET2_RT_T0_T1_S5_, symObjAddr: 0x109430, symBinAddr: 0x10010BC40, symSize: 0x550 }
  - { offsetInCU: 0x46789, offset: 0x46789, size: 0x8, addend: 0x0, symName: __ZNSt3__122__make_exception_guardB7v160006INS_29_AllocatorDestroyRangeReverseINS_9allocatorI18VkSurfaceFormatKHREEPS3_EEEENS_28__exception_guard_exceptionsIT_EES8_, symObjAddr: 0x109C10, symBinAddr: 0x10010C420, symSize: 0x2A0 }
  - { offsetInCU: 0x467E9, offset: 0x467E9, size: 0x8, addend: 0x0, symName: __ZNSt3__112construct_atB7v160006I18VkSurfaceFormatKHRJRS1_EPS1_EEPT_S5_DpOT0_, symObjAddr: 0x10A4D0, symBinAddr: 0x10010CCE0, symSize: 0x40 }
  - { offsetInCU: 0x4685B, offset: 0x4685B, size: 0x8, addend: 0x0, symName: __ZNSt3__119__allocator_destroyB7v160006INS_9allocatorI18VkSurfaceFormatKHREENS_16reverse_iteratorIPS2_EES6_EEvRT_T0_T1_, symObjAddr: 0x10A920, symBinAddr: 0x10010D130, symSize: 0x2B0 }
  - { offsetInCU: 0x468C7, offset: 0x468C7, size: 0x8, addend: 0x0, symName: __ZNSt3__1neB7v160006IP18VkSurfaceFormatKHRS2_EEbRKNS_16reverse_iteratorIT_EERKNS3_IT0_EE, symObjAddr: 0x10AC00, symBinAddr: 0x10010D410, symSize: 0x40 }
  - { offsetInCU: 0x46913, offset: 0x46913, size: 0x8, addend: 0x0, symName: __ZNSt3__112__to_addressB7v160006INS_16reverse_iteratorIP18VkSurfaceFormatKHREEvEENS_5decayIDTclsr19__to_address_helperIT_EE6__callclsr3stdE7declvalIRKS6_EEEEE4typeES8_, symObjAddr: 0x10AC40, symBinAddr: 0x10010D450, symSize: 0x20 }
  - { offsetInCU: 0x46973, offset: 0x46973, size: 0x8, addend: 0x0, symName: __ZNSt3__14prevB7v160006IP18VkSurfaceFormatKHREENS_9enable_ifIXsr25__is_cpp17_input_iteratorIT_EE5valueES4_E4typeES4_NS_15iterator_traitsIS4_E15difference_typeE, symObjAddr: 0x10ADB0, symBinAddr: 0x10010D5C0, symSize: 0x1E0 }
  - { offsetInCU: 0x469BC, offset: 0x469BC, size: 0x8, addend: 0x0, symName: __ZNSt3__19__advanceB7v160006IP18VkSurfaceFormatKHREEvRT_NS_15iterator_traitsIS3_E15difference_typeENS_26random_access_iterator_tagE, symObjAddr: 0x10AFE0, symBinAddr: 0x10010D7F0, symSize: 0x60 }
  - { offsetInCU: 0x46A06, offset: 0x46A06, size: 0x8, addend: 0x0, symName: __ZNSt3__122__make_exception_guardB7v160006INS_6vectorI16VkPresentModeKHRNS_9allocatorIS2_EEE16__destroy_vectorEEENS_28__exception_guard_exceptionsIT_EES8_, symObjAddr: 0x10B950, symBinAddr: 0x10010E160, symSize: 0x1F0 }
  - { offsetInCU: 0x46A3F, offset: 0x46A3F, size: 0x8, addend: 0x0, symName: __ZNSt3__119__allocate_at_leastB7v160006INS_9allocatorI16VkPresentModeKHREEEENS_19__allocation_resultINS_16allocator_traitsIT_E7pointerEEERS6_m, symObjAddr: 0x10C970, symBinAddr: 0x10010F180, symSize: 0x210 }
  - { offsetInCU: 0x46A84, offset: 0x46A84, size: 0x8, addend: 0x0, symName: __ZNSt3__130__uninitialized_allocator_copyB7v160006INS_9allocatorI16VkPresentModeKHREEPS2_S4_S4_EET2_RT_T0_T1_S5_, symObjAddr: 0x10CD30, symBinAddr: 0x10010F540, symSize: 0x550 }
  - { offsetInCU: 0x46B30, offset: 0x46B30, size: 0x8, addend: 0x0, symName: __ZNSt3__122__make_exception_guardB7v160006INS_29_AllocatorDestroyRangeReverseINS_9allocatorI16VkPresentModeKHREEPS3_EEEENS_28__exception_guard_exceptionsIT_EES8_, symObjAddr: 0x10D510, symBinAddr: 0x10010FD20, symSize: 0x2A0 }
  - { offsetInCU: 0x46B90, offset: 0x46B90, size: 0x8, addend: 0x0, symName: __ZNSt3__112construct_atB7v160006I16VkPresentModeKHRJRS1_EPS1_EEPT_S5_DpOT0_, symObjAddr: 0x10DDD0, symBinAddr: 0x1001105E0, symSize: 0xD0 }
  - { offsetInCU: 0x46C02, offset: 0x46C02, size: 0x8, addend: 0x0, symName: __ZNSt3__119__allocator_destroyB7v160006INS_9allocatorI16VkPresentModeKHREENS_16reverse_iteratorIPS2_EES6_EEvRT_T0_T1_, symObjAddr: 0x10E2B0, symBinAddr: 0x100110AC0, symSize: 0x2B0 }
  - { offsetInCU: 0x46C6E, offset: 0x46C6E, size: 0x8, addend: 0x0, symName: __ZNSt3__1neB7v160006IP16VkPresentModeKHRS2_EEbRKNS_16reverse_iteratorIT_EERKNS3_IT0_EE, symObjAddr: 0x10E590, symBinAddr: 0x100110DA0, symSize: 0x40 }
  - { offsetInCU: 0x46CBA, offset: 0x46CBA, size: 0x8, addend: 0x0, symName: __ZNSt3__112__to_addressB7v160006INS_16reverse_iteratorIP16VkPresentModeKHREEvEENS_5decayIDTclsr19__to_address_helperIT_EE6__callclsr3stdE7declvalIRKS6_EEEEE4typeES8_, symObjAddr: 0x10E5D0, symBinAddr: 0x100110DE0, symSize: 0x20 }
  - { offsetInCU: 0x46D1A, offset: 0x46D1A, size: 0x8, addend: 0x0, symName: __ZNSt3__14prevB7v160006IP16VkPresentModeKHREENS_9enable_ifIXsr25__is_cpp17_input_iteratorIT_EE5valueES4_E4typeES4_NS_15iterator_traitsIS4_E15difference_typeE, symObjAddr: 0x10E740, symBinAddr: 0x100110F50, symSize: 0x1E0 }
  - { offsetInCU: 0x46D63, offset: 0x46D63, size: 0x8, addend: 0x0, symName: __ZNSt3__19__advanceB7v160006IP16VkPresentModeKHREEvRT_NS_15iterator_traitsIS3_E15difference_typeENS_26random_access_iterator_tagE, symObjAddr: 0x10E970, symBinAddr: 0x100111180, symSize: 0x60 }
  - { offsetInCU: 0x46DAD, offset: 0x46DAD, size: 0x8, addend: 0x0, symName: __ZNSt3__1eqB7v160006IPK18VkSurfaceFormatKHREEbRKNS_11__wrap_iterIT_EES8_, symObjAddr: 0x10F010, symBinAddr: 0x100111820, symSize: 0x40 }
  - { offsetInCU: 0x46DF0, offset: 0x46DF0, size: 0x8, addend: 0x0, symName: __ZNSt3__1eqB7v160006IPK16VkPresentModeKHREEbRKNS_11__wrap_iterIT_EES8_, symObjAddr: 0x10F2B0, symBinAddr: 0x100111AC0, symSize: 0x40 }
  - { offsetInCU: 0x46E34, offset: 0x46E34, size: 0x8, addend: 0x0, symName: __ZNSt3__119__debug_db_insert_cB7v160006INS_6vectorIP9VkImage_TNS_9allocatorIS3_EEEEEEvPT_, symObjAddr: 0x1103A0, symBinAddr: 0x100112BB0, symSize: 0x10 }
  - { offsetInCU: 0x46E66, offset: 0x46E66, size: 0x8, addend: 0x0, symName: __ZNSt3__118__debug_db_erase_cB7v160006INS_6vectorIP9VkImage_TNS_9allocatorIS3_EEEEEEvPT_, symObjAddr: 0x110960, symBinAddr: 0x100113170, symSize: 0x10 }
  - { offsetInCU: 0x46E97, offset: 0x46E97, size: 0x8, addend: 0x0, symName: __ZNSt3__112__to_addressB7v160006IP9VkImage_TEEPT_S4_, symObjAddr: 0x110B40, symBinAddr: 0x100113350, symSize: 0x10 }
  - { offsetInCU: 0x46ECD, offset: 0x46ECD, size: 0x8, addend: 0x0, symName: __ZNSt3__110destroy_atB7v160006IP9VkImage_TLi0EEEvPT_, symObjAddr: 0x110C60, symBinAddr: 0x100113470, symSize: 0x20 }
  - { offsetInCU: 0x46F05, offset: 0x46F05, size: 0x8, addend: 0x0, symName: __ZNSt3__112__destroy_atB7v160006IP9VkImage_TLi0EEEvPT_, symObjAddr: 0x110C80, symBinAddr: 0x100113490, symSize: 0x10 }
  - { offsetInCU: 0x46F3C, offset: 0x46F3C, size: 0x8, addend: 0x0, symName: __ZNSt3__122__make_exception_guardB7v160006INS_6vectorIP13VkImageView_TNS_9allocatorIS3_EEE16__destroy_vectorEEENS_28__exception_guard_exceptionsIT_EES9_, symObjAddr: 0x1111A0, symBinAddr: 0x1001139B0, symSize: 0x1F0 }
  - { offsetInCU: 0x46F76, offset: 0x46F76, size: 0x8, addend: 0x0, symName: __ZNSt3__119__debug_db_insert_cB7v160006INS_6vectorIP13VkImageView_TNS_9allocatorIS3_EEEEEEvPT_, symObjAddr: 0x1113C0, symBinAddr: 0x100113BD0, symSize: 0x10 }
  - { offsetInCU: 0x46FA7, offset: 0x46FA7, size: 0x8, addend: 0x0, symName: __ZNSt3__119__allocate_at_leastB7v160006INS_9allocatorIP13VkImageView_TEEEENS_19__allocation_resultINS_16allocator_traitsIT_E7pointerEEERS7_m, symObjAddr: 0x112310, symBinAddr: 0x100114B20, symSize: 0x210 }
  - { offsetInCU: 0x46FEC, offset: 0x46FEC, size: 0x8, addend: 0x0, symName: __ZNSt3__112__to_addressB7v160006IP13VkImageView_TEEPT_S4_, symObjAddr: 0x112870, symBinAddr: 0x100115080, symSize: 0x10 }
  - { offsetInCU: 0x47048, offset: 0x47048, size: 0x8, addend: 0x0, symName: __ZNSt3__112construct_atB7v160006IP13VkImageView_TJEPS2_EEPT_S5_DpOT0_, symObjAddr: 0x112C40, symBinAddr: 0x100115450, symSize: 0x60 }
  - { offsetInCU: 0x470A7, offset: 0x470A7, size: 0x8, addend: 0x0, symName: __ZNSt3__118__debug_db_erase_cB7v160006INS_6vectorIP13VkImageView_TNS_9allocatorIS3_EEEEEEvPT_, symObjAddr: 0x1132D0, symBinAddr: 0x100115AE0, symSize: 0x10 }
  - { offsetInCU: 0x470D9, offset: 0x470D9, size: 0x8, addend: 0x0, symName: __ZNSt3__110destroy_atB7v160006IP13VkImageView_TLi0EEEvPT_, symObjAddr: 0x113470, symBinAddr: 0x100115C80, symSize: 0x20 }
  - { offsetInCU: 0x47111, offset: 0x47111, size: 0x8, addend: 0x0, symName: __ZNSt3__112__destroy_atB7v160006IP13VkImageView_TLi0EEEvPT_, symObjAddr: 0x113490, symBinAddr: 0x100115CA0, symSize: 0x10 }
  - { offsetInCU: 0x47148, offset: 0x47148, size: 0x8, addend: 0x0, symName: __ZNSt3__1eqB7v160006IPKP13VkImageView_TEEbRKNS_11__wrap_iterIT_EES9_, symObjAddr: 0x113870, symBinAddr: 0x100116080, symSize: 0x40 }
  - { offsetInCU: 0x4718B, offset: 0x4718B, size: 0x8, addend: 0x0, symName: __ZNSt3__1miB7v160006IPK18VkSurfaceFormatKHRPS1_EEDTmicldtfp_4baseEcldtfp0_4baseEERKNS_11__wrap_iterIT_EERKNS6_IT0_EE, symObjAddr: 0x113900, symBinAddr: 0x100116110, symSize: 0x40 }
  - { offsetInCU: 0x4720A, offset: 0x4720A, size: 0x8, addend: 0x0, symName: __ZNSt3__112construct_atB7v160006I18VkSurfaceFormatKHRJRKS1_EPS1_EEPT_S6_DpOT0_, symObjAddr: 0x115810, symBinAddr: 0x100118020, symSize: 0x40 }
  - { offsetInCU: 0x4727C, offset: 0x4727C, size: 0x8, addend: 0x0, symName: __ZNSt3__113move_backwardB7v160006IP18VkSurfaceFormatKHRS2_EET0_T_S4_S3_, symObjAddr: 0x115880, symBinAddr: 0x100118090, symSize: 0x220 }
  - { offsetInCU: 0x472D9, offset: 0x472D9, size: 0x8, addend: 0x0, symName: __ZNSt3__112construct_atB7v160006I18VkSurfaceFormatKHRJS1_EPS1_EEPT_S4_DpOT0_, symObjAddr: 0x115AA0, symBinAddr: 0x1001182B0, symSize: 0x40 }
  - { offsetInCU: 0x4734B, offset: 0x4734B, size: 0x8, addend: 0x0, symName: __ZNSt3__115__move_backwardB7v160006INS_17_ClassicAlgPolicyEP18VkSurfaceFormatKHRS3_S3_EENS_4pairIT0_T2_EES5_T1_S6_, symObjAddr: 0x115AE0, symBinAddr: 0x1001182F0, symSize: 0x210 }
  - { offsetInCU: 0x473BA, offset: 0x473BA, size: 0x8, addend: 0x0, symName: __ZNSt3__123__dispatch_copy_or_moveB7v160006INS_17_ClassicAlgPolicyENS_20__move_backward_loopIS1_EENS_23__move_backward_trivialEP18VkSurfaceFormatKHRS6_S6_EENS_4pairIT2_T4_EES8_T3_S9_, symObjAddr: 0x115CF0, symBinAddr: 0x100118500, symSize: 0x210 }
  - { offsetInCU: 0x4743B, offset: 0x4743B, size: 0x8, addend: 0x0, symName: __ZNSt3__121__unwrap_and_dispatchB7v160006INS_10__overloadINS_20__move_backward_loopINS_17_ClassicAlgPolicyEEENS_23__move_backward_trivialEEEP18VkSurfaceFormatKHRS8_S8_Li0EEENS_4pairIT0_T2_EESA_T1_SB_, symObjAddr: 0x115F00, symBinAddr: 0x100118710, symSize: 0x650 }
  - { offsetInCU: 0x474D4, offset: 0x474D4, size: 0x8, addend: 0x0, symName: __ZNSt3__114__unwrap_rangeB7v160006IP18VkSurfaceFormatKHRS2_EEDaT_T0_, symObjAddr: 0x116550, symBinAddr: 0x100118D60, symSize: 0x210 }
  - { offsetInCU: 0x47657, offset: 0x47657, size: 0x8, addend: 0x0, symName: __ZNSt3__113__unwrap_iterB7v160006IP18VkSurfaceFormatKHRNS_18__unwrap_iter_implIS2_Lb1EEELi0EEEDTclsrT0_8__unwrapclsr3stdE7declvalIT_EEEES6_, symObjAddr: 0x116970, symBinAddr: 0x100119180, symSize: 0x20 }
  - { offsetInCU: 0x4769B, offset: 0x4769B, size: 0x8, addend: 0x0, symName: __ZNSt3__19make_pairB7v160006IP18VkSurfaceFormatKHRS2_EENS_4pairINS_18__unwrap_ref_decayIT_E4typeENS4_IT0_E4typeEEEOS5_OS8_, symObjAddr: 0x116990, symBinAddr: 0x1001191A0, symSize: 0x190 }
  - { offsetInCU: 0x476EC, offset: 0x476EC, size: 0x8, addend: 0x0, symName: __ZNSt3__114__rewrap_rangeB7v160006IP18VkSurfaceFormatKHRS2_S2_EET0_S3_T1_, symObjAddr: 0x116B20, symBinAddr: 0x100119330, symSize: 0x30 }
  - { offsetInCU: 0x47741, offset: 0x47741, size: 0x8, addend: 0x0, symName: __ZNSt3__113__rewrap_iterB7v160006IP18VkSurfaceFormatKHRS2_NS_18__unwrap_iter_implIS2_Lb1EEEEET_S5_T0_, symObjAddr: 0x116B50, symBinAddr: 0x100119360, symSize: 0x50 }
  - { offsetInCU: 0x477E6, offset: 0x477E6, size: 0x8, addend: 0x0, symName: __ZNSt3__128__copy_backward_trivial_implB7v160006I18VkSurfaceFormatKHRS1_EENS_4pairIPT_PT0_EES4_S4_S6_, symObjAddr: 0x116F50, symBinAddr: 0x100119760, symSize: 0x370 }
  - { offsetInCU: 0x47858, offset: 0x47858, size: 0x8, addend: 0x0, symName: __ZNSt3__19make_pairB7v160006IRP18VkSurfaceFormatKHRS3_EENS_4pairINS_18__unwrap_ref_decayIT_E4typeENS5_IT0_E4typeEEEOS6_OS9_, symObjAddr: 0x1172C0, symBinAddr: 0x100119AD0, symSize: 0x190 }
  - { offsetInCU: 0x478FD, offset: 0x478FD, size: 0x8, addend: 0x0, symName: __ZNSt3__14moveB7v160006IP18VkSurfaceFormatKHRS2_EET0_T_S4_S3_, symObjAddr: 0x117C90, symBinAddr: 0x10011A4A0, symSize: 0x220 }
  - { offsetInCU: 0x4795A, offset: 0x4795A, size: 0x8, addend: 0x0, symName: __ZNSt3__14swapB7v160006IP18VkSurfaceFormatKHREENS_9enable_ifIXaasr21is_move_constructibleIT_EE5valuesr18is_move_assignableIS4_EE5valueEvE4typeERS4_S7_, symObjAddr: 0x118470, symBinAddr: 0x10011AC80, symSize: 0x100 }
  - { offsetInCU: 0x479AB, offset: 0x479AB, size: 0x8, addend: 0x0, symName: __ZNSt3__16__moveB7v160006INS_17_ClassicAlgPolicyEP18VkSurfaceFormatKHRS3_S3_EENS_4pairIT0_T2_EES5_T1_S6_, symObjAddr: 0x118570, symBinAddr: 0x10011AD80, symSize: 0x210 }
  - { offsetInCU: 0x47A1A, offset: 0x47A1A, size: 0x8, addend: 0x0, symName: __ZNSt3__123__dispatch_copy_or_moveB7v160006INS_17_ClassicAlgPolicyENS_11__move_loopIS1_EENS_14__move_trivialEP18VkSurfaceFormatKHRS6_S6_EENS_4pairIT2_T4_EES8_T3_S9_, symObjAddr: 0x118780, symBinAddr: 0x10011AF90, symSize: 0x210 }
  - { offsetInCU: 0x47A9B, offset: 0x47A9B, size: 0x8, addend: 0x0, symName: __ZNSt3__121__unwrap_and_dispatchB7v160006INS_10__overloadINS_11__move_loopINS_17_ClassicAlgPolicyEEENS_14__move_trivialEEEP18VkSurfaceFormatKHRS8_S8_Li0EEENS_4pairIT0_T2_EESA_T1_SB_, symObjAddr: 0x118990, symBinAddr: 0x10011B1A0, symSize: 0x650 }
  - { offsetInCU: 0x47B34, offset: 0x47B34, size: 0x8, addend: 0x0, symName: __ZNSt3__119__copy_trivial_implB7v160006I18VkSurfaceFormatKHRS1_EENS_4pairIPT_PT0_EES4_S4_S6_, symObjAddr: 0x1191F0, symBinAddr: 0x10011BA00, symSize: 0x350 }
  - { offsetInCU: 0x47BA3, offset: 0x47BA3, size: 0x8, addend: 0x0, symName: __ZNSt3__19make_pairB7v160006IRP18VkSurfaceFormatKHRS2_EENS_4pairINS_18__unwrap_ref_decayIT_E4typeENS5_IT0_E4typeEEEOS6_OS9_, symObjAddr: 0x119540, symBinAddr: 0x10011BD50, symSize: 0x190 }
  - { offsetInCU: 0x47BF4, offset: 0x47BF4, size: 0x8, addend: 0x0, symName: __ZNSt3__18distanceB7v160006INS_13move_iteratorIP18VkSurfaceFormatKHREEEENS_15iterator_traitsIT_E15difference_typeES6_S6_, symObjAddr: 0x119810, symBinAddr: 0x10011C020, symSize: 0x2C0 }
  - { offsetInCU: 0x47C3F, offset: 0x47C3F, size: 0x8, addend: 0x0, symName: __ZNSt3__110__distanceB7v160006INS_13move_iteratorIP18VkSurfaceFormatKHREEEENS_15iterator_traitsIT_E15difference_typeES6_S6_NS_26random_access_iterator_tagE, symObjAddr: 0x119BA0, symBinAddr: 0x10011C3B0, symSize: 0x1E0 }
  - { offsetInCU: 0x47C96, offset: 0x47C96, size: 0x8, addend: 0x0, symName: __ZNSt3__1miB7v160006IP18VkSurfaceFormatKHRS2_EEDTmicldtfp_4baseEcldtfp0_4baseEERKNS_13move_iteratorIT_EERKNS4_IT0_EE, symObjAddr: 0x119D80, symBinAddr: 0x10011C590, symSize: 0xA0 }
  - { offsetInCU: 0x47CE5, offset: 0x47CE5, size: 0x8, addend: 0x0, symName: __ZNSt3__142__uninitialized_allocator_move_if_noexceptB7v160006INS_9allocatorI18VkSurfaceFormatKHREENS_16reverse_iteratorIPS2_EES6_S2_vEET1_RT_T0_SA_S7_, symObjAddr: 0x11A100, symBinAddr: 0x10011C910, symSize: 0x610 }
  - { offsetInCU: 0x47D6F, offset: 0x47D6F, size: 0x8, addend: 0x0, symName: __ZNSt3__142__uninitialized_allocator_move_if_noexceptB7v160006INS_9allocatorI18VkSurfaceFormatKHREEPS2_S4_S2_vEET1_RT_T0_S8_S5_, symObjAddr: 0x11A710, symBinAddr: 0x10011CF20, symSize: 0x30 }
  - { offsetInCU: 0x47DEC, offset: 0x47DEC, size: 0x8, addend: 0x0, symName: __ZNSt3__125__debug_db_invalidate_allB7v160006INS_6vectorI18VkSurfaceFormatKHRNS_9allocatorIS2_EEEEEEvPT_, symObjAddr: 0x11A740, symBinAddr: 0x10011CF50, symSize: 0x10 }
  - { offsetInCU: 0x47E1D, offset: 0x47E1D, size: 0x8, addend: 0x0, symName: __ZNSt3__14moveB7v160006INS_16reverse_iteratorIP18VkSurfaceFormatKHREES4_EET0_T_S6_S5_, symObjAddr: 0x11A750, symBinAddr: 0x10011CF60, symSize: 0x660 }
  - { offsetInCU: 0x47E84, offset: 0x47E84, size: 0x8, addend: 0x0, symName: __ZNSt3__16__moveB7v160006INS_17_ClassicAlgPolicyENS_16reverse_iteratorIP18VkSurfaceFormatKHREES5_S5_EENS_4pairIT0_T2_EES7_T1_S8_, symObjAddr: 0x11ADB0, symBinAddr: 0x10011D5C0, symSize: 0x550 }
  - { offsetInCU: 0x47EFC, offset: 0x47EFC, size: 0x8, addend: 0x0, symName: __ZNSt3__123__dispatch_copy_or_moveB7v160006INS_17_ClassicAlgPolicyENS_11__move_loopIS1_EENS_14__move_trivialENS_16reverse_iteratorIP18VkSurfaceFormatKHREES8_S8_EENS_4pairIT2_T4_EESA_T3_SB_, symObjAddr: 0x11B300, symBinAddr: 0x10011DB10, symSize: 0x550 }
  - { offsetInCU: 0x47F86, offset: 0x47F86, size: 0x8, addend: 0x0, symName: __ZNSt3__121__unwrap_and_dispatchB7v160006INS_10__overloadINS_11__move_loopINS_17_ClassicAlgPolicyEEENS_14__move_trivialEEENS_16reverse_iteratorIP18VkSurfaceFormatKHREESA_SA_Li0EEENS_4pairIT0_T2_EESC_T1_SD_, symObjAddr: 0x11B850, symBinAddr: 0x10011E060, symSize: 0xD30 }
  - { offsetInCU: 0x4802A, offset: 0x4802A, size: 0x8, addend: 0x0, symName: __ZNSt3__114__unwrap_rangeB7v160006INS_16reverse_iteratorIP18VkSurfaceFormatKHREES4_EEDaT_T0_, symObjAddr: 0x11C580, symBinAddr: 0x10011ED90, symSize: 0x3E0 }
  - { offsetInCU: 0x48153, offset: 0x48153, size: 0x8, addend: 0x0, symName: __ZNSt3__113__unwrap_iterB7v160006INS_16reverse_iteratorIP18VkSurfaceFormatKHREENS_18__unwrap_iter_implIS4_Lb0EEELi0EEEDTclsrT0_8__unwrapclsr3stdE7declvalIT_EEEES8_, symObjAddr: 0x11CC80, symBinAddr: 0x10011F490, symSize: 0x340 }
  - { offsetInCU: 0x4819B, offset: 0x4819B, size: 0x8, addend: 0x0, symName: __ZNSt3__19make_pairB7v160006INS_16reverse_iteratorIP18VkSurfaceFormatKHREES4_EENS_4pairINS_18__unwrap_ref_decayIT_E4typeENS6_IT0_E4typeEEEOS7_OSA_, symObjAddr: 0x11CFC0, symBinAddr: 0x10011F7D0, symSize: 0x30 }
  - { offsetInCU: 0x481EA, offset: 0x481EA, size: 0x8, addend: 0x0, symName: __ZNSt3__114__rewrap_rangeB7v160006INS_16reverse_iteratorIP18VkSurfaceFormatKHREES4_S4_EET0_S5_T1_, symObjAddr: 0x11CFF0, symBinAddr: 0x10011F800, symSize: 0x4E0 }
  - { offsetInCU: 0x48247, offset: 0x48247, size: 0x8, addend: 0x0, symName: __ZNSt3__113__rewrap_iterB7v160006INS_16reverse_iteratorIP18VkSurfaceFormatKHREES4_NS_18__unwrap_iter_implIS4_Lb0EEEEET_S7_T0_, symObjAddr: 0x11D4D0, symBinAddr: 0x10011FCE0, symSize: 0x4F0 }
  - { offsetInCU: 0x48362, offset: 0x48362, size: 0x8, addend: 0x0, symName: __ZNSt3__1miB7v160006IPK16VkPresentModeKHRPS1_EEDTmicldtfp_4baseEcldtfp0_4baseEERKNS_11__wrap_iterIT_EERKNS6_IT0_EE, symObjAddr: 0x11F860, symBinAddr: 0x100122070, symSize: 0x40 }
  - { offsetInCU: 0x483E1, offset: 0x483E1, size: 0x8, addend: 0x0, symName: __ZNSt3__112construct_atB7v160006I16VkPresentModeKHRJRKS1_EPS1_EEPT_S6_DpOT0_, symObjAddr: 0x121770, symBinAddr: 0x100123F80, symSize: 0xD0 }
  - { offsetInCU: 0x48453, offset: 0x48453, size: 0x8, addend: 0x0, symName: __ZNSt3__113move_backwardB7v160006IP16VkPresentModeKHRS2_EET0_T_S4_S3_, symObjAddr: 0x121870, symBinAddr: 0x100124080, symSize: 0x220 }
  - { offsetInCU: 0x484B0, offset: 0x484B0, size: 0x8, addend: 0x0, symName: __ZNSt3__112construct_atB7v160006I16VkPresentModeKHRJS1_EPS1_EEPT_S4_DpOT0_, symObjAddr: 0x121A90, symBinAddr: 0x1001242A0, symSize: 0xD0 }
  - { offsetInCU: 0x48522, offset: 0x48522, size: 0x8, addend: 0x0, symName: __ZNSt3__115__move_backwardB7v160006INS_17_ClassicAlgPolicyEP16VkPresentModeKHRS3_S3_EENS_4pairIT0_T2_EES5_T1_S6_, symObjAddr: 0x121B60, symBinAddr: 0x100124370, symSize: 0x210 }
  - { offsetInCU: 0x48591, offset: 0x48591, size: 0x8, addend: 0x0, symName: __ZNSt3__123__dispatch_copy_or_moveB7v160006INS_17_ClassicAlgPolicyENS_20__move_backward_loopIS1_EENS_23__move_backward_trivialEP16VkPresentModeKHRS6_S6_EENS_4pairIT2_T4_EES8_T3_S9_, symObjAddr: 0x121D70, symBinAddr: 0x100124580, symSize: 0x210 }
  - { offsetInCU: 0x48612, offset: 0x48612, size: 0x8, addend: 0x0, symName: __ZNSt3__121__unwrap_and_dispatchB7v160006INS_10__overloadINS_20__move_backward_loopINS_17_ClassicAlgPolicyEEENS_23__move_backward_trivialEEEP16VkPresentModeKHRS8_S8_Li0EEENS_4pairIT0_T2_EESA_T1_SB_, symObjAddr: 0x121F80, symBinAddr: 0x100124790, symSize: 0x650 }
  - { offsetInCU: 0x486AB, offset: 0x486AB, size: 0x8, addend: 0x0, symName: __ZNSt3__114__unwrap_rangeB7v160006IP16VkPresentModeKHRS2_EEDaT_T0_, symObjAddr: 0x1225D0, symBinAddr: 0x100124DE0, symSize: 0x210 }
  - { offsetInCU: 0x4882E, offset: 0x4882E, size: 0x8, addend: 0x0, symName: __ZNSt3__113__unwrap_iterB7v160006IP16VkPresentModeKHRNS_18__unwrap_iter_implIS2_Lb1EEELi0EEEDTclsrT0_8__unwrapclsr3stdE7declvalIT_EEEES6_, symObjAddr: 0x1229F0, symBinAddr: 0x100125200, symSize: 0x20 }
  - { offsetInCU: 0x48872, offset: 0x48872, size: 0x8, addend: 0x0, symName: __ZNSt3__19make_pairB7v160006IP16VkPresentModeKHRS2_EENS_4pairINS_18__unwrap_ref_decayIT_E4typeENS4_IT0_E4typeEEEOS5_OS8_, symObjAddr: 0x122A10, symBinAddr: 0x100125220, symSize: 0x190 }
  - { offsetInCU: 0x488C3, offset: 0x488C3, size: 0x8, addend: 0x0, symName: __ZNSt3__114__rewrap_rangeB7v160006IP16VkPresentModeKHRS2_S2_EET0_S3_T1_, symObjAddr: 0x122BA0, symBinAddr: 0x1001253B0, symSize: 0x30 }
  - { offsetInCU: 0x48918, offset: 0x48918, size: 0x8, addend: 0x0, symName: __ZNSt3__113__rewrap_iterB7v160006IP16VkPresentModeKHRS2_NS_18__unwrap_iter_implIS2_Lb1EEEEET_S5_T0_, symObjAddr: 0x122BD0, symBinAddr: 0x1001253E0, symSize: 0x50 }
  - { offsetInCU: 0x489BD, offset: 0x489BD, size: 0x8, addend: 0x0, symName: __ZNSt3__128__copy_backward_trivial_implB7v160006I16VkPresentModeKHRS1_EENS_4pairIPT_PT0_EES4_S4_S6_, symObjAddr: 0x122FD0, symBinAddr: 0x1001257E0, symSize: 0x370 }
  - { offsetInCU: 0x48A2F, offset: 0x48A2F, size: 0x8, addend: 0x0, symName: __ZNSt3__19make_pairB7v160006IRP16VkPresentModeKHRS3_EENS_4pairINS_18__unwrap_ref_decayIT_E4typeENS5_IT0_E4typeEEEOS6_OS9_, symObjAddr: 0x123340, symBinAddr: 0x100125B50, symSize: 0x190 }
  - { offsetInCU: 0x48AD4, offset: 0x48AD4, size: 0x8, addend: 0x0, symName: __ZNSt3__14moveB7v160006IP16VkPresentModeKHRS2_EET0_T_S4_S3_, symObjAddr: 0x123D10, symBinAddr: 0x100126520, symSize: 0x220 }
  - { offsetInCU: 0x48B31, offset: 0x48B31, size: 0x8, addend: 0x0, symName: __ZNSt3__14swapB7v160006IP16VkPresentModeKHREENS_9enable_ifIXaasr21is_move_constructibleIT_EE5valuesr18is_move_assignableIS4_EE5valueEvE4typeERS4_S7_, symObjAddr: 0x1244F0, symBinAddr: 0x100126D00, symSize: 0x100 }
  - { offsetInCU: 0x48B82, offset: 0x48B82, size: 0x8, addend: 0x0, symName: __ZNSt3__16__moveB7v160006INS_17_ClassicAlgPolicyEP16VkPresentModeKHRS3_S3_EENS_4pairIT0_T2_EES5_T1_S6_, symObjAddr: 0x1245F0, symBinAddr: 0x100126E00, symSize: 0x210 }
  - { offsetInCU: 0x48BF1, offset: 0x48BF1, size: 0x8, addend: 0x0, symName: __ZNSt3__123__dispatch_copy_or_moveB7v160006INS_17_ClassicAlgPolicyENS_11__move_loopIS1_EENS_14__move_trivialEP16VkPresentModeKHRS6_S6_EENS_4pairIT2_T4_EES8_T3_S9_, symObjAddr: 0x124800, symBinAddr: 0x100127010, symSize: 0x210 }
  - { offsetInCU: 0x48C72, offset: 0x48C72, size: 0x8, addend: 0x0, symName: __ZNSt3__121__unwrap_and_dispatchB7v160006INS_10__overloadINS_11__move_loopINS_17_ClassicAlgPolicyEEENS_14__move_trivialEEEP16VkPresentModeKHRS8_S8_Li0EEENS_4pairIT0_T2_EESA_T1_SB_, symObjAddr: 0x124A10, symBinAddr: 0x100127220, symSize: 0x650 }
  - { offsetInCU: 0x48D0B, offset: 0x48D0B, size: 0x8, addend: 0x0, symName: __ZNSt3__119__copy_trivial_implB7v160006I16VkPresentModeKHRS1_EENS_4pairIPT_PT0_EES4_S4_S6_, symObjAddr: 0x125270, symBinAddr: 0x100127A80, symSize: 0x350 }
  - { offsetInCU: 0x48D7A, offset: 0x48D7A, size: 0x8, addend: 0x0, symName: __ZNSt3__19make_pairB7v160006IRP16VkPresentModeKHRS2_EENS_4pairINS_18__unwrap_ref_decayIT_E4typeENS5_IT0_E4typeEEEOS6_OS9_, symObjAddr: 0x1255C0, symBinAddr: 0x100127DD0, symSize: 0x190 }
  - { offsetInCU: 0x48DCB, offset: 0x48DCB, size: 0x8, addend: 0x0, symName: __ZNSt3__18distanceB7v160006INS_13move_iteratorIP16VkPresentModeKHREEEENS_15iterator_traitsIT_E15difference_typeES6_S6_, symObjAddr: 0x125890, symBinAddr: 0x1001280A0, symSize: 0x2C0 }
  - { offsetInCU: 0x48E16, offset: 0x48E16, size: 0x8, addend: 0x0, symName: __ZNSt3__110__distanceB7v160006INS_13move_iteratorIP16VkPresentModeKHREEEENS_15iterator_traitsIT_E15difference_typeES6_S6_NS_26random_access_iterator_tagE, symObjAddr: 0x125C20, symBinAddr: 0x100128430, symSize: 0x1E0 }
  - { offsetInCU: 0x48E6D, offset: 0x48E6D, size: 0x8, addend: 0x0, symName: __ZNSt3__1miB7v160006IP16VkPresentModeKHRS2_EEDTmicldtfp_4baseEcldtfp0_4baseEERKNS_13move_iteratorIT_EERKNS4_IT0_EE, symObjAddr: 0x125E00, symBinAddr: 0x100128610, symSize: 0xA0 }
  - { offsetInCU: 0x48EBC, offset: 0x48EBC, size: 0x8, addend: 0x0, symName: __ZNSt3__142__uninitialized_allocator_move_if_noexceptB7v160006INS_9allocatorI16VkPresentModeKHREENS_16reverse_iteratorIPS2_EES6_S2_vEET1_RT_T0_SA_S7_, symObjAddr: 0x126180, symBinAddr: 0x100128990, symSize: 0x610 }
  - { offsetInCU: 0x48F46, offset: 0x48F46, size: 0x8, addend: 0x0, symName: __ZNSt3__142__uninitialized_allocator_move_if_noexceptB7v160006INS_9allocatorI16VkPresentModeKHREEPS2_S4_S2_vEET1_RT_T0_S8_S5_, symObjAddr: 0x126790, symBinAddr: 0x100128FA0, symSize: 0x30 }
  - { offsetInCU: 0x48FC3, offset: 0x48FC3, size: 0x8, addend: 0x0, symName: __ZNSt3__125__debug_db_invalidate_allB7v160006INS_6vectorI16VkPresentModeKHRNS_9allocatorIS2_EEEEEEvPT_, symObjAddr: 0x1267C0, symBinAddr: 0x100128FD0, symSize: 0x10 }
  - { offsetInCU: 0x48FF4, offset: 0x48FF4, size: 0x8, addend: 0x0, symName: __ZNSt3__14moveB7v160006INS_16reverse_iteratorIP16VkPresentModeKHREES4_EET0_T_S6_S5_, symObjAddr: 0x1267D0, symBinAddr: 0x100128FE0, symSize: 0x660 }
  - { offsetInCU: 0x4905B, offset: 0x4905B, size: 0x8, addend: 0x0, symName: __ZNSt3__16__moveB7v160006INS_17_ClassicAlgPolicyENS_16reverse_iteratorIP16VkPresentModeKHREES5_S5_EENS_4pairIT0_T2_EES7_T1_S8_, symObjAddr: 0x126E30, symBinAddr: 0x100129640, symSize: 0x550 }
  - { offsetInCU: 0x490D3, offset: 0x490D3, size: 0x8, addend: 0x0, symName: __ZNSt3__123__dispatch_copy_or_moveB7v160006INS_17_ClassicAlgPolicyENS_11__move_loopIS1_EENS_14__move_trivialENS_16reverse_iteratorIP16VkPresentModeKHREES8_S8_EENS_4pairIT2_T4_EESA_T3_SB_, symObjAddr: 0x127380, symBinAddr: 0x100129B90, symSize: 0x550 }
  - { offsetInCU: 0x4915D, offset: 0x4915D, size: 0x8, addend: 0x0, symName: __ZNSt3__121__unwrap_and_dispatchB7v160006INS_10__overloadINS_11__move_loopINS_17_ClassicAlgPolicyEEENS_14__move_trivialEEENS_16reverse_iteratorIP16VkPresentModeKHREESA_SA_Li0EEENS_4pairIT0_T2_EESC_T1_SD_, symObjAddr: 0x1278D0, symBinAddr: 0x10012A0E0, symSize: 0xD30 }
  - { offsetInCU: 0x49201, offset: 0x49201, size: 0x8, addend: 0x0, symName: __ZNSt3__114__unwrap_rangeB7v160006INS_16reverse_iteratorIP16VkPresentModeKHREES4_EEDaT_T0_, symObjAddr: 0x128600, symBinAddr: 0x10012AE10, symSize: 0x3E0 }
  - { offsetInCU: 0x4932A, offset: 0x4932A, size: 0x8, addend: 0x0, symName: __ZNSt3__113__unwrap_iterB7v160006INS_16reverse_iteratorIP16VkPresentModeKHREENS_18__unwrap_iter_implIS4_Lb0EEELi0EEEDTclsrT0_8__unwrapclsr3stdE7declvalIT_EEEES8_, symObjAddr: 0x128DA0, symBinAddr: 0x10012B5B0, symSize: 0x340 }
  - { offsetInCU: 0x49372, offset: 0x49372, size: 0x8, addend: 0x0, symName: __ZNSt3__19make_pairB7v160006INS_16reverse_iteratorIP16VkPresentModeKHREES4_EENS_4pairINS_18__unwrap_ref_decayIT_E4typeENS6_IT0_E4typeEEEOS7_OSA_, symObjAddr: 0x1290E0, symBinAddr: 0x10012B8F0, symSize: 0x30 }
  - { offsetInCU: 0x493C1, offset: 0x493C1, size: 0x8, addend: 0x0, symName: __ZNSt3__114__rewrap_rangeB7v160006INS_16reverse_iteratorIP16VkPresentModeKHREES4_S4_EET0_S5_T1_, symObjAddr: 0x129110, symBinAddr: 0x10012B920, symSize: 0x4E0 }
  - { offsetInCU: 0x4941E, offset: 0x4941E, size: 0x8, addend: 0x0, symName: __ZNSt3__113__rewrap_iterB7v160006INS_16reverse_iteratorIP16VkPresentModeKHREES4_NS_18__unwrap_iter_implIS4_Lb0EEEEET_S7_T0_, symObjAddr: 0x1295F0, symBinAddr: 0x10012BE00, symSize: 0x4F0 }
  - { offsetInCU: 0x4953A, offset: 0x4953A, size: 0x8, addend: 0x0, symName: __ZNSt3__118__debug_db_erase_cB7v160006INS_6vectorI29VkValidationFeatureDisableEXTNS_9allocatorIS2_EEEEEEvPT_, symObjAddr: 0x12CA80, symBinAddr: 0x10012F290, symSize: 0x10 }
  - { offsetInCU: 0x4956C, offset: 0x4956C, size: 0x8, addend: 0x0, symName: __ZNSt3__118__debug_db_erase_cB7v160006INS_6vectorI28VkValidationFeatureEnableEXTNS_9allocatorIS2_EEEEEEvPT_, symObjAddr: 0x12CFE0, symBinAddr: 0x10012F7F0, symSize: 0x10 }
  - { offsetInCU: 0x4959E, offset: 0x4959E, size: 0x8, addend: 0x0, symName: __ZNSt3__118__debug_db_erase_cB7v160006INS_6vectorI20VkValidationCheckEXTNS_9allocatorIS2_EEEEEEvPT_, symObjAddr: 0x12D540, symBinAddr: 0x10012FD50, symSize: 0x10 }
  - { offsetInCU: 0x495CF, offset: 0x495CF, size: 0x8, addend: 0x0, symName: __ZNSt3__1eqB7v160006IP23VkQueueFamilyPropertiesEEbRKNS_11__wrap_iterIT_EES7_, symObjAddr: 0x12D9B0, symBinAddr: 0x1001301C0, symSize: 0x40 }
  - { offsetInCU: 0x49612, offset: 0x49612, size: 0x8, addend: 0x0, symName: __ZNSt3__116__pad_and_outputB7v160006IcNS_11char_traitsIcEEEENS_19ostreambuf_iteratorIT_T0_EES6_PKS4_S8_S8_RNS_8ios_baseES4_, symObjAddr: 0x12E2D0, symBinAddr: 0x100130AE0, symSize: 0x6E0 }
  - { offsetInCU: 0x496EF, offset: 0x496EF, size: 0x8, addend: 0x0, symName: __ZNSt3__112__to_addressB7v160006IcEEPT_S2_, symObjAddr: 0x12EFA0, symBinAddr: 0x1001317B0, symSize: 0x10 }
  - { offsetInCU: 0x49724, offset: 0x49724, size: 0x8, addend: 0x0, symName: __ZNSt3__19use_facetB7v160006INS_5ctypeIcEEEERKT_RKNS_6localeE, symObjAddr: 0x12F390, symBinAddr: 0x100131BA0, symSize: 0x30 }
  - { offsetInCU: 0x49BFD, offset: 0x49BFD, size: 0x8, addend: 0x0, symName: __ZNSt3__115__debug_db_swapB7v160006INS_6vectorI17VkLayerPropertiesNS_9allocatorIS2_EEEEEEvPT_S7_, symObjAddr: 0x12FDD0, symBinAddr: 0x1001325E0, symSize: 0x10 }
  - { offsetInCU: 0x49C3D, offset: 0x49C3D, size: 0x8, addend: 0x0, symName: __ZNSt3__115__debug_db_swapB7v160006INS_6vectorI21VkExtensionPropertiesNS_9allocatorIS2_EEEEEEvPT_S7_, symObjAddr: 0x1302B0, symBinAddr: 0x100132AC0, symSize: 0x10 }
  - { offsetInCU: 0x49C7C, offset: 0x49C7C, size: 0x8, addend: 0x0, symName: __ZNSt3__112construct_atB7v160006I17VkLayerPropertiesJEPS1_EEPT_S4_DpOT0_, symObjAddr: 0x131840, symBinAddr: 0x100134050, symSize: 0x40 }
  - { offsetInCU: 0x49CDA, offset: 0x49CDA, size: 0x8, addend: 0x0, symName: __ZNSt3__142__uninitialized_allocator_move_if_noexceptB7v160006INS_9allocatorI17VkLayerPropertiesEENS_16reverse_iteratorIPS2_EES6_S2_vEET1_RT_T0_SA_S7_, symObjAddr: 0x132150, symBinAddr: 0x100134960, symSize: 0x610 }
  - { offsetInCU: 0x49D64, offset: 0x49D64, size: 0x8, addend: 0x0, symName: __ZNSt3__14swapB7v160006IP17VkLayerPropertiesEENS_9enable_ifIXaasr21is_move_constructibleIT_EE5valuesr18is_move_assignableIS4_EE5valueEvE4typeERS4_S7_, symObjAddr: 0x132760, symBinAddr: 0x100134F70, symSize: 0x100 }
  - { offsetInCU: 0x49DB5, offset: 0x49DB5, size: 0x8, addend: 0x0, symName: __ZNSt3__14moveB7v160006INS_16reverse_iteratorIP17VkLayerPropertiesEES4_EET0_T_S6_S5_, symObjAddr: 0x132860, symBinAddr: 0x100135070, symSize: 0x660 }
  - { offsetInCU: 0x49E1C, offset: 0x49E1C, size: 0x8, addend: 0x0, symName: __ZNSt3__16__moveB7v160006INS_17_ClassicAlgPolicyENS_16reverse_iteratorIP17VkLayerPropertiesEES5_S5_EENS_4pairIT0_T2_EES7_T1_S8_, symObjAddr: 0x132EC0, symBinAddr: 0x1001356D0, symSize: 0x550 }
  - { offsetInCU: 0x49E94, offset: 0x49E94, size: 0x8, addend: 0x0, symName: __ZNSt3__123__dispatch_copy_or_moveB7v160006INS_17_ClassicAlgPolicyENS_11__move_loopIS1_EENS_14__move_trivialENS_16reverse_iteratorIP17VkLayerPropertiesEES8_S8_EENS_4pairIT2_T4_EESA_T3_SB_, symObjAddr: 0x133410, symBinAddr: 0x100135C20, symSize: 0x550 }
  - { offsetInCU: 0x49F1E, offset: 0x49F1E, size: 0x8, addend: 0x0, symName: __ZNSt3__121__unwrap_and_dispatchB7v160006INS_10__overloadINS_11__move_loopINS_17_ClassicAlgPolicyEEENS_14__move_trivialEEENS_16reverse_iteratorIP17VkLayerPropertiesEESA_SA_Li0EEENS_4pairIT0_T2_EESC_T1_SD_, symObjAddr: 0x133960, symBinAddr: 0x100136170, symSize: 0xD30 }
  - { offsetInCU: 0x49FC2, offset: 0x49FC2, size: 0x8, addend: 0x0, symName: __ZNSt3__114__unwrap_rangeB7v160006INS_16reverse_iteratorIP17VkLayerPropertiesEES4_EEDaT_T0_, symObjAddr: 0x134690, symBinAddr: 0x100136EA0, symSize: 0x3E0 }
  - { offsetInCU: 0x4A0EB, offset: 0x4A0EB, size: 0x8, addend: 0x0, symName: __ZNSt3__113__unwrap_iterB7v160006INS_16reverse_iteratorIP17VkLayerPropertiesEENS_18__unwrap_iter_implIS4_Lb0EEELi0EEEDTclsrT0_8__unwrapclsr3stdE7declvalIT_EEEES8_, symObjAddr: 0x134D90, symBinAddr: 0x1001375A0, symSize: 0x340 }
  - { offsetInCU: 0x4A133, offset: 0x4A133, size: 0x8, addend: 0x0, symName: __ZNSt3__19make_pairB7v160006INS_16reverse_iteratorIP17VkLayerPropertiesEES4_EENS_4pairINS_18__unwrap_ref_decayIT_E4typeENS6_IT0_E4typeEEEOS7_OSA_, symObjAddr: 0x1350D0, symBinAddr: 0x1001378E0, symSize: 0x30 }
  - { offsetInCU: 0x4A182, offset: 0x4A182, size: 0x8, addend: 0x0, symName: __ZNSt3__114__rewrap_rangeB7v160006INS_16reverse_iteratorIP17VkLayerPropertiesEES4_S4_EET0_S5_T1_, symObjAddr: 0x135100, symBinAddr: 0x100137910, symSize: 0x4E0 }
  - { offsetInCU: 0x4A1DF, offset: 0x4A1DF, size: 0x8, addend: 0x0, symName: __ZNSt3__113__rewrap_iterB7v160006INS_16reverse_iteratorIP17VkLayerPropertiesEES4_NS_18__unwrap_iter_implIS4_Lb0EEEEET_S7_T0_, symObjAddr: 0x1355E0, symBinAddr: 0x100137DF0, symSize: 0x4F0 }
  - { offsetInCU: 0x4A2FA, offset: 0x4A2FA, size: 0x8, addend: 0x0, symName: __ZNSt3__112construct_atB7v160006I21VkExtensionPropertiesJEPS1_EEPT_S4_DpOT0_, symObjAddr: 0x1380C0, symBinAddr: 0x10013A8D0, symSize: 0x40 }
  - { offsetInCU: 0x4A36B, offset: 0x4A36B, size: 0x8, addend: 0x0, symName: __ZNSt3__112construct_atB7v160006I23VkQueueFamilyPropertiesJEPS1_EEPT_S4_DpOT0_, symObjAddr: 0x139A80, symBinAddr: 0x10013C290, symSize: 0x40 }
  - { offsetInCU: 0x4A3C9, offset: 0x4A3C9, size: 0x8, addend: 0x0, symName: __ZNSt3__142__uninitialized_allocator_move_if_noexceptB7v160006INS_9allocatorI23VkQueueFamilyPropertiesEENS_16reverse_iteratorIPS2_EES6_S2_vEET1_RT_T0_SA_S7_, symObjAddr: 0x13A370, symBinAddr: 0x10013CB80, symSize: 0x610 }
  - { offsetInCU: 0x4A453, offset: 0x4A453, size: 0x8, addend: 0x0, symName: __ZNSt3__14swapB7v160006IP23VkQueueFamilyPropertiesEENS_9enable_ifIXaasr21is_move_constructibleIT_EE5valuesr18is_move_assignableIS4_EE5valueEvE4typeERS4_S7_, symObjAddr: 0x13A980, symBinAddr: 0x10013D190, symSize: 0x100 }
  - { offsetInCU: 0x4A4A4, offset: 0x4A4A4, size: 0x8, addend: 0x0, symName: __ZNSt3__14moveB7v160006INS_16reverse_iteratorIP23VkQueueFamilyPropertiesEES4_EET0_T_S6_S5_, symObjAddr: 0x13AA80, symBinAddr: 0x10013D290, symSize: 0x660 }
  - { offsetInCU: 0x4A50B, offset: 0x4A50B, size: 0x8, addend: 0x0, symName: __ZNSt3__16__moveB7v160006INS_17_ClassicAlgPolicyENS_16reverse_iteratorIP23VkQueueFamilyPropertiesEES5_S5_EENS_4pairIT0_T2_EES7_T1_S8_, symObjAddr: 0x13B0E0, symBinAddr: 0x10013D8F0, symSize: 0x550 }
  - { offsetInCU: 0x4A583, offset: 0x4A583, size: 0x8, addend: 0x0, symName: __ZNSt3__123__dispatch_copy_or_moveB7v160006INS_17_ClassicAlgPolicyENS_11__move_loopIS1_EENS_14__move_trivialENS_16reverse_iteratorIP23VkQueueFamilyPropertiesEES8_S8_EENS_4pairIT2_T4_EESA_T3_SB_, symObjAddr: 0x13B630, symBinAddr: 0x10013DE40, symSize: 0x550 }
  - { offsetInCU: 0x4A60D, offset: 0x4A60D, size: 0x8, addend: 0x0, symName: __ZNSt3__121__unwrap_and_dispatchB7v160006INS_10__overloadINS_11__move_loopINS_17_ClassicAlgPolicyEEENS_14__move_trivialEEENS_16reverse_iteratorIP23VkQueueFamilyPropertiesEESA_SA_Li0EEENS_4pairIT0_T2_EESC_T1_SD_, symObjAddr: 0x13BB80, symBinAddr: 0x10013E390, symSize: 0xD30 }
  - { offsetInCU: 0x4A6B1, offset: 0x4A6B1, size: 0x8, addend: 0x0, symName: __ZNSt3__114__unwrap_rangeB7v160006INS_16reverse_iteratorIP23VkQueueFamilyPropertiesEES4_EEDaT_T0_, symObjAddr: 0x13C8B0, symBinAddr: 0x10013F0C0, symSize: 0x3E0 }
  - { offsetInCU: 0x4A7DA, offset: 0x4A7DA, size: 0x8, addend: 0x0, symName: __ZNSt3__113__unwrap_iterB7v160006INS_16reverse_iteratorIP23VkQueueFamilyPropertiesEENS_18__unwrap_iter_implIS4_Lb0EEELi0EEEDTclsrT0_8__unwrapclsr3stdE7declvalIT_EEEES8_, symObjAddr: 0x13CFB0, symBinAddr: 0x10013F7C0, symSize: 0x340 }
  - { offsetInCU: 0x4A822, offset: 0x4A822, size: 0x8, addend: 0x0, symName: __ZNSt3__19make_pairB7v160006INS_16reverse_iteratorIP23VkQueueFamilyPropertiesEES4_EENS_4pairINS_18__unwrap_ref_decayIT_E4typeENS6_IT0_E4typeEEEOS7_OSA_, symObjAddr: 0x13D2F0, symBinAddr: 0x10013FB00, symSize: 0x30 }
  - { offsetInCU: 0x4A871, offset: 0x4A871, size: 0x8, addend: 0x0, symName: __ZNSt3__114__rewrap_rangeB7v160006INS_16reverse_iteratorIP23VkQueueFamilyPropertiesEES4_S4_EET0_S5_T1_, symObjAddr: 0x13D320, symBinAddr: 0x10013FB30, symSize: 0x4E0 }
  - { offsetInCU: 0x4A8CE, offset: 0x4A8CE, size: 0x8, addend: 0x0, symName: __ZNSt3__113__rewrap_iterB7v160006INS_16reverse_iteratorIP23VkQueueFamilyPropertiesEES4_NS_18__unwrap_iter_implIS4_Lb0EEEEET_S7_T0_, symObjAddr: 0x13D800, symBinAddr: 0x100140010, symSize: 0x4F0 }
  - { offsetInCU: 0x4A9E9, offset: 0x4A9E9, size: 0x8, addend: 0x0, symName: __ZNSt3__112construct_atB7v160006I18VkSurfaceFormatKHRJEPS1_EEPT_S4_DpOT0_, symObjAddr: 0x13FC00, symBinAddr: 0x100142410, symSize: 0x40 }
  - { offsetInCU: 0x4AA47, offset: 0x4AA47, size: 0x8, addend: 0x0, symName: __ZNSt3__112construct_atB7v160006I16VkPresentModeKHRJEPS1_EEPT_S4_DpOT0_, symObjAddr: 0x1407B0, symBinAddr: 0x100142FC0, symSize: 0x70 }
  - { offsetInCU: 0x4AACC, offset: 0x4AACC, size: 0x8, addend: 0x0, symName: __ZNSt3__112construct_atB7v160006IP18VkPhysicalDevice_TJEPS2_EEPT_S5_DpOT0_, symObjAddr: 0x142630, symBinAddr: 0x100144E40, symSize: 0x60 }
  - { offsetInCU: 0x4AB2A, offset: 0x4AB2A, size: 0x8, addend: 0x0, symName: __ZNSt3__119__allocate_at_leastB7v160006INS_9allocatorIP18VkPhysicalDevice_TEEEENS_19__allocation_resultINS_16allocator_traitsIT_E7pointerEEERS7_m, symObjAddr: 0x143140, symBinAddr: 0x100145950, symSize: 0x210 }
  - { offsetInCU: 0x4AB6F, offset: 0x4AB6F, size: 0x8, addend: 0x0, symName: __ZNSt3__142__uninitialized_allocator_move_if_noexceptB7v160006INS_9allocatorIP18VkPhysicalDevice_TEENS_16reverse_iteratorIPS3_EES7_S3_vEET1_RT_T0_SB_S8_, symObjAddr: 0x143790, symBinAddr: 0x100145FA0, symSize: 0x610 }
  - { offsetInCU: 0x4ABF9, offset: 0x4ABF9, size: 0x8, addend: 0x0, symName: __ZNSt3__14swapB7v160006IPP18VkPhysicalDevice_TEENS_9enable_ifIXaasr21is_move_constructibleIT_EE5valuesr18is_move_assignableIS5_EE5valueEvE4typeERS5_S8_, symObjAddr: 0x143E20, symBinAddr: 0x100146630, symSize: 0x100 }
  - { offsetInCU: 0x4AC4B, offset: 0x4AC4B, size: 0x8, addend: 0x0, symName: __ZNSt3__125__debug_db_invalidate_allB7v160006INS_6vectorIP18VkPhysicalDevice_TNS_9allocatorIS3_EEEEEEvPT_, symObjAddr: 0x143FD0, symBinAddr: 0x1001467E0, symSize: 0x10 }
  - { offsetInCU: 0x4AC7C, offset: 0x4AC7C, size: 0x8, addend: 0x0, symName: __ZNSt3__14moveB7v160006INS_16reverse_iteratorIPP18VkPhysicalDevice_TEES5_EET0_T_S7_S6_, symObjAddr: 0x143FE0, symBinAddr: 0x1001467F0, symSize: 0x660 }
  - { offsetInCU: 0x4ACE3, offset: 0x4ACE3, size: 0x8, addend: 0x0, symName: __ZNSt3__16__moveB7v160006INS_17_ClassicAlgPolicyENS_16reverse_iteratorIPP18VkPhysicalDevice_TEES6_S6_EENS_4pairIT0_T2_EES8_T1_S9_, symObjAddr: 0x144640, symBinAddr: 0x100146E50, symSize: 0x550 }
  - { offsetInCU: 0x4AD5B, offset: 0x4AD5B, size: 0x8, addend: 0x0, symName: __ZNSt3__123__dispatch_copy_or_moveB7v160006INS_17_ClassicAlgPolicyENS_11__move_loopIS1_EENS_14__move_trivialENS_16reverse_iteratorIPP18VkPhysicalDevice_TEES9_S9_EENS_4pairIT2_T4_EESB_T3_SC_, symObjAddr: 0x144B90, symBinAddr: 0x1001473A0, symSize: 0x550 }
  - { offsetInCU: 0x4ADE5, offset: 0x4ADE5, size: 0x8, addend: 0x0, symName: __ZNSt3__121__unwrap_and_dispatchB7v160006INS_10__overloadINS_11__move_loopINS_17_ClassicAlgPolicyEEENS_14__move_trivialEEENS_16reverse_iteratorIPP18VkPhysicalDevice_TEESB_SB_Li0EEENS_4pairIT0_T2_EESD_T1_SE_, symObjAddr: 0x1450E0, symBinAddr: 0x1001478F0, symSize: 0xD30 }
  - { offsetInCU: 0x4AE89, offset: 0x4AE89, size: 0x8, addend: 0x0, symName: __ZNSt3__114__unwrap_rangeB7v160006INS_16reverse_iteratorIPP18VkPhysicalDevice_TEES5_EEDaT_T0_, symObjAddr: 0x145E10, symBinAddr: 0x100148620, symSize: 0x3E0 }
  - { offsetInCU: 0x4AFB2, offset: 0x4AFB2, size: 0x8, addend: 0x0, symName: __ZNSt3__113__unwrap_iterB7v160006INS_16reverse_iteratorIPP18VkPhysicalDevice_TEENS_18__unwrap_iter_implIS5_Lb0EEELi0EEEDTclsrT0_8__unwrapclsr3stdE7declvalIT_EEEES9_, symObjAddr: 0x146570, symBinAddr: 0x100148D80, symSize: 0x340 }
  - { offsetInCU: 0x4AFFA, offset: 0x4AFFA, size: 0x8, addend: 0x0, symName: __ZNSt3__19make_pairB7v160006INS_16reverse_iteratorIPP18VkPhysicalDevice_TEES5_EENS_4pairINS_18__unwrap_ref_decayIT_E4typeENS7_IT0_E4typeEEEOS8_OSB_, symObjAddr: 0x1468B0, symBinAddr: 0x1001490C0, symSize: 0x30 }
  - { offsetInCU: 0x4B049, offset: 0x4B049, size: 0x8, addend: 0x0, symName: __ZNSt3__114__rewrap_rangeB7v160006INS_16reverse_iteratorIPP18VkPhysicalDevice_TEES5_S5_EET0_S6_T1_, symObjAddr: 0x1468E0, symBinAddr: 0x1001490F0, symSize: 0x4E0 }
  - { offsetInCU: 0x4B0A6, offset: 0x4B0A6, size: 0x8, addend: 0x0, symName: __ZNSt3__113__rewrap_iterB7v160006INS_16reverse_iteratorIPP18VkPhysicalDevice_TEES5_NS_18__unwrap_iter_implIS5_Lb0EEEEET_S8_T0_, symObjAddr: 0x146DC0, symBinAddr: 0x1001495D0, symSize: 0x4F0 }
  - { offsetInCU: 0x4B153, offset: 0x4B153, size: 0x8, addend: 0x0, symName: __ZNSt3__1neB7v160006IPP18VkPhysicalDevice_TS3_EEbRKNS_16reverse_iteratorIT_EERKNS4_IT0_EE, symObjAddr: 0x1478D0, symBinAddr: 0x10014A0E0, symSize: 0x40 }
  - { offsetInCU: 0x4B20E, offset: 0x4B20E, size: 0x8, addend: 0x0, symName: __ZNSt3__115__debug_db_swapB7v160006INS_6vectorIN3vkb14PhysicalDeviceENS_9allocatorIS3_EEEEEEvPT_S8_, symObjAddr: 0x148D50, symBinAddr: 0x10014B560, symSize: 0x10 }
  - { offsetInCU: 0x4B24E, offset: 0x4B24E, size: 0x8, addend: 0x0, symName: '__ZNSt3__118__stable_partitionB7v160006INS_17_ClassicAlgPolicyERZNK3vkb22PhysicalDeviceSelector11select_implENS2_19DeviceSelectionModeEE3$_5NS_11__wrap_iterIPNS2_14PhysicalDeviceEEENS_26random_access_iterator_tagEEET1_SC_SC_OT0_T2_', symObjAddr: 0x148DB0, symBinAddr: 0x10014B5C0, symSize: 0x380 }
  - { offsetInCU: 0x4B2D8, offset: 0x4B2D8, size: 0x8, addend: 0x0, symName: '__ZNSt3__123__stable_partition_implB7v160006INS_17_ClassicAlgPolicyERZNK3vkb22PhysicalDeviceSelector11select_implENS2_19DeviceSelectionModeEE3$_5NS_11__wrap_iterIPNS2_14PhysicalDeviceEEEEET1_SB_SB_T0_NS_26bidirectional_iterator_tagE', symObjAddr: 0x149130, symBinAddr: 0x10014B940, symSize: 0xA00 }
  - { offsetInCU: 0x4B7AC, offset: 0x4B7AC, size: 0x8, addend: 0x0, symName: __ZNSt3__120get_temporary_bufferB7v160006IN3vkb14PhysicalDeviceEEENS_4pairIPT_lEEl, symObjAddr: 0x149F10, symBinAddr: 0x10014C720, symSize: 0x360 }
  - { offsetInCU: 0x4B803, offset: 0x4B803, size: 0x8, addend: 0x0, symName: '__ZNSt3__123__stable_partition_implINS_17_ClassicAlgPolicyERZNK3vkb22PhysicalDeviceSelector11select_implENS2_19DeviceSelectionModeEE3$_5NS_11__wrap_iterIPNS2_14PhysicalDeviceEEElNS_4pairIS9_lEEEET1_SD_SD_T0_T2_T3_NS_26bidirectional_iterator_tagE', symObjAddr: 0x14A460, symBinAddr: 0x10014CC70, symSize: 0x1460 }
  - { offsetInCU: 0x4B9E0, offset: 0x4B9E0, size: 0x8, addend: 0x0, symName: __ZNSt3__18distanceB7v160006INS_11__wrap_iterIPN3vkb14PhysicalDeviceEEEEENS_15iterator_traitsIT_E15difference_typeES7_S7_, symObjAddr: 0x14B8E0, symBinAddr: 0x10014E0F0, symSize: 0x2C0 }
  - { offsetInCU: 0x4BA2B, offset: 0x4BA2B, size: 0x8, addend: 0x0, symName: __ZNSt3__110__distanceB7v160006INS_11__wrap_iterIPN3vkb14PhysicalDeviceEEEEENS_15iterator_traitsIT_E15difference_typeES7_S7_NS_26random_access_iterator_tagE, symObjAddr: 0x14BBA0, symBinAddr: 0x10014E3B0, symSize: 0x1E0 }
  - { offsetInCU: 0x4BA82, offset: 0x4BA82, size: 0x8, addend: 0x0, symName: __ZNSt3__1miB7v160006IPN3vkb14PhysicalDeviceES3_EEDTmicldtfp_4baseEcldtfp0_4baseEERKNS_11__wrap_iterIT_EERKNS5_IT0_EE, symObjAddr: 0x14BD80, symBinAddr: 0x10014E590, symSize: 0x40 }
  - { offsetInCU: 0x4BACF, offset: 0x4BACF, size: 0x8, addend: 0x0, symName: __ZNSt3__123return_temporary_bufferB7v160006IN3vkb14PhysicalDeviceEEEvPT_, symObjAddr: 0x14C170, symBinAddr: 0x10014E980, symSize: 0x40 }
  - { offsetInCU: 0x4BB00, offset: 0x4BB00, size: 0x8, addend: 0x0, symName: __ZNSt3__127__libcpp_deallocate_unsizedB7v160006EPvm, symObjAddr: 0x14C1B0, symBinAddr: 0x10014E9C0, symSize: 0x50 }
  - { offsetInCU: 0x4BF77, offset: 0x4BF77, size: 0x8, addend: 0x0, symName: __ZNSt3__18__rotateB7v160006INS_17_ClassicAlgPolicyENS_11__wrap_iterIPN3vkb14PhysicalDeviceEEES6_EENS_4pairIT0_S8_EES8_S8_T1_, symObjAddr: 0x14C4E0, symBinAddr: 0x10014ECF0, symSize: 0x620 }
  - { offsetInCU: 0x4C00E, offset: 0x4C00E, size: 0x8, addend: 0x0, symName: __ZNSt3__19iter_swapB7v160006INS_11__wrap_iterIPN3vkb14PhysicalDeviceEEES5_EEvT_T0_, symObjAddr: 0x14CB00, symBinAddr: 0x10014F310, symSize: 0x1F0 }
  - { offsetInCU: 0x4C05E, offset: 0x4C05E, size: 0x8, addend: 0x0, symName: __ZNSt3__14swapB7v160006IN3vkb14PhysicalDeviceEEENS_9enable_ifIXaasr21is_move_constructibleIT_EE5valuesr18is_move_assignableIS4_EE5valueEvE4typeERS4_S7_, symObjAddr: 0x14CCF0, symBinAddr: 0x10014F500, symSize: 0x1C0 }
  - { offsetInCU: 0x4C0B6, offset: 0x4C0B6, size: 0x8, addend: 0x0, symName: __ZNSt3__19__advanceB7v160006INS_11__wrap_iterIPN3vkb14PhysicalDeviceEEEEEvRT_NS_15iterator_traitsIS6_E15difference_typeENS_26random_access_iterator_tagE, symObjAddr: 0x14D500, symBinAddr: 0x10014FD10, symSize: 0x30 }
  - { offsetInCU: 0x4C205, offset: 0x4C205, size: 0x8, addend: 0x0, symName: __ZNSt3__113__rotate_implB7v160006INS_17_ClassicAlgPolicyENS_11__wrap_iterIPN3vkb14PhysicalDeviceEEEEET0_S7_S7_S7_NS_26random_access_iterator_tagE, symObjAddr: 0x14D820, symBinAddr: 0x100150030, symSize: 0x420 }
  - { offsetInCU: 0x4C278, offset: 0x4C278, size: 0x8, addend: 0x0, symName: __ZNSt3__116__rotate_forwardB7v160006INS_17_ClassicAlgPolicyENS_11__wrap_iterIPN3vkb14PhysicalDeviceEEEEET0_S7_S7_S7_, symObjAddr: 0x14DCE0, symBinAddr: 0x1001504F0, symSize: 0x430 }
  - { offsetInCU: 0x4C304, offset: 0x4C304, size: 0x8, addend: 0x0, symName: __ZNSt3__130__uninitialized_allocator_copyB7v160006INS_9allocatorIN3vkb14PhysicalDeviceEEEPS3_S5_S5_EET2_RT_T0_T1_S6_, symObjAddr: 0x14EDB0, symBinAddr: 0x1001515C0, symSize: 0x550 }
  - { offsetInCU: 0x4C3B0, offset: 0x4C3B0, size: 0x8, addend: 0x0, symName: __ZNSt3__112construct_atB7v160006IN3vkb14PhysicalDeviceEJRS2_EPS2_EEPT_S6_DpOT0_, symObjAddr: 0x14F330, symBinAddr: 0x100151B40, symSize: 0x40 }
  - { offsetInCU: 0x4C422, offset: 0x4C422, size: 0x8, addend: 0x0, symName: __ZNSt3__112construct_atB7v160006IN3vkb6detail24GenericFeaturesPNextNodeEJS3_EPS3_EEPT_S6_DpOT0_, symObjAddr: 0x14FDB0, symBinAddr: 0x1001525C0, symSize: 0x40 }
  - { offsetInCU: 0x4C494, offset: 0x4C494, size: 0x8, addend: 0x0, symName: __ZNSt3__142__uninitialized_allocator_move_if_noexceptB7v160006INS_9allocatorIN3vkb6detail24GenericFeaturesPNextNodeEEENS_16reverse_iteratorIPS4_EES8_S4_vEET1_RT_T0_SC_S9_, symObjAddr: 0x150B80, symBinAddr: 0x100153390, symSize: 0x610 }
  - { offsetInCU: 0x4C51E, offset: 0x4C51E, size: 0x8, addend: 0x0, symName: __ZNSt3__14swapB7v160006IPN3vkb6detail24GenericFeaturesPNextNodeEEENS_9enable_ifIXaasr21is_move_constructibleIT_EE5valuesr18is_move_assignableIS6_EE5valueEvE4typeERS6_S9_, symObjAddr: 0x151190, symBinAddr: 0x1001539A0, symSize: 0x100 }
  - { offsetInCU: 0x4C56F, offset: 0x4C56F, size: 0x8, addend: 0x0, symName: __ZNSt3__14moveB7v160006INS_16reverse_iteratorIPN3vkb6detail24GenericFeaturesPNextNodeEEES6_EET0_T_S8_S7_, symObjAddr: 0x151290, symBinAddr: 0x100153AA0, symSize: 0x660 }
  - { offsetInCU: 0x4C5D6, offset: 0x4C5D6, size: 0x8, addend: 0x0, symName: __ZNSt3__16__moveB7v160006INS_17_ClassicAlgPolicyENS_16reverse_iteratorIPN3vkb6detail24GenericFeaturesPNextNodeEEES7_S7_EENS_4pairIT0_T2_EES9_T1_SA_, symObjAddr: 0x1518F0, symBinAddr: 0x100154100, symSize: 0x550 }
  - { offsetInCU: 0x4C64E, offset: 0x4C64E, size: 0x8, addend: 0x0, symName: __ZNSt3__123__dispatch_copy_or_moveB7v160006INS_17_ClassicAlgPolicyENS_11__move_loopIS1_EENS_14__move_trivialENS_16reverse_iteratorIPN3vkb6detail24GenericFeaturesPNextNodeEEESA_SA_EENS_4pairIT2_T4_EESC_T3_SD_, symObjAddr: 0x151E40, symBinAddr: 0x100154650, symSize: 0x550 }
  - { offsetInCU: 0x4C6D8, offset: 0x4C6D8, size: 0x8, addend: 0x0, symName: __ZNSt3__121__unwrap_and_dispatchB7v160006INS_10__overloadINS_11__move_loopINS_17_ClassicAlgPolicyEEENS_14__move_trivialEEENS_16reverse_iteratorIPN3vkb6detail24GenericFeaturesPNextNodeEEESC_SC_Li0EEENS_4pairIT0_T2_EESE_T1_SF_, symObjAddr: 0x152390, symBinAddr: 0x100154BA0, symSize: 0xD30 }
  - { offsetInCU: 0x4C77C, offset: 0x4C77C, size: 0x8, addend: 0x0, symName: __ZNSt3__114__unwrap_rangeB7v160006INS_16reverse_iteratorIPN3vkb6detail24GenericFeaturesPNextNodeEEES6_EEDaT_T0_, symObjAddr: 0x1530C0, symBinAddr: 0x1001558D0, symSize: 0x3E0 }
  - { offsetInCU: 0x4C8A5, offset: 0x4C8A5, size: 0x8, addend: 0x0, symName: __ZNSt3__113__unwrap_iterB7v160006INS_16reverse_iteratorIPN3vkb6detail24GenericFeaturesPNextNodeEEENS_18__unwrap_iter_implIS6_Lb0EEELi0EEEDTclsrT0_8__unwrapclsr3stdE7declvalIT_EEEESA_, symObjAddr: 0x1537C0, symBinAddr: 0x100155FD0, symSize: 0x340 }
  - { offsetInCU: 0x4C8ED, offset: 0x4C8ED, size: 0x8, addend: 0x0, symName: __ZNSt3__19make_pairB7v160006INS_16reverse_iteratorIPN3vkb6detail24GenericFeaturesPNextNodeEEES6_EENS_4pairINS_18__unwrap_ref_decayIT_E4typeENS8_IT0_E4typeEEEOS9_OSC_, symObjAddr: 0x153B00, symBinAddr: 0x100156310, symSize: 0x30 }
  - { offsetInCU: 0x4C93C, offset: 0x4C93C, size: 0x8, addend: 0x0, symName: __ZNSt3__114__rewrap_rangeB7v160006INS_16reverse_iteratorIPN3vkb6detail24GenericFeaturesPNextNodeEEES6_S6_EET0_S7_T1_, symObjAddr: 0x153B30, symBinAddr: 0x100156340, symSize: 0x4E0 }
  - { offsetInCU: 0x4C999, offset: 0x4C999, size: 0x8, addend: 0x0, symName: __ZNSt3__113__rewrap_iterB7v160006INS_16reverse_iteratorIPN3vkb6detail24GenericFeaturesPNextNodeEEES6_NS_18__unwrap_iter_implIS6_Lb0EEEEET_S9_T0_, symObjAddr: 0x154010, symBinAddr: 0x100156820, symSize: 0x4F0 }
  - { offsetInCU: 0x4CAB5, offset: 0x4CAB5, size: 0x8, addend: 0x0, symName: __ZNSt3__115__debug_db_swapB7v160006INS_6vectorI18VkSurfaceFormatKHRNS_9allocatorIS2_EEEEEEvPT_S7_, symObjAddr: 0x157530, symBinAddr: 0x100159D40, symSize: 0x10 }
  - { offsetInCU: 0x4CAF5, offset: 0x4CAF5, size: 0x8, addend: 0x0, symName: __ZNSt3__115__debug_db_swapB7v160006INS_6vectorI16VkPresentModeKHRNS_9allocatorIS2_EEEEEEvPT_S7_, symObjAddr: 0x157A10, symBinAddr: 0x10015A220, symSize: 0x10 }
  - { offsetInCU: 0x4CB5B, offset: 0x4CB5B, size: 0x8, addend: 0x0, symName: __ZNSt3__112construct_atB7v160006IP9VkImage_TJEPS2_EEPT_S5_DpOT0_, symObjAddr: 0x159F20, symBinAddr: 0x10015C730, symSize: 0x60 }
  - { offsetInCU: 0x4CBB9, offset: 0x4CBB9, size: 0x8, addend: 0x0, symName: __ZNSt3__119__allocate_at_leastB7v160006INS_9allocatorIP9VkImage_TEEEENS_19__allocation_resultINS_16allocator_traitsIT_E7pointerEEERS7_m, symObjAddr: 0x15AA30, symBinAddr: 0x10015D240, symSize: 0x210 }
  - { offsetInCU: 0x4CBFE, offset: 0x4CBFE, size: 0x8, addend: 0x0, symName: __ZNSt3__142__uninitialized_allocator_move_if_noexceptB7v160006INS_9allocatorIP9VkImage_TEENS_16reverse_iteratorIPS3_EES7_S3_vEET1_RT_T0_SB_S8_, symObjAddr: 0x15B080, symBinAddr: 0x10015D890, symSize: 0x610 }
  - { offsetInCU: 0x4CC88, offset: 0x4CC88, size: 0x8, addend: 0x0, symName: __ZNSt3__14swapB7v160006IPP9VkImage_TEENS_9enable_ifIXaasr21is_move_constructibleIT_EE5valuesr18is_move_assignableIS5_EE5valueEvE4typeERS5_S8_, symObjAddr: 0x15B710, symBinAddr: 0x10015DF20, symSize: 0x100 }
  - { offsetInCU: 0x4CCDA, offset: 0x4CCDA, size: 0x8, addend: 0x0, symName: __ZNSt3__125__debug_db_invalidate_allB7v160006INS_6vectorIP9VkImage_TNS_9allocatorIS3_EEEEEEvPT_, symObjAddr: 0x15B8C0, symBinAddr: 0x10015E0D0, symSize: 0x10 }
  - { offsetInCU: 0x4CD0B, offset: 0x4CD0B, size: 0x8, addend: 0x0, symName: __ZNSt3__14moveB7v160006INS_16reverse_iteratorIPP9VkImage_TEES5_EET0_T_S7_S6_, symObjAddr: 0x15B8D0, symBinAddr: 0x10015E0E0, symSize: 0x660 }
  - { offsetInCU: 0x4CD72, offset: 0x4CD72, size: 0x8, addend: 0x0, symName: __ZNSt3__16__moveB7v160006INS_17_ClassicAlgPolicyENS_16reverse_iteratorIPP9VkImage_TEES6_S6_EENS_4pairIT0_T2_EES8_T1_S9_, symObjAddr: 0x15BF30, symBinAddr: 0x10015E740, symSize: 0x550 }
  - { offsetInCU: 0x4CDEA, offset: 0x4CDEA, size: 0x8, addend: 0x0, symName: __ZNSt3__123__dispatch_copy_or_moveB7v160006INS_17_ClassicAlgPolicyENS_11__move_loopIS1_EENS_14__move_trivialENS_16reverse_iteratorIPP9VkImage_TEES9_S9_EENS_4pairIT2_T4_EESB_T3_SC_, symObjAddr: 0x15C480, symBinAddr: 0x10015EC90, symSize: 0x550 }
  - { offsetInCU: 0x4CE74, offset: 0x4CE74, size: 0x8, addend: 0x0, symName: __ZNSt3__121__unwrap_and_dispatchB7v160006INS_10__overloadINS_11__move_loopINS_17_ClassicAlgPolicyEEENS_14__move_trivialEEENS_16reverse_iteratorIPP9VkImage_TEESB_SB_Li0EEENS_4pairIT0_T2_EESD_T1_SE_, symObjAddr: 0x15C9D0, symBinAddr: 0x10015F1E0, symSize: 0xD30 }
  - { offsetInCU: 0x4CF18, offset: 0x4CF18, size: 0x8, addend: 0x0, symName: __ZNSt3__114__unwrap_rangeB7v160006INS_16reverse_iteratorIPP9VkImage_TEES5_EEDaT_T0_, symObjAddr: 0x15D700, symBinAddr: 0x10015FF10, symSize: 0x3E0 }
  - { offsetInCU: 0x4D041, offset: 0x4D041, size: 0x8, addend: 0x0, symName: __ZNSt3__113__unwrap_iterB7v160006INS_16reverse_iteratorIPP9VkImage_TEENS_18__unwrap_iter_implIS5_Lb0EEELi0EEEDTclsrT0_8__unwrapclsr3stdE7declvalIT_EEEES9_, symObjAddr: 0x15DE60, symBinAddr: 0x100160670, symSize: 0x340 }
  - { offsetInCU: 0x4D089, offset: 0x4D089, size: 0x8, addend: 0x0, symName: __ZNSt3__19make_pairB7v160006INS_16reverse_iteratorIPP9VkImage_TEES5_EENS_4pairINS_18__unwrap_ref_decayIT_E4typeENS7_IT0_E4typeEEEOS8_OSB_, symObjAddr: 0x15E1A0, symBinAddr: 0x1001609B0, symSize: 0x30 }
  - { offsetInCU: 0x4D0D8, offset: 0x4D0D8, size: 0x8, addend: 0x0, symName: __ZNSt3__114__rewrap_rangeB7v160006INS_16reverse_iteratorIPP9VkImage_TEES5_S5_EET0_S6_T1_, symObjAddr: 0x15E1D0, symBinAddr: 0x1001609E0, symSize: 0x4E0 }
  - { offsetInCU: 0x4D135, offset: 0x4D135, size: 0x8, addend: 0x0, symName: __ZNSt3__113__rewrap_iterB7v160006INS_16reverse_iteratorIPP9VkImage_TEES5_NS_18__unwrap_iter_implIS5_Lb0EEEEET_S8_T0_, symObjAddr: 0x15E6B0, symBinAddr: 0x100160EC0, symSize: 0x4F0 }
  - { offsetInCU: 0x4D1E2, offset: 0x4D1E2, size: 0x8, addend: 0x0, symName: __ZNSt3__1neB7v160006IPP9VkImage_TS3_EEbRKNS_16reverse_iteratorIT_EERKNS4_IT0_EE, symObjAddr: 0x15F1C0, symBinAddr: 0x1001619D0, symSize: 0x40 }
  - { offsetInCU: 0x4D29D, offset: 0x4D29D, size: 0x8, addend: 0x0, symName: __ZNSt3__115__debug_db_swapB7v160006INS_6vectorIP9VkImage_TNS_9allocatorIS3_EEEEEEvPT_S8_, symObjAddr: 0x160820, symBinAddr: 0x100163030, symSize: 0x10 }
  - { offsetInCU: 0x4D2DD, offset: 0x4D2DD, size: 0x8, addend: 0x0, symName: __ZNSt3__115__debug_db_swapB7v160006INS_6vectorIP13VkImageView_TNS_9allocatorIS3_EEEEEEvPT_S8_, symObjAddr: 0x1612C0, symBinAddr: 0x100163AD0, symSize: 0x10 }
  - { offsetInCU: 0x4E5E2, offset: 0x4E5E2, size: 0x8, addend: 0x0, symName: __ZSt28__throw_bad_array_new_lengthB7v160006v, symObjAddr: 0x4C190, symBinAddr: 0x10004E9A0, symSize: 0x40 }
  - { offsetInCU: 0x4E84B, offset: 0x4E84B, size: 0x8, addend: 0x0, symName: _.str.47, symObjAddr: 0x168280, symBinAddr: 0x10016B640, symSize: 0x0 }
  - { offsetInCU: 0x4E85D, offset: 0x4E85D, size: 0x8, addend: 0x0, symName: _.str.48, symObjAddr: 0x1682C0, symBinAddr: 0x10016B680, symSize: 0x0 }
  - { offsetInCU: 0x4E86F, offset: 0x4E86F, size: 0x8, addend: 0x0, symName: _.str.49, symObjAddr: 0x168300, symBinAddr: 0x10016B6C0, symSize: 0x0 }
  - { offsetInCU: 0x4E88D, offset: 0x4E88D, size: 0x8, addend: 0x0, symName: _.str.50, symObjAddr: 0x168340, symBinAddr: 0x10016B700, symSize: 0x0 }
  - { offsetInCU: 0x4E89F, offset: 0x4E89F, size: 0x8, addend: 0x0, symName: _.str.51, symObjAddr: 0x168380, symBinAddr: 0x10016B740, symSize: 0x0 }
  - { offsetInCU: 0x4E8BD, offset: 0x4E8BD, size: 0x8, addend: 0x0, symName: _.str.52, symObjAddr: 0x1683C0, symBinAddr: 0x10016B780, symSize: 0x0 }
  - { offsetInCU: 0x4E8CF, offset: 0x4E8CF, size: 0x8, addend: 0x0, symName: _.str.53, symObjAddr: 0x168400, symBinAddr: 0x10016B7C0, symSize: 0x0 }
  - { offsetInCU: 0x4E8E1, offset: 0x4E8E1, size: 0x8, addend: 0x0, symName: _.str.54, symObjAddr: 0x168440, symBinAddr: 0x10016B800, symSize: 0x0 }
  - { offsetInCU: 0x4E8FF, offset: 0x4E8FF, size: 0x8, addend: 0x0, symName: _.str.55, symObjAddr: 0x1684A0, symBinAddr: 0x10016B860, symSize: 0x0 }
  - { offsetInCU: 0x4E911, offset: 0x4E911, size: 0x8, addend: 0x0, symName: _.str.56, symObjAddr: 0x1748E0, symBinAddr: 0x10016AB20, symSize: 0x0 }
  - { offsetInCU: 0x4E92F, offset: 0x4E92F, size: 0x8, addend: 0x0, symName: _.str.57, symObjAddr: 0x168500, symBinAddr: 0x10016B8C0, symSize: 0x0 }
  - { offsetInCU: 0x4E94D, offset: 0x4E94D, size: 0x8, addend: 0x0, symName: _.str.58, symObjAddr: 0x168540, symBinAddr: 0x10016B900, symSize: 0x0 }
  - { offsetInCU: 0x4E96B, offset: 0x4E96B, size: 0x8, addend: 0x0, symName: _.str.59, symObjAddr: 0x1685A0, symBinAddr: 0x10016B960, symSize: 0x0 }
  - { offsetInCU: 0x4E97D, offset: 0x4E97D, size: 0x8, addend: 0x0, symName: _.str.60, symObjAddr: 0x1685E0, symBinAddr: 0x10016B9A0, symSize: 0x0 }
  - { offsetInCU: 0x4E98F, offset: 0x4E98F, size: 0x8, addend: 0x0, symName: _.str.61, symObjAddr: 0x168620, symBinAddr: 0x10016B9E0, symSize: 0x0 }
  - { offsetInCU: 0x4E9A1, offset: 0x4E9A1, size: 0x8, addend: 0x0, symName: _.str.62, symObjAddr: 0x168660, symBinAddr: 0x10016BA20, symSize: 0x0 }
  - { offsetInCU: 0x4E9B3, offset: 0x4E9B3, size: 0x8, addend: 0x0, symName: _.str.63, symObjAddr: 0x1686A0, symBinAddr: 0x10016BA60, symSize: 0x0 }
  - { offsetInCU: 0x4E9C5, offset: 0x4E9C5, size: 0x8, addend: 0x0, symName: _.str.64, symObjAddr: 0x1686E0, symBinAddr: 0x10016BAA0, symSize: 0x0 }
  - { offsetInCU: 0x4E9D7, offset: 0x4E9D7, size: 0x8, addend: 0x0, symName: _.str.65, symObjAddr: 0x168720, symBinAddr: 0x10016BAE0, symSize: 0x0 }
  - { offsetInCU: 0x4E9E9, offset: 0x4E9E9, size: 0x8, addend: 0x0, symName: _.str.66, symObjAddr: 0x168760, symBinAddr: 0x10016BB20, symSize: 0x0 }
  - { offsetInCU: 0x4E9FB, offset: 0x4E9FB, size: 0x8, addend: 0x0, symName: _.str.67, symObjAddr: 0x1687A0, symBinAddr: 0x10016BB60, symSize: 0x0 }
  - { offsetInCU: 0x4EA0D, offset: 0x4EA0D, size: 0x8, addend: 0x0, symName: _.str.68, symObjAddr: 0x1687E0, symBinAddr: 0x10016BBA0, symSize: 0x0 }
  - { offsetInCU: 0x4EA1F, offset: 0x4EA1F, size: 0x8, addend: 0x0, symName: _.str.69, symObjAddr: 0x168820, symBinAddr: 0x10016BBE0, symSize: 0x0 }
  - { offsetInCU: 0x4EA3D, offset: 0x4EA3D, size: 0x8, addend: 0x0, symName: _.str.70, symObjAddr: 0x168880, symBinAddr: 0x10016BC40, symSize: 0x0 }
  - { offsetInCU: 0x4EA4F, offset: 0x4EA4F, size: 0x8, addend: 0x0, symName: _.str.71, symObjAddr: 0x1688C0, symBinAddr: 0x10016BC80, symSize: 0x0 }
  - { offsetInCU: 0x4EA61, offset: 0x4EA61, size: 0x8, addend: 0x0, symName: _.str.72, symObjAddr: 0x168900, symBinAddr: 0x10016BCC0, symSize: 0x0 }
  - { offsetInCU: 0x4EA7F, offset: 0x4EA7F, size: 0x8, addend: 0x0, symName: _.str.73, symObjAddr: 0x168960, symBinAddr: 0x10016BD20, symSize: 0x0 }
  - { offsetInCU: 0x4EA91, offset: 0x4EA91, size: 0x8, addend: 0x0, symName: _.str.74, symObjAddr: 0x1689C0, symBinAddr: 0x10016BD80, symSize: 0x0 }
  - { offsetInCU: 0x4EAA3, offset: 0x4EAA3, size: 0x8, addend: 0x0, symName: _.str.75, symObjAddr: 0x168A00, symBinAddr: 0x10016BDC0, symSize: 0x0 }
  - { offsetInCU: 0x4EAB5, offset: 0x4EAB5, size: 0x8, addend: 0x0, symName: _.str.76, symObjAddr: 0x168A40, symBinAddr: 0x10016BE00, symSize: 0x0 }
  - { offsetInCU: 0x4EAC7, offset: 0x4EAC7, size: 0x8, addend: 0x0, symName: _.str.77, symObjAddr: 0x168AA0, symBinAddr: 0x10016BE60, symSize: 0x0 }
  - { offsetInCU: 0x4EAD9, offset: 0x4EAD9, size: 0x8, addend: 0x0, symName: _.str.78, symObjAddr: 0x168AE0, symBinAddr: 0x10016BEA0, symSize: 0x0 }
  - { offsetInCU: 0x4EAEB, offset: 0x4EAEB, size: 0x8, addend: 0x0, symName: _.str.79, symObjAddr: 0x168B00, symBinAddr: 0x10016BEC0, symSize: 0x0 }
  - { offsetInCU: 0x4EAFD, offset: 0x4EAFD, size: 0x8, addend: 0x0, symName: ___func__._ZNK3vkb15InstanceBuilder5buildEv, symObjAddr: 0x168B40, symBinAddr: 0x10016BF00, symSize: 0x0 }
  - { offsetInCU: 0x4EB0F, offset: 0x4EB0F, size: 0x8, addend: 0x0, symName: _.str.80, symObjAddr: 0x168B60, symBinAddr: 0x10016BF20, symSize: 0x0 }
  - { offsetInCU: 0x4EB44, offset: 0x4EB44, size: 0x8, addend: 0x0, symName: _.str.81, symObjAddr: 0x168BC0, symBinAddr: 0x10016BF80, symSize: 0x0 }
  - { offsetInCU: 0x4EB62, offset: 0x4EB62, size: 0x8, addend: 0x0, symName: ___func__._ZNK3vkb22PhysicalDeviceSelector11select_implENS_19DeviceSelectionModeE, symObjAddr: 0x168C40, symBinAddr: 0x10016C000, symSize: 0x0 }
  - { offsetInCU: 0x4EB74, offset: 0x4EB74, size: 0x8, addend: 0x0, symName: _.str.82, symObjAddr: 0x168C60, symBinAddr: 0x10016C020, symSize: 0x0 }
  - { offsetInCU: 0x4EB92, offset: 0x4EB92, size: 0x8, addend: 0x0, symName: _.str.83, symObjAddr: 0x168D20, symBinAddr: 0x10016C0E0, symSize: 0x0 }
  - { offsetInCU: 0x4EBB0, offset: 0x4EBB0, size: 0x8, addend: 0x0, symName: _.str.84, symObjAddr: 0x168E00, symBinAddr: 0x10016C1C0, symSize: 0x0 }
  - { offsetInCU: 0x4EBCE, offset: 0x4EBCE, size: 0x8, addend: 0x0, symName: _.str.85, symObjAddr: 0x168F20, symBinAddr: 0x10016C2E0, symSize: 0x0 }
  - { offsetInCU: 0x4EBEC, offset: 0x4EBEC, size: 0x8, addend: 0x0, symName: _.str.86, symObjAddr: 0x168F60, symBinAddr: 0x10016C320, symSize: 0x0 }
  - { offsetInCU: 0x4EBFE, offset: 0x4EBFE, size: 0x8, addend: 0x0, symName: _.str.87, symObjAddr: 0x168FA0, symBinAddr: 0x10016C360, symSize: 0x0 }
  - { offsetInCU: 0x4EC1A, offset: 0x4EC1A, size: 0x8, addend: 0x0, symName: _.str.89, symObjAddr: 0x168FC0, symBinAddr: 0x10016C380, symSize: 0x0 }
  - { offsetInCU: 0x4EC2C, offset: 0x4EC2C, size: 0x8, addend: 0x0, symName: ___func__._ZN3vkb16SwapchainBuilderC2ERKNS_6DeviceE, symObjAddr: 0x169020, symBinAddr: 0x10016C3E0, symSize: 0x0 }
  - { offsetInCU: 0x4EC3E, offset: 0x4EC3E, size: 0x8, addend: 0x0, symName: _.str.90, symObjAddr: 0x169060, symBinAddr: 0x10016C420, symSize: 0x0 }
  - { offsetInCU: 0x4EC5C, offset: 0x4EC5C, size: 0x8, addend: 0x0, symName: _.str.91, symObjAddr: 0x169100, symBinAddr: 0x10016C4C0, symSize: 0x0 }
  - { offsetInCU: 0x4EC6E, offset: 0x4EC6E, size: 0x8, addend: 0x0, symName: _.str.92, symObjAddr: 0x169140, symBinAddr: 0x10016C500, symSize: 0x0 }
  - { offsetInCU: 0x4EC80, offset: 0x4EC80, size: 0x8, addend: 0x0, symName: _.str.93, symObjAddr: 0x169180, symBinAddr: 0x10016C540, symSize: 0x0 }
  - { offsetInCU: 0x4EC92, offset: 0x4EC92, size: 0x8, addend: 0x0, symName: _.str.94, symObjAddr: 0x1691C0, symBinAddr: 0x10016C580, symSize: 0x0 }
  - { offsetInCU: 0x4ECA4, offset: 0x4ECA4, size: 0x8, addend: 0x0, symName: _.str.95, symObjAddr: 0x169200, symBinAddr: 0x10016C5C0, symSize: 0x0 }
  - { offsetInCU: 0x4ECB5, offset: 0x4ECB5, size: 0x8, addend: 0x0, symName: _.str.96, symObjAddr: 0x169240, symBinAddr: 0x10016C600, symSize: 0x0 }
  - { offsetInCU: 0x4ECC6, offset: 0x4ECC6, size: 0x8, addend: 0x0, symName: _.str.97, symObjAddr: 0x169280, symBinAddr: 0x10016C640, symSize: 0x0 }
  - { offsetInCU: 0x4ECD7, offset: 0x4ECD7, size: 0x8, addend: 0x0, symName: _.str.98, symObjAddr: 0x1692C0, symBinAddr: 0x10016C680, symSize: 0x0 }
  - { offsetInCU: 0x4ECE8, offset: 0x4ECE8, size: 0x8, addend: 0x0, symName: _.str.99, symObjAddr: 0x169320, symBinAddr: 0x10016C6E0, symSize: 0x0 }
  - { offsetInCU: 0x4ECF9, offset: 0x4ECF9, size: 0x8, addend: 0x0, symName: _.str.100, symObjAddr: 0x169340, symBinAddr: 0x10016C700, symSize: 0x0 }
  - { offsetInCU: 0x4ED0A, offset: 0x4ED0A, size: 0x8, addend: 0x0, symName: _.str.101, symObjAddr: 0x169380, symBinAddr: 0x10016C740, symSize: 0x0 }
  - { offsetInCU: 0x4ED1B, offset: 0x4ED1B, size: 0x8, addend: 0x0, symName: _.str.102, symObjAddr: 0x1693C0, symBinAddr: 0x10016C780, symSize: 0x0 }
  - { offsetInCU: 0x4ED38, offset: 0x4ED38, size: 0x8, addend: 0x0, symName: _.str.103, symObjAddr: 0x169440, symBinAddr: 0x10016C800, symSize: 0x0 }
  - { offsetInCU: 0x4ED55, offset: 0x4ED55, size: 0x8, addend: 0x0, symName: _.str.104, symObjAddr: 0x1694A0, symBinAddr: 0x10016C860, symSize: 0x0 }
  - { offsetInCU: 0x4ED66, offset: 0x4ED66, size: 0x8, addend: 0x0, symName: _.str.105, symObjAddr: 0x169500, symBinAddr: 0x10016C8C0, symSize: 0x0 }
  - { offsetInCU: 0x4ED83, offset: 0x4ED83, size: 0x8, addend: 0x0, symName: _.str.106, symObjAddr: 0x169560, symBinAddr: 0x10016C920, symSize: 0x0 }
  - { offsetInCU: 0x4ED94, offset: 0x4ED94, size: 0x8, addend: 0x0, symName: _.str.107, symObjAddr: 0x1695A0, symBinAddr: 0x10016C960, symSize: 0x0 }
  - { offsetInCU: 0x4EDB1, offset: 0x4EDB1, size: 0x8, addend: 0x0, symName: _.str.108, symObjAddr: 0x169600, symBinAddr: 0x10016C9C0, symSize: 0x0 }
  - { offsetInCU: 0x4EDCE, offset: 0x4EDCE, size: 0x8, addend: 0x0, symName: _.str.109, symObjAddr: 0x169660, symBinAddr: 0x10016CA20, symSize: 0x0 }
  - { offsetInCU: 0x4EDDF, offset: 0x4EDDF, size: 0x8, addend: 0x0, symName: _.str.110, symObjAddr: 0x1696C0, symBinAddr: 0x10016CA80, symSize: 0x0 }
  - { offsetInCU: 0x4EDF0, offset: 0x4EDF0, size: 0x8, addend: 0x0, symName: _.str.111, symObjAddr: 0x169720, symBinAddr: 0x10016CAE0, symSize: 0x0 }
  - { offsetInCU: 0x4EE01, offset: 0x4EE01, size: 0x8, addend: 0x0, symName: _.str.112, symObjAddr: 0x169740, symBinAddr: 0x10016CB00, symSize: 0x0 }
  - { offsetInCU: 0x4EE12, offset: 0x4EE12, size: 0x8, addend: 0x0, symName: _.str.113, symObjAddr: 0x169760, symBinAddr: 0x10016CB20, symSize: 0x0 }
  - { offsetInCU: 0x4EE60, offset: 0x4EE60, size: 0x8, addend: 0x0, symName: _.str.114, symObjAddr: 0x1697C0, symBinAddr: 0x10016CB80, symSize: 0x0 }
  - { offsetInCU: 0x4EE71, offset: 0x4EE71, size: 0x8, addend: 0x0, symName: _.str.115, symObjAddr: 0x169800, symBinAddr: 0x10016CBC0, symSize: 0x0 }
  - { offsetInCU: 0x4EE8F, offset: 0x4EE8F, size: 0x8, addend: 0x0, symName: _.str.116, symObjAddr: 0x169860, symBinAddr: 0x10016CC20, symSize: 0x0 }
  - { offsetInCU: 0x4EEA1, offset: 0x4EEA1, size: 0x8, addend: 0x0, symName: _.str.117, symObjAddr: 0x1698A0, symBinAddr: 0x10016CC60, symSize: 0x0 }
  - { offsetInCU: 0x4EEB3, offset: 0x4EEB3, size: 0x8, addend: 0x0, symName: _.str.118, symObjAddr: 0x1698E0, symBinAddr: 0x10016CCA0, symSize: 0x0 }
  - { offsetInCU: 0x4EEC5, offset: 0x4EEC5, size: 0x8, addend: 0x0, symName: _.str.119, symObjAddr: 0x169920, symBinAddr: 0x10016CCE0, symSize: 0x0 }
  - { offsetInCU: 0x4EEE3, offset: 0x4EEE3, size: 0x8, addend: 0x0, symName: _.str.120, symObjAddr: 0x169980, symBinAddr: 0x10016CD40, symSize: 0x0 }
  - { offsetInCU: 0x4EEF5, offset: 0x4EEF5, size: 0x8, addend: 0x0, symName: _.str.121, symObjAddr: 0x1699E0, symBinAddr: 0x10016CDA0, symSize: 0x0 }
  - { offsetInCU: 0x4EF07, offset: 0x4EF07, size: 0x8, addend: 0x0, symName: _.str.122, symObjAddr: 0x169A40, symBinAddr: 0x10016CE00, symSize: 0x0 }
  - { offsetInCU: 0x4EF74, offset: 0x4EF74, size: 0x8, addend: 0x0, symName: _.str.123, symObjAddr: 0x169A80, symBinAddr: 0x10016CE40, symSize: 0x0 }
  - { offsetInCU: 0x4EF86, offset: 0x4EF86, size: 0x8, addend: 0x0, symName: _.str.124, symObjAddr: 0x169AE0, symBinAddr: 0x10016CEA0, symSize: 0x0 }
  - { offsetInCU: 0x4EF97, offset: 0x4EF97, size: 0x8, addend: 0x0, symName: _.str.125, symObjAddr: 0x169B20, symBinAddr: 0x10016CEE0, symSize: 0x0 }
  - { offsetInCU: 0x4EFA8, offset: 0x4EFA8, size: 0x8, addend: 0x0, symName: _.str.126, symObjAddr: 0x169B40, symBinAddr: 0x10016CF00, symSize: 0x0 }
  - { offsetInCU: 0x4EFBA, offset: 0x4EFBA, size: 0x8, addend: 0x0, symName: _.str.127, symObjAddr: 0x169B80, symBinAddr: 0x10016CF40, symSize: 0x0 }
  - { offsetInCU: 0x4EFD8, offset: 0x4EFD8, size: 0x8, addend: 0x0, symName: _.str.128, symObjAddr: 0x169BA0, symBinAddr: 0x10016CF60, symSize: 0x0 }
  - { offsetInCU: 0x53B12, offset: 0x53B12, size: 0x8, addend: 0x0, symName: _.str.129, symObjAddr: 0x169BC0, symBinAddr: 0x10016CF80, symSize: 0x0 }
  - { offsetInCU: 0x53B23, offset: 0x53B23, size: 0x8, addend: 0x0, symName: _.str.130, symObjAddr: 0x169C20, symBinAddr: 0x10016CFE0, symSize: 0x0 }
  - { offsetInCU: 0x53B34, offset: 0x53B34, size: 0x8, addend: 0x0, symName: _.str.131, symObjAddr: 0x169C80, symBinAddr: 0x10016D040, symSize: 0x0 }
  - { offsetInCU: 0x53B45, offset: 0x53B45, size: 0x8, addend: 0x0, symName: _.str.132, symObjAddr: 0x169CC0, symBinAddr: 0x10016D080, symSize: 0x0 }
  - { offsetInCU: 0x53B56, offset: 0x53B56, size: 0x8, addend: 0x0, symName: _.str.133, symObjAddr: 0x169D00, symBinAddr: 0x10016D0C0, symSize: 0x0 }
  - { offsetInCU: 0x53B67, offset: 0x53B67, size: 0x8, addend: 0x0, symName: _.str.134, symObjAddr: 0x169D20, symBinAddr: 0x10016D0E0, symSize: 0x0 }
  - { offsetInCU: 0x53B78, offset: 0x53B78, size: 0x8, addend: 0x0, symName: _.str.135, symObjAddr: 0x169D60, symBinAddr: 0x10016D120, symSize: 0x0 }
  - { offsetInCU: 0x53B89, offset: 0x53B89, size: 0x8, addend: 0x0, symName: _.str.136, symObjAddr: 0x169DA0, symBinAddr: 0x10016D160, symSize: 0x0 }
  - { offsetInCU: 0x53B9A, offset: 0x53B9A, size: 0x8, addend: 0x0, symName: _.str.137, symObjAddr: 0x169DE0, symBinAddr: 0x10016D1A0, symSize: 0x0 }
  - { offsetInCU: 0x53BAB, offset: 0x53BAB, size: 0x8, addend: 0x0, symName: _.str.138, symObjAddr: 0x169E20, symBinAddr: 0x10016D1E0, symSize: 0x0 }
  - { offsetInCU: 0x53BBC, offset: 0x53BBC, size: 0x8, addend: 0x0, symName: _.str.139, symObjAddr: 0x169E60, symBinAddr: 0x10016D220, symSize: 0x0 }
  - { offsetInCU: 0x53BCD, offset: 0x53BCD, size: 0x8, addend: 0x0, symName: _.str.140, symObjAddr: 0x169EA0, symBinAddr: 0x10016D260, symSize: 0x0 }
  - { offsetInCU: 0x53BDE, offset: 0x53BDE, size: 0x8, addend: 0x0, symName: _.str.141, symObjAddr: 0x169F00, symBinAddr: 0x10016D2C0, symSize: 0x0 }
  - { offsetInCU: 0x53BEF, offset: 0x53BEF, size: 0x8, addend: 0x0, symName: _.str.142, symObjAddr: 0x169F60, symBinAddr: 0x10016D320, symSize: 0x0 }
  - { offsetInCU: 0x53C00, offset: 0x53C00, size: 0x8, addend: 0x0, symName: _.str.143, symObjAddr: 0x169FA0, symBinAddr: 0x10016D360, symSize: 0x0 }
  - { offsetInCU: 0x53C11, offset: 0x53C11, size: 0x8, addend: 0x0, symName: _.str.144, symObjAddr: 0x16A000, symBinAddr: 0x10016D3C0, symSize: 0x0 }
  - { offsetInCU: 0x53C22, offset: 0x53C22, size: 0x8, addend: 0x0, symName: _.str.145, symObjAddr: 0x16A060, symBinAddr: 0x10016D420, symSize: 0x0 }
  - { offsetInCU: 0x53C33, offset: 0x53C33, size: 0x8, addend: 0x0, symName: _.str.146, symObjAddr: 0x16A0C0, symBinAddr: 0x10016D480, symSize: 0x0 }
  - { offsetInCU: 0x53C44, offset: 0x53C44, size: 0x8, addend: 0x0, symName: _.str.147, symObjAddr: 0x16A120, symBinAddr: 0x10016D4E0, symSize: 0x0 }
  - { offsetInCU: 0x53C61, offset: 0x53C61, size: 0x8, addend: 0x0, symName: _.str.148, symObjAddr: 0x16A180, symBinAddr: 0x10016D540, symSize: 0x0 }
  - { offsetInCU: 0x53C7E, offset: 0x53C7E, size: 0x8, addend: 0x0, symName: _.str.149, symObjAddr: 0x16A1E0, symBinAddr: 0x10016D5A0, symSize: 0x0 }
  - { offsetInCU: 0x53C9B, offset: 0x53C9B, size: 0x8, addend: 0x0, symName: _.str.150, symObjAddr: 0x16A240, symBinAddr: 0x10016D600, symSize: 0x0 }
  - { offsetInCU: 0x53CAC, offset: 0x53CAC, size: 0x8, addend: 0x0, symName: _.str.151, symObjAddr: 0x16A2A0, symBinAddr: 0x10016D660, symSize: 0x0 }
  - { offsetInCU: 0x53CBD, offset: 0x53CBD, size: 0x8, addend: 0x0, symName: _.str.152, symObjAddr: 0x16A2E0, symBinAddr: 0x10016D6A0, symSize: 0x0 }
  - { offsetInCU: 0x53CCE, offset: 0x53CCE, size: 0x8, addend: 0x0, symName: _.str.153, symObjAddr: 0x16A320, symBinAddr: 0x10016D6E0, symSize: 0x0 }
  - { offsetInCU: 0x53CDF, offset: 0x53CDF, size: 0x8, addend: 0x0, symName: _.str.154, symObjAddr: 0x16A380, symBinAddr: 0x10016D740, symSize: 0x0 }
  - { offsetInCU: 0x53CF0, offset: 0x53CF0, size: 0x8, addend: 0x0, symName: _.str.155, symObjAddr: 0x16A3C0, symBinAddr: 0x10016D780, symSize: 0x0 }
  - { offsetInCU: 0x53D01, offset: 0x53D01, size: 0x8, addend: 0x0, symName: _.str.156, symObjAddr: 0x16A400, symBinAddr: 0x10016D7C0, symSize: 0x0 }
  - { offsetInCU: 0x53D12, offset: 0x53D12, size: 0x8, addend: 0x0, symName: _.str.157, symObjAddr: 0x16A460, symBinAddr: 0x10016D820, symSize: 0x0 }
  - { offsetInCU: 0x53D23, offset: 0x53D23, size: 0x8, addend: 0x0, symName: _.str.158, symObjAddr: 0x16A4C0, symBinAddr: 0x10016D880, symSize: 0x0 }
  - { offsetInCU: 0x53D34, offset: 0x53D34, size: 0x8, addend: 0x0, symName: _.str.159, symObjAddr: 0x16A520, symBinAddr: 0x10016D8E0, symSize: 0x0 }
  - { offsetInCU: 0x53D45, offset: 0x53D45, size: 0x8, addend: 0x0, symName: _.str.160, symObjAddr: 0x16A580, symBinAddr: 0x10016D940, symSize: 0x0 }
  - { offsetInCU: 0x53D56, offset: 0x53D56, size: 0x8, addend: 0x0, symName: _.str.161, symObjAddr: 0x16A5C0, symBinAddr: 0x10016D980, symSize: 0x0 }
  - { offsetInCU: 0x53D67, offset: 0x53D67, size: 0x8, addend: 0x0, symName: _.str.162, symObjAddr: 0x16A600, symBinAddr: 0x10016D9C0, symSize: 0x0 }
  - { offsetInCU: 0x53D78, offset: 0x53D78, size: 0x8, addend: 0x0, symName: _.str.163, symObjAddr: 0x16A640, symBinAddr: 0x10016DA00, symSize: 0x0 }
  - { offsetInCU: 0x53D95, offset: 0x53D95, size: 0x8, addend: 0x0, symName: _.str.164, symObjAddr: 0x16A6A0, symBinAddr: 0x10016DA60, symSize: 0x0 }
  - { offsetInCU: 0x53DA6, offset: 0x53DA6, size: 0x8, addend: 0x0, symName: _.str.165, symObjAddr: 0x16A6E0, symBinAddr: 0x10016DAA0, symSize: 0x0 }
  - { offsetInCU: 0x53DB7, offset: 0x53DB7, size: 0x8, addend: 0x0, symName: _.str.166, symObjAddr: 0x16A720, symBinAddr: 0x10016DAE0, symSize: 0x0 }
  - { offsetInCU: 0x53DC8, offset: 0x53DC8, size: 0x8, addend: 0x0, symName: _.str.167, symObjAddr: 0x16A780, symBinAddr: 0x10016DB40, symSize: 0x0 }
  - { offsetInCU: 0x53DD9, offset: 0x53DD9, size: 0x8, addend: 0x0, symName: _.str.168, symObjAddr: 0x16A7E0, symBinAddr: 0x10016DBA0, symSize: 0x0 }
  - { offsetInCU: 0x53DEA, offset: 0x53DEA, size: 0x8, addend: 0x0, symName: _.str.169, symObjAddr: 0x16A840, symBinAddr: 0x10016DC00, symSize: 0x0 }
  - { offsetInCU: 0x53DFB, offset: 0x53DFB, size: 0x8, addend: 0x0, symName: _.str.170, symObjAddr: 0x16A8A0, symBinAddr: 0x10016DC60, symSize: 0x0 }
  - { offsetInCU: 0x53E0C, offset: 0x53E0C, size: 0x8, addend: 0x0, symName: _.str.171, symObjAddr: 0x16A900, symBinAddr: 0x10016DCC0, symSize: 0x0 }
  - { offsetInCU: 0x53E29, offset: 0x53E29, size: 0x8, addend: 0x0, symName: _.str.172, symObjAddr: 0x16A960, symBinAddr: 0x10016DD20, symSize: 0x0 }
  - { offsetInCU: 0x53E3A, offset: 0x53E3A, size: 0x8, addend: 0x0, symName: _.str.173, symObjAddr: 0x16A9C0, symBinAddr: 0x10016DD80, symSize: 0x0 }
  - { offsetInCU: 0x53E57, offset: 0x53E57, size: 0x8, addend: 0x0, symName: _.str.174, symObjAddr: 0x16AA20, symBinAddr: 0x10016DDE0, symSize: 0x0 }
  - { offsetInCU: 0x53E68, offset: 0x53E68, size: 0x8, addend: 0x0, symName: _.str.175, symObjAddr: 0x16AA60, symBinAddr: 0x10016DE20, symSize: 0x0 }
  - { offsetInCU: 0x53E79, offset: 0x53E79, size: 0x8, addend: 0x0, symName: _.str.176, symObjAddr: 0x16AAC0, symBinAddr: 0x10016DE80, symSize: 0x0 }
  - { offsetInCU: 0x53E8A, offset: 0x53E8A, size: 0x8, addend: 0x0, symName: _.str.177, symObjAddr: 0x16AB00, symBinAddr: 0x10016DEC0, symSize: 0x0 }
  - { offsetInCU: 0x53E9B, offset: 0x53E9B, size: 0x8, addend: 0x0, symName: _.str.178, symObjAddr: 0x16AB60, symBinAddr: 0x10016DF20, symSize: 0x0 }
  - { offsetInCU: 0x53EAC, offset: 0x53EAC, size: 0x8, addend: 0x0, symName: _.str.179, symObjAddr: 0x16ABC0, symBinAddr: 0x10016DF80, symSize: 0x0 }
  - { offsetInCU: 0x53EBD, offset: 0x53EBD, size: 0x8, addend: 0x0, symName: _.str.180, symObjAddr: 0x16AC20, symBinAddr: 0x10016DFE0, symSize: 0x0 }
  - { offsetInCU: 0x53ECE, offset: 0x53ECE, size: 0x8, addend: 0x0, symName: _.str.181, symObjAddr: 0x16AC80, symBinAddr: 0x10016E040, symSize: 0x0 }
  - { offsetInCU: 0x53EDF, offset: 0x53EDF, size: 0x8, addend: 0x0, symName: _.str.182, symObjAddr: 0x16ACE0, symBinAddr: 0x10016E0A0, symSize: 0x0 }
  - { offsetInCU: 0x53EFC, offset: 0x53EFC, size: 0x8, addend: 0x0, symName: _.str.183, symObjAddr: 0x16AD40, symBinAddr: 0x10016E100, symSize: 0x0 }
  - { offsetInCU: 0x53F0D, offset: 0x53F0D, size: 0x8, addend: 0x0, symName: _.str.184, symObjAddr: 0x16AD80, symBinAddr: 0x10016E140, symSize: 0x0 }
  - { offsetInCU: 0x53F1E, offset: 0x53F1E, size: 0x8, addend: 0x0, symName: _.str.185, symObjAddr: 0x16ADE0, symBinAddr: 0x10016E1A0, symSize: 0x0 }
  - { offsetInCU: 0x53F2F, offset: 0x53F2F, size: 0x8, addend: 0x0, symName: _.str.186, symObjAddr: 0x16AE20, symBinAddr: 0x10016E1E0, symSize: 0x0 }
  - { offsetInCU: 0x53F40, offset: 0x53F40, size: 0x8, addend: 0x0, symName: _.str.187, symObjAddr: 0x16AE60, symBinAddr: 0x10016E220, symSize: 0x0 }
  - { offsetInCU: 0x53F51, offset: 0x53F51, size: 0x8, addend: 0x0, symName: _.str.188, symObjAddr: 0x16AEA0, symBinAddr: 0x10016E260, symSize: 0x0 }
  - { offsetInCU: 0x53F62, offset: 0x53F62, size: 0x8, addend: 0x0, symName: _.str.189, symObjAddr: 0x16AF00, symBinAddr: 0x10016E2C0, symSize: 0x0 }
  - { offsetInCU: 0x53F80, offset: 0x53F80, size: 0x8, addend: 0x0, symName: _.str.190, symObjAddr: 0x16AF60, symBinAddr: 0x10016E320, symSize: 0x0 }
  - { offsetInCU: 0x53F92, offset: 0x53F92, size: 0x8, addend: 0x0, symName: _.str.191, symObjAddr: 0x16AFC0, symBinAddr: 0x10016E380, symSize: 0x0 }
  - { offsetInCU: 0x53FA4, offset: 0x53FA4, size: 0x8, addend: 0x0, symName: _.str.192, symObjAddr: 0x16B000, symBinAddr: 0x10016E3C0, symSize: 0x0 }
  - { offsetInCU: 0x53FC2, offset: 0x53FC2, size: 0x8, addend: 0x0, symName: _.str.193, symObjAddr: 0x16B080, symBinAddr: 0x10016E440, symSize: 0x0 }
  - { offsetInCU: 0x53FD4, offset: 0x53FD4, size: 0x8, addend: 0x0, symName: _.str.194, symObjAddr: 0x16B0E0, symBinAddr: 0x10016E4A0, symSize: 0x0 }
  - { offsetInCU: 0x53FE6, offset: 0x53FE6, size: 0x8, addend: 0x0, symName: _.str.195, symObjAddr: 0x16B140, symBinAddr: 0x10016E500, symSize: 0x0 }
  - { offsetInCU: 0x53FF8, offset: 0x53FF8, size: 0x8, addend: 0x0, symName: _.str.196, symObjAddr: 0x16B1A0, symBinAddr: 0x10016E560, symSize: 0x0 }
  - { offsetInCU: 0x5400A, offset: 0x5400A, size: 0x8, addend: 0x0, symName: _.str.197, symObjAddr: 0x16B200, symBinAddr: 0x10016E5C0, symSize: 0x0 }
  - { offsetInCU: 0x5401C, offset: 0x5401C, size: 0x8, addend: 0x0, symName: _.str.198, symObjAddr: 0x16B240, symBinAddr: 0x10016E600, symSize: 0x0 }
  - { offsetInCU: 0x5402E, offset: 0x5402E, size: 0x8, addend: 0x0, symName: _.str.199, symObjAddr: 0x16B280, symBinAddr: 0x10016E640, symSize: 0x0 }
  - { offsetInCU: 0x54040, offset: 0x54040, size: 0x8, addend: 0x0, symName: _.str.200, symObjAddr: 0x16B2E0, symBinAddr: 0x10016E6A0, symSize: 0x0 }
  - { offsetInCU: 0x54052, offset: 0x54052, size: 0x8, addend: 0x0, symName: _.str.201, symObjAddr: 0x16B340, symBinAddr: 0x10016E700, symSize: 0x0 }
  - { offsetInCU: 0x54064, offset: 0x54064, size: 0x8, addend: 0x0, symName: _.str.202, symObjAddr: 0x16B380, symBinAddr: 0x10016E740, symSize: 0x0 }
  - { offsetInCU: 0x54076, offset: 0x54076, size: 0x8, addend: 0x0, symName: _.str.203, symObjAddr: 0x16B3E0, symBinAddr: 0x10016E7A0, symSize: 0x0 }
  - { offsetInCU: 0x54088, offset: 0x54088, size: 0x8, addend: 0x0, symName: _.str.204, symObjAddr: 0x16B440, symBinAddr: 0x10016E800, symSize: 0x0 }
  - { offsetInCU: 0x5409A, offset: 0x5409A, size: 0x8, addend: 0x0, symName: _.str.205, symObjAddr: 0x16B4A0, symBinAddr: 0x10016E860, symSize: 0x0 }
  - { offsetInCU: 0x540AC, offset: 0x540AC, size: 0x8, addend: 0x0, symName: _.str.206, symObjAddr: 0x16B500, symBinAddr: 0x10016E8C0, symSize: 0x0 }
  - { offsetInCU: 0x540BE, offset: 0x540BE, size: 0x8, addend: 0x0, symName: _.str.207, symObjAddr: 0x16B560, symBinAddr: 0x10016E920, symSize: 0x0 }
  - { offsetInCU: 0x540D0, offset: 0x540D0, size: 0x8, addend: 0x0, symName: _.str.208, symObjAddr: 0x16B5C0, symBinAddr: 0x10016E980, symSize: 0x0 }
  - { offsetInCU: 0x540E2, offset: 0x540E2, size: 0x8, addend: 0x0, symName: _.str.209, symObjAddr: 0x16B620, symBinAddr: 0x10016E9E0, symSize: 0x0 }
  - { offsetInCU: 0x540F4, offset: 0x540F4, size: 0x8, addend: 0x0, symName: _.str.210, symObjAddr: 0x16B680, symBinAddr: 0x10016EA40, symSize: 0x0 }
  - { offsetInCU: 0x54106, offset: 0x54106, size: 0x8, addend: 0x0, symName: _.str.211, symObjAddr: 0x16B6E0, symBinAddr: 0x10016EAA0, symSize: 0x0 }
  - { offsetInCU: 0x54118, offset: 0x54118, size: 0x8, addend: 0x0, symName: _.str.212, symObjAddr: 0x16B740, symBinAddr: 0x10016EB00, symSize: 0x0 }
  - { offsetInCU: 0x5412A, offset: 0x5412A, size: 0x8, addend: 0x0, symName: _.str.213, symObjAddr: 0x16B7A0, symBinAddr: 0x10016EB60, symSize: 0x0 }
  - { offsetInCU: 0x5413B, offset: 0x5413B, size: 0x8, addend: 0x0, symName: _.str.214, symObjAddr: 0x16B800, symBinAddr: 0x10016EBC0, symSize: 0x0 }
  - { offsetInCU: 0x5414C, offset: 0x5414C, size: 0x8, addend: 0x0, symName: _.str.215, symObjAddr: 0x16B820, symBinAddr: 0x10016EBE0, symSize: 0x0 }
  - { offsetInCU: 0x5415E, offset: 0x5415E, size: 0x8, addend: 0x0, symName: _.str.216, symObjAddr: 0x16B860, symBinAddr: 0x10016EC20, symSize: 0x0 }
  - { offsetInCU: 0x54170, offset: 0x54170, size: 0x8, addend: 0x0, symName: _.str.217, symObjAddr: 0x16B8A0, symBinAddr: 0x10016EC60, symSize: 0x0 }
  - { offsetInCU: 0x54182, offset: 0x54182, size: 0x8, addend: 0x0, symName: _.str.218, symObjAddr: 0x16B8C0, symBinAddr: 0x10016EC80, symSize: 0x0 }
  - { offsetInCU: 0x54194, offset: 0x54194, size: 0x8, addend: 0x0, symName: _.str.219, symObjAddr: 0x16B8E0, symBinAddr: 0x10016ECA0, symSize: 0x0 }
  - { offsetInCU: 0x541A6, offset: 0x541A6, size: 0x8, addend: 0x0, symName: _.str.220, symObjAddr: 0x16B920, symBinAddr: 0x10016ECE0, symSize: 0x0 }
  - { offsetInCU: 0x541B8, offset: 0x541B8, size: 0x8, addend: 0x0, symName: _.str.221, symObjAddr: 0x16B960, symBinAddr: 0x10016ED20, symSize: 0x0 }
  - { offsetInCU: 0x541CA, offset: 0x541CA, size: 0x8, addend: 0x0, symName: _.str.222, symObjAddr: 0x16B980, symBinAddr: 0x10016ED40, symSize: 0x0 }
  - { offsetInCU: 0x541DC, offset: 0x541DC, size: 0x8, addend: 0x0, symName: _.str.223, symObjAddr: 0x16B9A0, symBinAddr: 0x10016ED60, symSize: 0x0 }
  - { offsetInCU: 0x541EE, offset: 0x541EE, size: 0x8, addend: 0x0, symName: _.str.224, symObjAddr: 0x16B9C0, symBinAddr: 0x10016ED80, symSize: 0x0 }
  - { offsetInCU: 0x54200, offset: 0x54200, size: 0x8, addend: 0x0, symName: _.str.225, symObjAddr: 0x16BA00, symBinAddr: 0x10016EDC0, symSize: 0x0 }
  - { offsetInCU: 0x54212, offset: 0x54212, size: 0x8, addend: 0x0, symName: _.str.226, symObjAddr: 0x16BA40, symBinAddr: 0x10016EE00, symSize: 0x0 }
  - { offsetInCU: 0x54224, offset: 0x54224, size: 0x8, addend: 0x0, symName: _.str.227, symObjAddr: 0x16BA80, symBinAddr: 0x10016EE40, symSize: 0x0 }
  - { offsetInCU: 0x54236, offset: 0x54236, size: 0x8, addend: 0x0, symName: _.str.228, symObjAddr: 0x16BAC0, symBinAddr: 0x10016EE80, symSize: 0x0 }
  - { offsetInCU: 0x54248, offset: 0x54248, size: 0x8, addend: 0x0, symName: _.str.229, symObjAddr: 0x16BB00, symBinAddr: 0x10016EEC0, symSize: 0x0 }
  - { offsetInCU: 0x5425A, offset: 0x5425A, size: 0x8, addend: 0x0, symName: _.str.230, symObjAddr: 0x16BB40, symBinAddr: 0x10016EF00, symSize: 0x0 }
  - { offsetInCU: 0x5426C, offset: 0x5426C, size: 0x8, addend: 0x0, symName: _.str.231, symObjAddr: 0x16BB80, symBinAddr: 0x10016EF40, symSize: 0x0 }
  - { offsetInCU: 0x5427E, offset: 0x5427E, size: 0x8, addend: 0x0, symName: _.str.232, symObjAddr: 0x16BBE0, symBinAddr: 0x10016EFA0, symSize: 0x0 }
  - { offsetInCU: 0x54290, offset: 0x54290, size: 0x8, addend: 0x0, symName: _.str.233, symObjAddr: 0x16BC20, symBinAddr: 0x10016EFE0, symSize: 0x0 }
  - { offsetInCU: 0x542A2, offset: 0x542A2, size: 0x8, addend: 0x0, symName: _.str.234, symObjAddr: 0x16BC40, symBinAddr: 0x10016F000, symSize: 0x0 }
  - { offsetInCU: 0x542B4, offset: 0x542B4, size: 0x8, addend: 0x0, symName: _.str.235, symObjAddr: 0x16BC60, symBinAddr: 0x10016F020, symSize: 0x0 }
  - { offsetInCU: 0x542C6, offset: 0x542C6, size: 0x8, addend: 0x0, symName: _.str.236, symObjAddr: 0x16BC80, symBinAddr: 0x10016F040, symSize: 0x0 }
  - { offsetInCU: 0x542D8, offset: 0x542D8, size: 0x8, addend: 0x0, symName: _.str.237, symObjAddr: 0x16BCC0, symBinAddr: 0x10016F080, symSize: 0x0 }
  - { offsetInCU: 0x542EA, offset: 0x542EA, size: 0x8, addend: 0x0, symName: _.str.238, symObjAddr: 0x16BCE0, symBinAddr: 0x10016F0A0, symSize: 0x0 }
  - { offsetInCU: 0x542FC, offset: 0x542FC, size: 0x8, addend: 0x0, symName: _.str.239, symObjAddr: 0x16BD20, symBinAddr: 0x10016F0E0, symSize: 0x0 }
  - { offsetInCU: 0x5430E, offset: 0x5430E, size: 0x8, addend: 0x0, symName: _.str.240, symObjAddr: 0x16BD60, symBinAddr: 0x10016F120, symSize: 0x0 }
  - { offsetInCU: 0x54320, offset: 0x54320, size: 0x8, addend: 0x0, symName: _.str.241, symObjAddr: 0x16BD80, symBinAddr: 0x10016F140, symSize: 0x0 }
  - { offsetInCU: 0x54332, offset: 0x54332, size: 0x8, addend: 0x0, symName: _.str.242, symObjAddr: 0x16BDA0, symBinAddr: 0x10016F160, symSize: 0x0 }
  - { offsetInCU: 0x54344, offset: 0x54344, size: 0x8, addend: 0x0, symName: _.str.243, symObjAddr: 0x16BDE0, symBinAddr: 0x10016F1A0, symSize: 0x0 }
  - { offsetInCU: 0x54356, offset: 0x54356, size: 0x8, addend: 0x0, symName: _.str.244, symObjAddr: 0x16BE00, symBinAddr: 0x10016F1C0, symSize: 0x0 }
  - { offsetInCU: 0x54368, offset: 0x54368, size: 0x8, addend: 0x0, symName: _.str.245, symObjAddr: 0x16BE20, symBinAddr: 0x10016F1E0, symSize: 0x0 }
  - { offsetInCU: 0x5437A, offset: 0x5437A, size: 0x8, addend: 0x0, symName: _.str.246, symObjAddr: 0x16BE60, symBinAddr: 0x10016F220, symSize: 0x0 }
  - { offsetInCU: 0x5438C, offset: 0x5438C, size: 0x8, addend: 0x0, symName: _.str.247, symObjAddr: 0x16BEA0, symBinAddr: 0x10016F260, symSize: 0x0 }
  - { offsetInCU: 0x5439E, offset: 0x5439E, size: 0x8, addend: 0x0, symName: _.str.248, symObjAddr: 0x16BEE0, symBinAddr: 0x10016F2A0, symSize: 0x0 }
  - { offsetInCU: 0x543B0, offset: 0x543B0, size: 0x8, addend: 0x0, symName: _.str.249, symObjAddr: 0x16BF20, symBinAddr: 0x10016F2E0, symSize: 0x0 }
  - { offsetInCU: 0x543C2, offset: 0x543C2, size: 0x8, addend: 0x0, symName: _.str.250, symObjAddr: 0x16BF40, symBinAddr: 0x10016F300, symSize: 0x0 }
  - { offsetInCU: 0x543D4, offset: 0x543D4, size: 0x8, addend: 0x0, symName: _.str.251, symObjAddr: 0x16BF60, symBinAddr: 0x10016F320, symSize: 0x0 }
  - { offsetInCU: 0x543E6, offset: 0x543E6, size: 0x8, addend: 0x0, symName: _.str.252, symObjAddr: 0x16BFA0, symBinAddr: 0x10016F360, symSize: 0x0 }
  - { offsetInCU: 0x543F8, offset: 0x543F8, size: 0x8, addend: 0x0, symName: _.str.253, symObjAddr: 0x16BFE0, symBinAddr: 0x10016F3A0, symSize: 0x0 }
  - { offsetInCU: 0x5440A, offset: 0x5440A, size: 0x8, addend: 0x0, symName: _.str.254, symObjAddr: 0x16C000, symBinAddr: 0x10016F3C0, symSize: 0x0 }
  - { offsetInCU: 0x5441C, offset: 0x5441C, size: 0x8, addend: 0x0, symName: _.str.255, symObjAddr: 0x16C020, symBinAddr: 0x10016F3E0, symSize: 0x0 }
  - { offsetInCU: 0x5442E, offset: 0x5442E, size: 0x8, addend: 0x0, symName: _.str.256, symObjAddr: 0x16C060, symBinAddr: 0x10016F420, symSize: 0x0 }
  - { offsetInCU: 0x54440, offset: 0x54440, size: 0x8, addend: 0x0, symName: _.str.257, symObjAddr: 0x16C0A0, symBinAddr: 0x10016F460, symSize: 0x0 }
  - { offsetInCU: 0x54452, offset: 0x54452, size: 0x8, addend: 0x0, symName: _.str.258, symObjAddr: 0x16C0E0, symBinAddr: 0x10016F4A0, symSize: 0x0 }
  - { offsetInCU: 0x54464, offset: 0x54464, size: 0x8, addend: 0x0, symName: _.str.259, symObjAddr: 0x16C120, symBinAddr: 0x10016F4E0, symSize: 0x0 }
  - { offsetInCU: 0x54476, offset: 0x54476, size: 0x8, addend: 0x0, symName: _.str.260, symObjAddr: 0x16C160, symBinAddr: 0x10016F520, symSize: 0x0 }
  - { offsetInCU: 0x54488, offset: 0x54488, size: 0x8, addend: 0x0, symName: _.str.261, symObjAddr: 0x16C1A0, symBinAddr: 0x10016F560, symSize: 0x0 }
  - { offsetInCU: 0x5449A, offset: 0x5449A, size: 0x8, addend: 0x0, symName: _.str.262, symObjAddr: 0x16C1E0, symBinAddr: 0x10016F5A0, symSize: 0x0 }
  - { offsetInCU: 0x544AC, offset: 0x544AC, size: 0x8, addend: 0x0, symName: _.str.263, symObjAddr: 0x16C220, symBinAddr: 0x10016F5E0, symSize: 0x0 }
  - { offsetInCU: 0x544BE, offset: 0x544BE, size: 0x8, addend: 0x0, symName: _.str.264, symObjAddr: 0x16C260, symBinAddr: 0x10016F620, symSize: 0x0 }
  - { offsetInCU: 0x544D0, offset: 0x544D0, size: 0x8, addend: 0x0, symName: _.str.265, symObjAddr: 0x16C2C0, symBinAddr: 0x10016F680, symSize: 0x0 }
  - { offsetInCU: 0x544E2, offset: 0x544E2, size: 0x8, addend: 0x0, symName: _.str.266, symObjAddr: 0x16C300, symBinAddr: 0x10016F6C0, symSize: 0x0 }
  - { offsetInCU: 0x544F4, offset: 0x544F4, size: 0x8, addend: 0x0, symName: _.str.267, symObjAddr: 0x16C340, symBinAddr: 0x10016F700, symSize: 0x0 }
  - { offsetInCU: 0x54506, offset: 0x54506, size: 0x8, addend: 0x0, symName: _.str.268, symObjAddr: 0x16C380, symBinAddr: 0x10016F740, symSize: 0x0 }
  - { offsetInCU: 0x54518, offset: 0x54518, size: 0x8, addend: 0x0, symName: _.str.269, symObjAddr: 0x16C3A0, symBinAddr: 0x10016F760, symSize: 0x0 }
  - { offsetInCU: 0x5452A, offset: 0x5452A, size: 0x8, addend: 0x0, symName: _.str.270, symObjAddr: 0x16C3E0, symBinAddr: 0x10016F7A0, symSize: 0x0 }
  - { offsetInCU: 0x5453C, offset: 0x5453C, size: 0x8, addend: 0x0, symName: _.str.271, symObjAddr: 0x16C420, symBinAddr: 0x10016F7E0, symSize: 0x0 }
  - { offsetInCU: 0x5454E, offset: 0x5454E, size: 0x8, addend: 0x0, symName: _.str.272, symObjAddr: 0x16C460, symBinAddr: 0x10016F820, symSize: 0x0 }
  - { offsetInCU: 0x54560, offset: 0x54560, size: 0x8, addend: 0x0, symName: _.str.273, symObjAddr: 0x16C4A0, symBinAddr: 0x10016F860, symSize: 0x0 }
  - { offsetInCU: 0x54572, offset: 0x54572, size: 0x8, addend: 0x0, symName: _.str.274, symObjAddr: 0x16C4E0, symBinAddr: 0x10016F8A0, symSize: 0x0 }
  - { offsetInCU: 0x54584, offset: 0x54584, size: 0x8, addend: 0x0, symName: _.str.275, symObjAddr: 0x16C520, symBinAddr: 0x10016F8E0, symSize: 0x0 }
  - { offsetInCU: 0x54596, offset: 0x54596, size: 0x8, addend: 0x0, symName: _.str.276, symObjAddr: 0x16C560, symBinAddr: 0x10016F920, symSize: 0x0 }
  - { offsetInCU: 0x545A8, offset: 0x545A8, size: 0x8, addend: 0x0, symName: _.str.277, symObjAddr: 0x16C5A0, symBinAddr: 0x10016F960, symSize: 0x0 }
  - { offsetInCU: 0x545BA, offset: 0x545BA, size: 0x8, addend: 0x0, symName: _.str.278, symObjAddr: 0x16C5E0, symBinAddr: 0x10016F9A0, symSize: 0x0 }
  - { offsetInCU: 0x545CC, offset: 0x545CC, size: 0x8, addend: 0x0, symName: _.str.279, symObjAddr: 0x16C620, symBinAddr: 0x10016F9E0, symSize: 0x0 }
  - { offsetInCU: 0x545DE, offset: 0x545DE, size: 0x8, addend: 0x0, symName: _.str.280, symObjAddr: 0x16C660, symBinAddr: 0x10016FA20, symSize: 0x0 }
  - { offsetInCU: 0x545F0, offset: 0x545F0, size: 0x8, addend: 0x0, symName: _.str.281, symObjAddr: 0x16C6A0, symBinAddr: 0x10016FA60, symSize: 0x0 }
  - { offsetInCU: 0x54602, offset: 0x54602, size: 0x8, addend: 0x0, symName: _.str.282, symObjAddr: 0x16C6E0, symBinAddr: 0x10016FAA0, symSize: 0x0 }
  - { offsetInCU: 0x54614, offset: 0x54614, size: 0x8, addend: 0x0, symName: _.str.283, symObjAddr: 0x16C720, symBinAddr: 0x10016FAE0, symSize: 0x0 }
  - { offsetInCU: 0x54626, offset: 0x54626, size: 0x8, addend: 0x0, symName: _.str.284, symObjAddr: 0x16C780, symBinAddr: 0x10016FB40, symSize: 0x0 }
  - { offsetInCU: 0x54638, offset: 0x54638, size: 0x8, addend: 0x0, symName: _.str.285, symObjAddr: 0x16C7C0, symBinAddr: 0x10016FB80, symSize: 0x0 }
  - { offsetInCU: 0x5464A, offset: 0x5464A, size: 0x8, addend: 0x0, symName: _.str.286, symObjAddr: 0x16C800, symBinAddr: 0x10016FBC0, symSize: 0x0 }
  - { offsetInCU: 0x5465C, offset: 0x5465C, size: 0x8, addend: 0x0, symName: _.str.287, symObjAddr: 0x16C840, symBinAddr: 0x10016FC00, symSize: 0x0 }
  - { offsetInCU: 0x5466E, offset: 0x5466E, size: 0x8, addend: 0x0, symName: _.str.288, symObjAddr: 0x16C880, symBinAddr: 0x10016FC40, symSize: 0x0 }
  - { offsetInCU: 0x54680, offset: 0x54680, size: 0x8, addend: 0x0, symName: _.str.289, symObjAddr: 0x16C8C0, symBinAddr: 0x10016FC80, symSize: 0x0 }
  - { offsetInCU: 0x54692, offset: 0x54692, size: 0x8, addend: 0x0, symName: _.str.290, symObjAddr: 0x16C900, symBinAddr: 0x10016FCC0, symSize: 0x0 }
  - { offsetInCU: 0x546A4, offset: 0x546A4, size: 0x8, addend: 0x0, symName: _.str.291, symObjAddr: 0x16C940, symBinAddr: 0x10016FD00, symSize: 0x0 }
  - { offsetInCU: 0x546B6, offset: 0x546B6, size: 0x8, addend: 0x0, symName: _.str.292, symObjAddr: 0x16C980, symBinAddr: 0x10016FD40, symSize: 0x0 }
  - { offsetInCU: 0x546C8, offset: 0x546C8, size: 0x8, addend: 0x0, symName: _.str.293, symObjAddr: 0x16C9C0, symBinAddr: 0x10016FD80, symSize: 0x0 }
  - { offsetInCU: 0x546DA, offset: 0x546DA, size: 0x8, addend: 0x0, symName: _.str.294, symObjAddr: 0x16CA20, symBinAddr: 0x10016FDE0, symSize: 0x0 }
  - { offsetInCU: 0x546EC, offset: 0x546EC, size: 0x8, addend: 0x0, symName: _.str.295, symObjAddr: 0x16CA60, symBinAddr: 0x10016FE20, symSize: 0x0 }
  - { offsetInCU: 0x546FE, offset: 0x546FE, size: 0x8, addend: 0x0, symName: _.str.296, symObjAddr: 0x16CA80, symBinAddr: 0x10016FE40, symSize: 0x0 }
  - { offsetInCU: 0x54710, offset: 0x54710, size: 0x8, addend: 0x0, symName: _.str.297, symObjAddr: 0x16CAC0, symBinAddr: 0x10016FE80, symSize: 0x0 }
  - { offsetInCU: 0x54722, offset: 0x54722, size: 0x8, addend: 0x0, symName: _.str.298, symObjAddr: 0x16CB00, symBinAddr: 0x10016FEC0, symSize: 0x0 }
  - { offsetInCU: 0x54734, offset: 0x54734, size: 0x8, addend: 0x0, symName: _.str.299, symObjAddr: 0x16CB40, symBinAddr: 0x10016FF00, symSize: 0x0 }
  - { offsetInCU: 0x54746, offset: 0x54746, size: 0x8, addend: 0x0, symName: _.str.300, symObjAddr: 0x16CB80, symBinAddr: 0x10016FF40, symSize: 0x0 }
  - { offsetInCU: 0x54758, offset: 0x54758, size: 0x8, addend: 0x0, symName: _.str.301, symObjAddr: 0x16CBC0, symBinAddr: 0x10016FF80, symSize: 0x0 }
  - { offsetInCU: 0x5476A, offset: 0x5476A, size: 0x8, addend: 0x0, symName: _.str.302, symObjAddr: 0x16CC00, symBinAddr: 0x10016FFC0, symSize: 0x0 }
  - { offsetInCU: 0x5477C, offset: 0x5477C, size: 0x8, addend: 0x0, symName: _.str.303, symObjAddr: 0x16CC40, symBinAddr: 0x100170000, symSize: 0x0 }
  - { offsetInCU: 0x5478E, offset: 0x5478E, size: 0x8, addend: 0x0, symName: _.str.304, symObjAddr: 0x16CC80, symBinAddr: 0x100170040, symSize: 0x0 }
  - { offsetInCU: 0x547A0, offset: 0x547A0, size: 0x8, addend: 0x0, symName: _.str.305, symObjAddr: 0x16CCC0, symBinAddr: 0x100170080, symSize: 0x0 }
  - { offsetInCU: 0x547B2, offset: 0x547B2, size: 0x8, addend: 0x0, symName: _.str.306, symObjAddr: 0x16CD00, symBinAddr: 0x1001700C0, symSize: 0x0 }
  - { offsetInCU: 0x547D0, offset: 0x547D0, size: 0x8, addend: 0x0, symName: _.str.307, symObjAddr: 0x16CD20, symBinAddr: 0x1001700E0, symSize: 0x0 }
  - { offsetInCU: 0x547E2, offset: 0x547E2, size: 0x8, addend: 0x0, symName: _.str.308, symObjAddr: 0x16CD60, symBinAddr: 0x100170120, symSize: 0x0 }
  - { offsetInCU: 0x547F4, offset: 0x547F4, size: 0x8, addend: 0x0, symName: _.str.309, symObjAddr: 0x16CDA0, symBinAddr: 0x100170160, symSize: 0x0 }
  - { offsetInCU: 0x54806, offset: 0x54806, size: 0x8, addend: 0x0, symName: _.str.310, symObjAddr: 0x16CDE0, symBinAddr: 0x1001701A0, symSize: 0x0 }
  - { offsetInCU: 0x54818, offset: 0x54818, size: 0x8, addend: 0x0, symName: _.str.311, symObjAddr: 0x16CE20, symBinAddr: 0x1001701E0, symSize: 0x0 }
  - { offsetInCU: 0x5482A, offset: 0x5482A, size: 0x8, addend: 0x0, symName: _.str.312, symObjAddr: 0x16CE60, symBinAddr: 0x100170220, symSize: 0x0 }
  - { offsetInCU: 0x5483C, offset: 0x5483C, size: 0x8, addend: 0x0, symName: _.str.313, symObjAddr: 0x16CE80, symBinAddr: 0x100170240, symSize: 0x0 }
  - { offsetInCU: 0x5484E, offset: 0x5484E, size: 0x8, addend: 0x0, symName: _.str.314, symObjAddr: 0x16CEC0, symBinAddr: 0x100170280, symSize: 0x0 }
  - { offsetInCU: 0x54860, offset: 0x54860, size: 0x8, addend: 0x0, symName: _.str.315, symObjAddr: 0x16CF00, symBinAddr: 0x1001702C0, symSize: 0x0 }
  - { offsetInCU: 0x54872, offset: 0x54872, size: 0x8, addend: 0x0, symName: _.str.316, symObjAddr: 0x16CF40, symBinAddr: 0x100170300, symSize: 0x0 }
  - { offsetInCU: 0x54884, offset: 0x54884, size: 0x8, addend: 0x0, symName: _.str.317, symObjAddr: 0x16CF80, symBinAddr: 0x100170340, symSize: 0x0 }
  - { offsetInCU: 0x54896, offset: 0x54896, size: 0x8, addend: 0x0, symName: _.str.318, symObjAddr: 0x16CFE0, symBinAddr: 0x1001703A0, symSize: 0x0 }
  - { offsetInCU: 0x548A8, offset: 0x548A8, size: 0x8, addend: 0x0, symName: _.str.319, symObjAddr: 0x16D000, symBinAddr: 0x1001703C0, symSize: 0x0 }
  - { offsetInCU: 0x548BA, offset: 0x548BA, size: 0x8, addend: 0x0, symName: _.str.320, symObjAddr: 0x16D020, symBinAddr: 0x1001703E0, symSize: 0x0 }
  - { offsetInCU: 0x548CC, offset: 0x548CC, size: 0x8, addend: 0x0, symName: _.str.321, symObjAddr: 0x16D040, symBinAddr: 0x100170400, symSize: 0x0 }
  - { offsetInCU: 0x548DE, offset: 0x548DE, size: 0x8, addend: 0x0, symName: _.str.322, symObjAddr: 0x16D080, symBinAddr: 0x100170440, symSize: 0x0 }
  - { offsetInCU: 0x548F0, offset: 0x548F0, size: 0x8, addend: 0x0, symName: _.str.323, symObjAddr: 0x16D0C0, symBinAddr: 0x100170480, symSize: 0x0 }
  - { offsetInCU: 0x54902, offset: 0x54902, size: 0x8, addend: 0x0, symName: _.str.324, symObjAddr: 0x16D100, symBinAddr: 0x1001704C0, symSize: 0x0 }
  - { offsetInCU: 0x54914, offset: 0x54914, size: 0x8, addend: 0x0, symName: _.str.325, symObjAddr: 0x16D160, symBinAddr: 0x100170520, symSize: 0x0 }
  - { offsetInCU: 0x54926, offset: 0x54926, size: 0x8, addend: 0x0, symName: _.str.326, symObjAddr: 0x16D1A0, symBinAddr: 0x100170560, symSize: 0x0 }
  - { offsetInCU: 0x54938, offset: 0x54938, size: 0x8, addend: 0x0, symName: _.str.327, symObjAddr: 0x16D1C0, symBinAddr: 0x100170580, symSize: 0x0 }
  - { offsetInCU: 0x5494A, offset: 0x5494A, size: 0x8, addend: 0x0, symName: _.str.328, symObjAddr: 0x16D200, symBinAddr: 0x1001705C0, symSize: 0x0 }
  - { offsetInCU: 0x5495C, offset: 0x5495C, size: 0x8, addend: 0x0, symName: _.str.329, symObjAddr: 0x16D240, symBinAddr: 0x100170600, symSize: 0x0 }
  - { offsetInCU: 0x5496E, offset: 0x5496E, size: 0x8, addend: 0x0, symName: _.str.330, symObjAddr: 0x16D280, symBinAddr: 0x100170640, symSize: 0x0 }
  - { offsetInCU: 0x54980, offset: 0x54980, size: 0x8, addend: 0x0, symName: _.str.331, symObjAddr: 0x16D2C0, symBinAddr: 0x100170680, symSize: 0x0 }
  - { offsetInCU: 0x54992, offset: 0x54992, size: 0x8, addend: 0x0, symName: _.str.332, symObjAddr: 0x16D2E0, symBinAddr: 0x1001706A0, symSize: 0x0 }
  - { offsetInCU: 0x549A4, offset: 0x549A4, size: 0x8, addend: 0x0, symName: _.str.333, symObjAddr: 0x16D300, symBinAddr: 0x1001706C0, symSize: 0x0 }
  - { offsetInCU: 0x549B6, offset: 0x549B6, size: 0x8, addend: 0x0, symName: _.str.334, symObjAddr: 0x16D320, symBinAddr: 0x1001706E0, symSize: 0x0 }
  - { offsetInCU: 0x549C8, offset: 0x549C8, size: 0x8, addend: 0x0, symName: _.str.335, symObjAddr: 0x16D360, symBinAddr: 0x100170720, symSize: 0x0 }
  - { offsetInCU: 0x549DA, offset: 0x549DA, size: 0x8, addend: 0x0, symName: _.str.336, symObjAddr: 0x16D380, symBinAddr: 0x100170740, symSize: 0x0 }
  - { offsetInCU: 0x549EC, offset: 0x549EC, size: 0x8, addend: 0x0, symName: _.str.337, symObjAddr: 0x16D3A0, symBinAddr: 0x100170760, symSize: 0x0 }
  - { offsetInCU: 0x549FE, offset: 0x549FE, size: 0x8, addend: 0x0, symName: _.str.338, symObjAddr: 0x16D400, symBinAddr: 0x1001707C0, symSize: 0x0 }
  - { offsetInCU: 0x54A10, offset: 0x54A10, size: 0x8, addend: 0x0, symName: _.str.339, symObjAddr: 0x16D440, symBinAddr: 0x100170800, symSize: 0x0 }
  - { offsetInCU: 0x54A22, offset: 0x54A22, size: 0x8, addend: 0x0, symName: _.str.340, symObjAddr: 0x16D480, symBinAddr: 0x100170840, symSize: 0x0 }
  - { offsetInCU: 0x54A34, offset: 0x54A34, size: 0x8, addend: 0x0, symName: _.str.341, symObjAddr: 0x16D4C0, symBinAddr: 0x100170880, symSize: 0x0 }
  - { offsetInCU: 0x54A46, offset: 0x54A46, size: 0x8, addend: 0x0, symName: _.str.342, symObjAddr: 0x16D500, symBinAddr: 0x1001708C0, symSize: 0x0 }
  - { offsetInCU: 0x54A58, offset: 0x54A58, size: 0x8, addend: 0x0, symName: _.str.343, symObjAddr: 0x16D540, symBinAddr: 0x100170900, symSize: 0x0 }
  - { offsetInCU: 0x54A6A, offset: 0x54A6A, size: 0x8, addend: 0x0, symName: _.str.344, symObjAddr: 0x16D580, symBinAddr: 0x100170940, symSize: 0x0 }
  - { offsetInCU: 0x54A7C, offset: 0x54A7C, size: 0x8, addend: 0x0, symName: _.str.345, symObjAddr: 0x16D5C0, symBinAddr: 0x100170980, symSize: 0x0 }
  - { offsetInCU: 0x54A8E, offset: 0x54A8E, size: 0x8, addend: 0x0, symName: _.str.346, symObjAddr: 0x16D600, symBinAddr: 0x1001709C0, symSize: 0x0 }
  - { offsetInCU: 0x54AA0, offset: 0x54AA0, size: 0x8, addend: 0x0, symName: _.str.347, symObjAddr: 0x16D640, symBinAddr: 0x100170A00, symSize: 0x0 }
  - { offsetInCU: 0x54AB2, offset: 0x54AB2, size: 0x8, addend: 0x0, symName: _.str.348, symObjAddr: 0x16D680, symBinAddr: 0x100170A40, symSize: 0x0 }
  - { offsetInCU: 0x54AC4, offset: 0x54AC4, size: 0x8, addend: 0x0, symName: _.str.349, symObjAddr: 0x16D6C0, symBinAddr: 0x100170A80, symSize: 0x0 }
  - { offsetInCU: 0x54AD6, offset: 0x54AD6, size: 0x8, addend: 0x0, symName: _.str.350, symObjAddr: 0x16D700, symBinAddr: 0x100170AC0, symSize: 0x0 }
  - { offsetInCU: 0x54AE8, offset: 0x54AE8, size: 0x8, addend: 0x0, symName: _.str.351, symObjAddr: 0x16D740, symBinAddr: 0x100170B00, symSize: 0x0 }
  - { offsetInCU: 0x54AFA, offset: 0x54AFA, size: 0x8, addend: 0x0, symName: _.str.352, symObjAddr: 0x16D780, symBinAddr: 0x100170B40, symSize: 0x0 }
  - { offsetInCU: 0x54B0C, offset: 0x54B0C, size: 0x8, addend: 0x0, symName: _.str.353, symObjAddr: 0x16D7C0, symBinAddr: 0x100170B80, symSize: 0x0 }
  - { offsetInCU: 0x54B1E, offset: 0x54B1E, size: 0x8, addend: 0x0, symName: _.str.354, symObjAddr: 0x16D800, symBinAddr: 0x100170BC0, symSize: 0x0 }
  - { offsetInCU: 0x54B30, offset: 0x54B30, size: 0x8, addend: 0x0, symName: _.str.355, symObjAddr: 0x16D840, symBinAddr: 0x100170C00, symSize: 0x0 }
  - { offsetInCU: 0x54B42, offset: 0x54B42, size: 0x8, addend: 0x0, symName: _.str.356, symObjAddr: 0x16D880, symBinAddr: 0x100170C40, symSize: 0x0 }
  - { offsetInCU: 0x54B54, offset: 0x54B54, size: 0x8, addend: 0x0, symName: _.str.357, symObjAddr: 0x16D8E0, symBinAddr: 0x100170CA0, symSize: 0x0 }
  - { offsetInCU: 0x54B66, offset: 0x54B66, size: 0x8, addend: 0x0, symName: _.str.358, symObjAddr: 0x16D920, symBinAddr: 0x100170CE0, symSize: 0x0 }
  - { offsetInCU: 0x54B78, offset: 0x54B78, size: 0x8, addend: 0x0, symName: _.str.359, symObjAddr: 0x16D980, symBinAddr: 0x100170D40, symSize: 0x0 }
  - { offsetInCU: 0x54B8A, offset: 0x54B8A, size: 0x8, addend: 0x0, symName: _.str.360, symObjAddr: 0x16D9E0, symBinAddr: 0x100170DA0, symSize: 0x0 }
  - { offsetInCU: 0x54B9C, offset: 0x54B9C, size: 0x8, addend: 0x0, symName: _.str.361, symObjAddr: 0x16DA40, symBinAddr: 0x100170E00, symSize: 0x0 }
  - { offsetInCU: 0x54BAE, offset: 0x54BAE, size: 0x8, addend: 0x0, symName: _.str.362, symObjAddr: 0x16DA80, symBinAddr: 0x100170E40, symSize: 0x0 }
  - { offsetInCU: 0x54BC0, offset: 0x54BC0, size: 0x8, addend: 0x0, symName: _.str.363, symObjAddr: 0x16DAC0, symBinAddr: 0x100170E80, symSize: 0x0 }
  - { offsetInCU: 0x54BD2, offset: 0x54BD2, size: 0x8, addend: 0x0, symName: _.str.364, symObjAddr: 0x16DB00, symBinAddr: 0x100170EC0, symSize: 0x0 }
  - { offsetInCU: 0x54BE4, offset: 0x54BE4, size: 0x8, addend: 0x0, symName: _.str.365, symObjAddr: 0x16DB40, symBinAddr: 0x100170F00, symSize: 0x0 }
  - { offsetInCU: 0x54BF6, offset: 0x54BF6, size: 0x8, addend: 0x0, symName: _.str.366, symObjAddr: 0x16DB80, symBinAddr: 0x100170F40, symSize: 0x0 }
  - { offsetInCU: 0x54C08, offset: 0x54C08, size: 0x8, addend: 0x0, symName: _.str.367, symObjAddr: 0x16DBC0, symBinAddr: 0x100170F80, symSize: 0x0 }
  - { offsetInCU: 0x54C1A, offset: 0x54C1A, size: 0x8, addend: 0x0, symName: _.str.368, symObjAddr: 0x16DC00, symBinAddr: 0x100170FC0, symSize: 0x0 }
  - { offsetInCU: 0x54C2C, offset: 0x54C2C, size: 0x8, addend: 0x0, symName: _.str.369, symObjAddr: 0x16DC20, symBinAddr: 0x100170FE0, symSize: 0x0 }
  - { offsetInCU: 0x54C3E, offset: 0x54C3E, size: 0x8, addend: 0x0, symName: _.str.370, symObjAddr: 0x16DC60, symBinAddr: 0x100171020, symSize: 0x0 }
  - { offsetInCU: 0x54C50, offset: 0x54C50, size: 0x8, addend: 0x0, symName: _.str.371, symObjAddr: 0x16DCA0, symBinAddr: 0x100171060, symSize: 0x0 }
  - { offsetInCU: 0x54C62, offset: 0x54C62, size: 0x8, addend: 0x0, symName: _.str.372, symObjAddr: 0x16DCE0, symBinAddr: 0x1001710A0, symSize: 0x0 }
  - { offsetInCU: 0x54C74, offset: 0x54C74, size: 0x8, addend: 0x0, symName: _.str.373, symObjAddr: 0x16DD20, symBinAddr: 0x1001710E0, symSize: 0x0 }
  - { offsetInCU: 0x54C86, offset: 0x54C86, size: 0x8, addend: 0x0, symName: _.str.374, symObjAddr: 0x16DD60, symBinAddr: 0x100171120, symSize: 0x0 }
  - { offsetInCU: 0x54C98, offset: 0x54C98, size: 0x8, addend: 0x0, symName: _.str.375, symObjAddr: 0x16DDC0, symBinAddr: 0x100171180, symSize: 0x0 }
  - { offsetInCU: 0x54CAA, offset: 0x54CAA, size: 0x8, addend: 0x0, symName: _.str.376, symObjAddr: 0x16DE00, symBinAddr: 0x1001711C0, symSize: 0x0 }
  - { offsetInCU: 0x54CBC, offset: 0x54CBC, size: 0x8, addend: 0x0, symName: _.str.377, symObjAddr: 0x16DE40, symBinAddr: 0x100171200, symSize: 0x0 }
  - { offsetInCU: 0x54CCE, offset: 0x54CCE, size: 0x8, addend: 0x0, symName: _.str.378, symObjAddr: 0x16DE80, symBinAddr: 0x100171240, symSize: 0x0 }
  - { offsetInCU: 0x54CE0, offset: 0x54CE0, size: 0x8, addend: 0x0, symName: _.str.379, symObjAddr: 0x16DEE0, symBinAddr: 0x1001712A0, symSize: 0x0 }
  - { offsetInCU: 0x54CF2, offset: 0x54CF2, size: 0x8, addend: 0x0, symName: _.str.380, symObjAddr: 0x16DF40, symBinAddr: 0x100171300, symSize: 0x0 }
  - { offsetInCU: 0x54D04, offset: 0x54D04, size: 0x8, addend: 0x0, symName: _.str.381, symObjAddr: 0x16DF80, symBinAddr: 0x100171340, symSize: 0x0 }
  - { offsetInCU: 0x54D16, offset: 0x54D16, size: 0x8, addend: 0x0, symName: _.str.382, symObjAddr: 0x16DFC0, symBinAddr: 0x100171380, symSize: 0x0 }
  - { offsetInCU: 0x54D28, offset: 0x54D28, size: 0x8, addend: 0x0, symName: _.str.383, symObjAddr: 0x16E020, symBinAddr: 0x1001713E0, symSize: 0x0 }
  - { offsetInCU: 0x54D3A, offset: 0x54D3A, size: 0x8, addend: 0x0, symName: _.str.384, symObjAddr: 0x16E080, symBinAddr: 0x100171440, symSize: 0x0 }
  - { offsetInCU: 0x54D4C, offset: 0x54D4C, size: 0x8, addend: 0x0, symName: _.str.385, symObjAddr: 0x16E0E0, symBinAddr: 0x1001714A0, symSize: 0x0 }
  - { offsetInCU: 0x54D5E, offset: 0x54D5E, size: 0x8, addend: 0x0, symName: _.str.386, symObjAddr: 0x16E140, symBinAddr: 0x100171500, symSize: 0x0 }
  - { offsetInCU: 0x54D70, offset: 0x54D70, size: 0x8, addend: 0x0, symName: _.str.387, symObjAddr: 0x16E180, symBinAddr: 0x100171540, symSize: 0x0 }
  - { offsetInCU: 0x54D82, offset: 0x54D82, size: 0x8, addend: 0x0, symName: _.str.388, symObjAddr: 0x16E1C0, symBinAddr: 0x100171580, symSize: 0x0 }
  - { offsetInCU: 0x54D94, offset: 0x54D94, size: 0x8, addend: 0x0, symName: _.str.389, symObjAddr: 0x16E200, symBinAddr: 0x1001715C0, symSize: 0x0 }
  - { offsetInCU: 0x54DA6, offset: 0x54DA6, size: 0x8, addend: 0x0, symName: _.str.390, symObjAddr: 0x16E260, symBinAddr: 0x100171620, symSize: 0x0 }
  - { offsetInCU: 0x54DB8, offset: 0x54DB8, size: 0x8, addend: 0x0, symName: _.str.391, symObjAddr: 0x16E2A0, symBinAddr: 0x100171660, symSize: 0x0 }
  - { offsetInCU: 0x54DCA, offset: 0x54DCA, size: 0x8, addend: 0x0, symName: _.str.392, symObjAddr: 0x16E2E0, symBinAddr: 0x1001716A0, symSize: 0x0 }
  - { offsetInCU: 0x54DDC, offset: 0x54DDC, size: 0x8, addend: 0x0, symName: _.str.393, symObjAddr: 0x16E340, symBinAddr: 0x100171700, symSize: 0x0 }
  - { offsetInCU: 0x54DEE, offset: 0x54DEE, size: 0x8, addend: 0x0, symName: _.str.394, symObjAddr: 0x16E380, symBinAddr: 0x100171740, symSize: 0x0 }
  - { offsetInCU: 0x54E00, offset: 0x54E00, size: 0x8, addend: 0x0, symName: _.str.395, symObjAddr: 0x16E3C0, symBinAddr: 0x100171780, symSize: 0x0 }
  - { offsetInCU: 0x54E12, offset: 0x54E12, size: 0x8, addend: 0x0, symName: _.str.396, symObjAddr: 0x16E400, symBinAddr: 0x1001717C0, symSize: 0x0 }
  - { offsetInCU: 0x54E24, offset: 0x54E24, size: 0x8, addend: 0x0, symName: _.str.397, symObjAddr: 0x16E440, symBinAddr: 0x100171800, symSize: 0x0 }
  - { offsetInCU: 0x54E36, offset: 0x54E36, size: 0x8, addend: 0x0, symName: _.str.398, symObjAddr: 0x16E4A0, symBinAddr: 0x100171860, symSize: 0x0 }
  - { offsetInCU: 0x54E48, offset: 0x54E48, size: 0x8, addend: 0x0, symName: _.str.399, symObjAddr: 0x16E500, symBinAddr: 0x1001718C0, symSize: 0x0 }
  - { offsetInCU: 0x54E5A, offset: 0x54E5A, size: 0x8, addend: 0x0, symName: _.str.400, symObjAddr: 0x16E560, symBinAddr: 0x100171920, symSize: 0x0 }
  - { offsetInCU: 0x54E6C, offset: 0x54E6C, size: 0x8, addend: 0x0, symName: _.str.401, symObjAddr: 0x16E5C0, symBinAddr: 0x100171980, symSize: 0x0 }
  - { offsetInCU: 0x54E7E, offset: 0x54E7E, size: 0x8, addend: 0x0, symName: _.str.402, symObjAddr: 0x16E600, symBinAddr: 0x1001719C0, symSize: 0x0 }
  - { offsetInCU: 0x54E90, offset: 0x54E90, size: 0x8, addend: 0x0, symName: _.str.403, symObjAddr: 0x16E640, symBinAddr: 0x100171A00, symSize: 0x0 }
  - { offsetInCU: 0x54EA2, offset: 0x54EA2, size: 0x8, addend: 0x0, symName: _.str.404, symObjAddr: 0x16E680, symBinAddr: 0x100171A40, symSize: 0x0 }
  - { offsetInCU: 0x54EB4, offset: 0x54EB4, size: 0x8, addend: 0x0, symName: _.str.405, symObjAddr: 0x16E6C0, symBinAddr: 0x100171A80, symSize: 0x0 }
  - { offsetInCU: 0x54EC6, offset: 0x54EC6, size: 0x8, addend: 0x0, symName: _.str.406, symObjAddr: 0x16E700, symBinAddr: 0x100171AC0, symSize: 0x0 }
  - { offsetInCU: 0x54ED8, offset: 0x54ED8, size: 0x8, addend: 0x0, symName: _.str.407, symObjAddr: 0x16E740, symBinAddr: 0x100171B00, symSize: 0x0 }
  - { offsetInCU: 0x54EEA, offset: 0x54EEA, size: 0x8, addend: 0x0, symName: _.str.408, symObjAddr: 0x16E780, symBinAddr: 0x100171B40, symSize: 0x0 }
  - { offsetInCU: 0x54EFC, offset: 0x54EFC, size: 0x8, addend: 0x0, symName: _.str.409, symObjAddr: 0x16E7C0, symBinAddr: 0x100171B80, symSize: 0x0 }
  - { offsetInCU: 0x54F0E, offset: 0x54F0E, size: 0x8, addend: 0x0, symName: _.str.410, symObjAddr: 0x16E800, symBinAddr: 0x100171BC0, symSize: 0x0 }
  - { offsetInCU: 0x54F20, offset: 0x54F20, size: 0x8, addend: 0x0, symName: _.str.411, symObjAddr: 0x16E840, symBinAddr: 0x100171C00, symSize: 0x0 }
  - { offsetInCU: 0x54F32, offset: 0x54F32, size: 0x8, addend: 0x0, symName: _.str.412, symObjAddr: 0x16E880, symBinAddr: 0x100171C40, symSize: 0x0 }
  - { offsetInCU: 0x54F44, offset: 0x54F44, size: 0x8, addend: 0x0, symName: _.str.413, symObjAddr: 0x16E8C0, symBinAddr: 0x100171C80, symSize: 0x0 }
  - { offsetInCU: 0x54F56, offset: 0x54F56, size: 0x8, addend: 0x0, symName: _.str.414, symObjAddr: 0x16E900, symBinAddr: 0x100171CC0, symSize: 0x0 }
  - { offsetInCU: 0x54F68, offset: 0x54F68, size: 0x8, addend: 0x0, symName: _.str.415, symObjAddr: 0x16E940, symBinAddr: 0x100171D00, symSize: 0x0 }
  - { offsetInCU: 0x54F7A, offset: 0x54F7A, size: 0x8, addend: 0x0, symName: _.str.416, symObjAddr: 0x16E980, symBinAddr: 0x100171D40, symSize: 0x0 }
  - { offsetInCU: 0x54F8C, offset: 0x54F8C, size: 0x8, addend: 0x0, symName: _.str.417, symObjAddr: 0x16E9C0, symBinAddr: 0x100171D80, symSize: 0x0 }
  - { offsetInCU: 0x54F9E, offset: 0x54F9E, size: 0x8, addend: 0x0, symName: _.str.418, symObjAddr: 0x16EA00, symBinAddr: 0x100171DC0, symSize: 0x0 }
  - { offsetInCU: 0x54FB0, offset: 0x54FB0, size: 0x8, addend: 0x0, symName: _.str.419, symObjAddr: 0x16EA40, symBinAddr: 0x100171E00, symSize: 0x0 }
  - { offsetInCU: 0x54FC2, offset: 0x54FC2, size: 0x8, addend: 0x0, symName: _.str.420, symObjAddr: 0x16EAA0, symBinAddr: 0x100171E60, symSize: 0x0 }
  - { offsetInCU: 0x54FD4, offset: 0x54FD4, size: 0x8, addend: 0x0, symName: _.str.421, symObjAddr: 0x16EAE0, symBinAddr: 0x100171EA0, symSize: 0x0 }
  - { offsetInCU: 0x54FE6, offset: 0x54FE6, size: 0x8, addend: 0x0, symName: _.str.422, symObjAddr: 0x16EB20, symBinAddr: 0x100171EE0, symSize: 0x0 }
  - { offsetInCU: 0x54FF8, offset: 0x54FF8, size: 0x8, addend: 0x0, symName: _.str.423, symObjAddr: 0x16EB60, symBinAddr: 0x100171F20, symSize: 0x0 }
  - { offsetInCU: 0x5500A, offset: 0x5500A, size: 0x8, addend: 0x0, symName: _.str.424, symObjAddr: 0x16EBA0, symBinAddr: 0x100171F60, symSize: 0x0 }
  - { offsetInCU: 0x5501C, offset: 0x5501C, size: 0x8, addend: 0x0, symName: _.str.425, symObjAddr: 0x16EBE0, symBinAddr: 0x100171FA0, symSize: 0x0 }
  - { offsetInCU: 0x5502E, offset: 0x5502E, size: 0x8, addend: 0x0, symName: _.str.426, symObjAddr: 0x16EC20, symBinAddr: 0x100171FE0, symSize: 0x0 }
  - { offsetInCU: 0x55040, offset: 0x55040, size: 0x8, addend: 0x0, symName: _.str.427, symObjAddr: 0x16EC60, symBinAddr: 0x100172020, symSize: 0x0 }
  - { offsetInCU: 0x55052, offset: 0x55052, size: 0x8, addend: 0x0, symName: _.str.428, symObjAddr: 0x16ECA0, symBinAddr: 0x100172060, symSize: 0x0 }
  - { offsetInCU: 0x55064, offset: 0x55064, size: 0x8, addend: 0x0, symName: _.str.429, symObjAddr: 0x16ECE0, symBinAddr: 0x1001720A0, symSize: 0x0 }
  - { offsetInCU: 0x55076, offset: 0x55076, size: 0x8, addend: 0x0, symName: _.str.430, symObjAddr: 0x16ED20, symBinAddr: 0x1001720E0, symSize: 0x0 }
  - { offsetInCU: 0x55088, offset: 0x55088, size: 0x8, addend: 0x0, symName: _.str.431, symObjAddr: 0x16ED60, symBinAddr: 0x100172120, symSize: 0x0 }
  - { offsetInCU: 0x5509A, offset: 0x5509A, size: 0x8, addend: 0x0, symName: _.str.432, symObjAddr: 0x16EDA0, symBinAddr: 0x100172160, symSize: 0x0 }
  - { offsetInCU: 0x550AC, offset: 0x550AC, size: 0x8, addend: 0x0, symName: _.str.433, symObjAddr: 0x16EE00, symBinAddr: 0x1001721C0, symSize: 0x0 }
  - { offsetInCU: 0x550BE, offset: 0x550BE, size: 0x8, addend: 0x0, symName: _.str.434, symObjAddr: 0x16EE40, symBinAddr: 0x100172200, symSize: 0x0 }
  - { offsetInCU: 0x550D0, offset: 0x550D0, size: 0x8, addend: 0x0, symName: _.str.435, symObjAddr: 0x16EE80, symBinAddr: 0x100172240, symSize: 0x0 }
  - { offsetInCU: 0x550E2, offset: 0x550E2, size: 0x8, addend: 0x0, symName: _.str.436, symObjAddr: 0x16EEC0, symBinAddr: 0x100172280, symSize: 0x0 }
  - { offsetInCU: 0x550F4, offset: 0x550F4, size: 0x8, addend: 0x0, symName: _.str.437, symObjAddr: 0x16EF00, symBinAddr: 0x1001722C0, symSize: 0x0 }
  - { offsetInCU: 0x55106, offset: 0x55106, size: 0x8, addend: 0x0, symName: _.str.438, symObjAddr: 0x16EF40, symBinAddr: 0x100172300, symSize: 0x0 }
  - { offsetInCU: 0x55118, offset: 0x55118, size: 0x8, addend: 0x0, symName: _.str.439, symObjAddr: 0x16EF80, symBinAddr: 0x100172340, symSize: 0x0 }
  - { offsetInCU: 0x5512A, offset: 0x5512A, size: 0x8, addend: 0x0, symName: _.str.440, symObjAddr: 0x16EFE0, symBinAddr: 0x1001723A0, symSize: 0x0 }
  - { offsetInCU: 0x5513C, offset: 0x5513C, size: 0x8, addend: 0x0, symName: _.str.441, symObjAddr: 0x16F020, symBinAddr: 0x1001723E0, symSize: 0x0 }
  - { offsetInCU: 0x5514E, offset: 0x5514E, size: 0x8, addend: 0x0, symName: _.str.442, symObjAddr: 0x16F080, symBinAddr: 0x100172440, symSize: 0x0 }
  - { offsetInCU: 0x55160, offset: 0x55160, size: 0x8, addend: 0x0, symName: _.str.443, symObjAddr: 0x16F0C0, symBinAddr: 0x100172480, symSize: 0x0 }
  - { offsetInCU: 0x55172, offset: 0x55172, size: 0x8, addend: 0x0, symName: _.str.444, symObjAddr: 0x16F100, symBinAddr: 0x1001724C0, symSize: 0x0 }
  - { offsetInCU: 0x55184, offset: 0x55184, size: 0x8, addend: 0x0, symName: _.str.445, symObjAddr: 0x16F140, symBinAddr: 0x100172500, symSize: 0x0 }
  - { offsetInCU: 0x55196, offset: 0x55196, size: 0x8, addend: 0x0, symName: _.str.446, symObjAddr: 0x16F1A0, symBinAddr: 0x100172560, symSize: 0x0 }
  - { offsetInCU: 0x551A8, offset: 0x551A8, size: 0x8, addend: 0x0, symName: _.str.447, symObjAddr: 0x16F1E0, symBinAddr: 0x1001725A0, symSize: 0x0 }
  - { offsetInCU: 0x551BA, offset: 0x551BA, size: 0x8, addend: 0x0, symName: _.str.448, symObjAddr: 0x16F220, symBinAddr: 0x1001725E0, symSize: 0x0 }
  - { offsetInCU: 0x551CC, offset: 0x551CC, size: 0x8, addend: 0x0, symName: _.str.449, symObjAddr: 0x16F280, symBinAddr: 0x100172640, symSize: 0x0 }
  - { offsetInCU: 0x551DE, offset: 0x551DE, size: 0x8, addend: 0x0, symName: _.str.450, symObjAddr: 0x16F2C0, symBinAddr: 0x100172680, symSize: 0x0 }
  - { offsetInCU: 0x551F0, offset: 0x551F0, size: 0x8, addend: 0x0, symName: _.str.451, symObjAddr: 0x16F300, symBinAddr: 0x1001726C0, symSize: 0x0 }
  - { offsetInCU: 0x55202, offset: 0x55202, size: 0x8, addend: 0x0, symName: _.str.452, symObjAddr: 0x16F340, symBinAddr: 0x100172700, symSize: 0x0 }
  - { offsetInCU: 0x55214, offset: 0x55214, size: 0x8, addend: 0x0, symName: _.str.453, symObjAddr: 0x16F3A0, symBinAddr: 0x100172760, symSize: 0x0 }
  - { offsetInCU: 0x55226, offset: 0x55226, size: 0x8, addend: 0x0, symName: _.str.454, symObjAddr: 0x16F400, symBinAddr: 0x1001727C0, symSize: 0x0 }
  - { offsetInCU: 0x55238, offset: 0x55238, size: 0x8, addend: 0x0, symName: _.str.455, symObjAddr: 0x16F460, symBinAddr: 0x100172820, symSize: 0x0 }
  - { offsetInCU: 0x5524A, offset: 0x5524A, size: 0x8, addend: 0x0, symName: _.str.456, symObjAddr: 0x16F4C0, symBinAddr: 0x100172880, symSize: 0x0 }
  - { offsetInCU: 0x5525C, offset: 0x5525C, size: 0x8, addend: 0x0, symName: _.str.457, symObjAddr: 0x16F520, symBinAddr: 0x1001728E0, symSize: 0x0 }
  - { offsetInCU: 0x5526E, offset: 0x5526E, size: 0x8, addend: 0x0, symName: _.str.458, symObjAddr: 0x16F580, symBinAddr: 0x100172940, symSize: 0x0 }
  - { offsetInCU: 0x55280, offset: 0x55280, size: 0x8, addend: 0x0, symName: _.str.459, symObjAddr: 0x16F5C0, symBinAddr: 0x100172980, symSize: 0x0 }
  - { offsetInCU: 0x55292, offset: 0x55292, size: 0x8, addend: 0x0, symName: _.str.460, symObjAddr: 0x16F620, symBinAddr: 0x1001729E0, symSize: 0x0 }
  - { offsetInCU: 0x552A4, offset: 0x552A4, size: 0x8, addend: 0x0, symName: _.str.461, symObjAddr: 0x16F680, symBinAddr: 0x100172A40, symSize: 0x0 }
  - { offsetInCU: 0x552B6, offset: 0x552B6, size: 0x8, addend: 0x0, symName: _.str.462, symObjAddr: 0x16F6E0, symBinAddr: 0x100172AA0, symSize: 0x0 }
  - { offsetInCU: 0x552C8, offset: 0x552C8, size: 0x8, addend: 0x0, symName: _.str.463, symObjAddr: 0x16F740, symBinAddr: 0x100172B00, symSize: 0x0 }
  - { offsetInCU: 0x552DA, offset: 0x552DA, size: 0x8, addend: 0x0, symName: _.str.464, symObjAddr: 0x16F7A0, symBinAddr: 0x100172B60, symSize: 0x0 }
  - { offsetInCU: 0x552EC, offset: 0x552EC, size: 0x8, addend: 0x0, symName: _.str.465, symObjAddr: 0x16F800, symBinAddr: 0x100172BC0, symSize: 0x0 }
  - { offsetInCU: 0x552FE, offset: 0x552FE, size: 0x8, addend: 0x0, symName: _.str.466, symObjAddr: 0x16F860, symBinAddr: 0x100172C20, symSize: 0x0 }
  - { offsetInCU: 0x55310, offset: 0x55310, size: 0x8, addend: 0x0, symName: _.str.467, symObjAddr: 0x16F8C0, symBinAddr: 0x100172C80, symSize: 0x0 }
  - { offsetInCU: 0x55322, offset: 0x55322, size: 0x8, addend: 0x0, symName: _.str.468, symObjAddr: 0x16F900, symBinAddr: 0x100172CC0, symSize: 0x0 }
  - { offsetInCU: 0x55334, offset: 0x55334, size: 0x8, addend: 0x0, symName: _.str.469, symObjAddr: 0x16F940, symBinAddr: 0x100172D00, symSize: 0x0 }
  - { offsetInCU: 0x55346, offset: 0x55346, size: 0x8, addend: 0x0, symName: _.str.470, symObjAddr: 0x16F9A0, symBinAddr: 0x100172D60, symSize: 0x0 }
  - { offsetInCU: 0x55358, offset: 0x55358, size: 0x8, addend: 0x0, symName: _.str.471, symObjAddr: 0x16FA00, symBinAddr: 0x100172DC0, symSize: 0x0 }
  - { offsetInCU: 0x5536A, offset: 0x5536A, size: 0x8, addend: 0x0, symName: _.str.472, symObjAddr: 0x16FA60, symBinAddr: 0x100172E20, symSize: 0x0 }
  - { offsetInCU: 0x5537C, offset: 0x5537C, size: 0x8, addend: 0x0, symName: _.str.473, symObjAddr: 0x16FAA0, symBinAddr: 0x100172E60, symSize: 0x0 }
  - { offsetInCU: 0x5538E, offset: 0x5538E, size: 0x8, addend: 0x0, symName: _.str.474, symObjAddr: 0x16FAE0, symBinAddr: 0x100172EA0, symSize: 0x0 }
  - { offsetInCU: 0x553A0, offset: 0x553A0, size: 0x8, addend: 0x0, symName: _.str.475, symObjAddr: 0x16FB20, symBinAddr: 0x100172EE0, symSize: 0x0 }
  - { offsetInCU: 0x553B2, offset: 0x553B2, size: 0x8, addend: 0x0, symName: _.str.476, symObjAddr: 0x16FB60, symBinAddr: 0x100172F20, symSize: 0x0 }
  - { offsetInCU: 0x553C4, offset: 0x553C4, size: 0x8, addend: 0x0, symName: _.str.477, symObjAddr: 0x16FBC0, symBinAddr: 0x100172F80, symSize: 0x0 }
  - { offsetInCU: 0x553D6, offset: 0x553D6, size: 0x8, addend: 0x0, symName: _.str.478, symObjAddr: 0x16FC20, symBinAddr: 0x100172FE0, symSize: 0x0 }
  - { offsetInCU: 0x553E8, offset: 0x553E8, size: 0x8, addend: 0x0, symName: _.str.479, symObjAddr: 0x16FC80, symBinAddr: 0x100173040, symSize: 0x0 }
  - { offsetInCU: 0x553FA, offset: 0x553FA, size: 0x8, addend: 0x0, symName: _.str.480, symObjAddr: 0x16FCC0, symBinAddr: 0x100173080, symSize: 0x0 }
  - { offsetInCU: 0x5540C, offset: 0x5540C, size: 0x8, addend: 0x0, symName: _.str.481, symObjAddr: 0x16FD00, symBinAddr: 0x1001730C0, symSize: 0x0 }
  - { offsetInCU: 0x5541E, offset: 0x5541E, size: 0x8, addend: 0x0, symName: _.str.482, symObjAddr: 0x16FD60, symBinAddr: 0x100173120, symSize: 0x0 }
  - { offsetInCU: 0x55430, offset: 0x55430, size: 0x8, addend: 0x0, symName: _.str.483, symObjAddr: 0x16FDA0, symBinAddr: 0x100173160, symSize: 0x0 }
  - { offsetInCU: 0x55442, offset: 0x55442, size: 0x8, addend: 0x0, symName: _.str.484, symObjAddr: 0x16FDE0, symBinAddr: 0x1001731A0, symSize: 0x0 }
  - { offsetInCU: 0x55454, offset: 0x55454, size: 0x8, addend: 0x0, symName: _.str.485, symObjAddr: 0x16FE20, symBinAddr: 0x1001731E0, symSize: 0x0 }
  - { offsetInCU: 0x55466, offset: 0x55466, size: 0x8, addend: 0x0, symName: _.str.486, symObjAddr: 0x16FE80, symBinAddr: 0x100173240, symSize: 0x0 }
  - { offsetInCU: 0x55478, offset: 0x55478, size: 0x8, addend: 0x0, symName: _.str.487, symObjAddr: 0x16FEC0, symBinAddr: 0x100173280, symSize: 0x0 }
  - { offsetInCU: 0x5548A, offset: 0x5548A, size: 0x8, addend: 0x0, symName: _.str.488, symObjAddr: 0x16FF20, symBinAddr: 0x1001732E0, symSize: 0x0 }
  - { offsetInCU: 0x5549C, offset: 0x5549C, size: 0x8, addend: 0x0, symName: _.str.489, symObjAddr: 0x16FF80, symBinAddr: 0x100173340, symSize: 0x0 }
  - { offsetInCU: 0x554AE, offset: 0x554AE, size: 0x8, addend: 0x0, symName: _.str.490, symObjAddr: 0x16FFE0, symBinAddr: 0x1001733A0, symSize: 0x0 }
  - { offsetInCU: 0x554C0, offset: 0x554C0, size: 0x8, addend: 0x0, symName: _.str.491, symObjAddr: 0x170040, symBinAddr: 0x100173400, symSize: 0x0 }
  - { offsetInCU: 0x554D2, offset: 0x554D2, size: 0x8, addend: 0x0, symName: _.str.492, symObjAddr: 0x1700A0, symBinAddr: 0x100173460, symSize: 0x0 }
  - { offsetInCU: 0x554E4, offset: 0x554E4, size: 0x8, addend: 0x0, symName: _.str.493, symObjAddr: 0x1700E0, symBinAddr: 0x1001734A0, symSize: 0x0 }
  - { offsetInCU: 0x554F6, offset: 0x554F6, size: 0x8, addend: 0x0, symName: _.str.494, symObjAddr: 0x170140, symBinAddr: 0x100173500, symSize: 0x0 }
  - { offsetInCU: 0x55508, offset: 0x55508, size: 0x8, addend: 0x0, symName: _.str.495, symObjAddr: 0x1701A0, symBinAddr: 0x100173560, symSize: 0x0 }
  - { offsetInCU: 0x5551A, offset: 0x5551A, size: 0x8, addend: 0x0, symName: _.str.496, symObjAddr: 0x170200, symBinAddr: 0x1001735C0, symSize: 0x0 }
  - { offsetInCU: 0x5552C, offset: 0x5552C, size: 0x8, addend: 0x0, symName: _.str.497, symObjAddr: 0x170260, symBinAddr: 0x100173620, symSize: 0x0 }
  - { offsetInCU: 0x5553E, offset: 0x5553E, size: 0x8, addend: 0x0, symName: _.str.498, symObjAddr: 0x1702C0, symBinAddr: 0x100173680, symSize: 0x0 }
  - { offsetInCU: 0x55550, offset: 0x55550, size: 0x8, addend: 0x0, symName: _.str.499, symObjAddr: 0x170320, symBinAddr: 0x1001736E0, symSize: 0x0 }
  - { offsetInCU: 0x55562, offset: 0x55562, size: 0x8, addend: 0x0, symName: _.str.500, symObjAddr: 0x170380, symBinAddr: 0x100173740, symSize: 0x0 }
  - { offsetInCU: 0x55574, offset: 0x55574, size: 0x8, addend: 0x0, symName: _.str.501, symObjAddr: 0x1703E0, symBinAddr: 0x1001737A0, symSize: 0x0 }
  - { offsetInCU: 0x55586, offset: 0x55586, size: 0x8, addend: 0x0, symName: _.str.502, symObjAddr: 0x170440, symBinAddr: 0x100173800, symSize: 0x0 }
  - { offsetInCU: 0x55598, offset: 0x55598, size: 0x8, addend: 0x0, symName: _.str.503, symObjAddr: 0x170480, symBinAddr: 0x100173840, symSize: 0x0 }
  - { offsetInCU: 0x555AA, offset: 0x555AA, size: 0x8, addend: 0x0, symName: _.str.504, symObjAddr: 0x1704C0, symBinAddr: 0x100173880, symSize: 0x0 }
  - { offsetInCU: 0x555BC, offset: 0x555BC, size: 0x8, addend: 0x0, symName: _.str.505, symObjAddr: 0x170520, symBinAddr: 0x1001738E0, symSize: 0x0 }
  - { offsetInCU: 0x555CE, offset: 0x555CE, size: 0x8, addend: 0x0, symName: _.str.506, symObjAddr: 0x170560, symBinAddr: 0x100173920, symSize: 0x0 }
  - { offsetInCU: 0x555E0, offset: 0x555E0, size: 0x8, addend: 0x0, symName: _.str.507, symObjAddr: 0x1705A0, symBinAddr: 0x100173960, symSize: 0x0 }
  - { offsetInCU: 0x555F2, offset: 0x555F2, size: 0x8, addend: 0x0, symName: _.str.508, symObjAddr: 0x170600, symBinAddr: 0x1001739C0, symSize: 0x0 }
  - { offsetInCU: 0x55604, offset: 0x55604, size: 0x8, addend: 0x0, symName: _.str.509, symObjAddr: 0x170660, symBinAddr: 0x100173A20, symSize: 0x0 }
  - { offsetInCU: 0x55616, offset: 0x55616, size: 0x8, addend: 0x0, symName: _.str.510, symObjAddr: 0x1706A0, symBinAddr: 0x100173A60, symSize: 0x0 }
  - { offsetInCU: 0x55628, offset: 0x55628, size: 0x8, addend: 0x0, symName: _.str.511, symObjAddr: 0x1706E0, symBinAddr: 0x100173AA0, symSize: 0x0 }
  - { offsetInCU: 0x5563A, offset: 0x5563A, size: 0x8, addend: 0x0, symName: _.str.512, symObjAddr: 0x170720, symBinAddr: 0x100173AE0, symSize: 0x0 }
  - { offsetInCU: 0x5564C, offset: 0x5564C, size: 0x8, addend: 0x0, symName: _.str.513, symObjAddr: 0x170760, symBinAddr: 0x100173B20, symSize: 0x0 }
  - { offsetInCU: 0x5565E, offset: 0x5565E, size: 0x8, addend: 0x0, symName: _.str.514, symObjAddr: 0x1707A0, symBinAddr: 0x100173B60, symSize: 0x0 }
  - { offsetInCU: 0x55670, offset: 0x55670, size: 0x8, addend: 0x0, symName: _.str.515, symObjAddr: 0x1707E0, symBinAddr: 0x100173BA0, symSize: 0x0 }
  - { offsetInCU: 0x55682, offset: 0x55682, size: 0x8, addend: 0x0, symName: _.str.516, symObjAddr: 0x170820, symBinAddr: 0x100173BE0, symSize: 0x0 }
  - { offsetInCU: 0x55694, offset: 0x55694, size: 0x8, addend: 0x0, symName: _.str.517, symObjAddr: 0x170860, symBinAddr: 0x100173C20, symSize: 0x0 }
  - { offsetInCU: 0x556A6, offset: 0x556A6, size: 0x8, addend: 0x0, symName: _.str.518, symObjAddr: 0x1708A0, symBinAddr: 0x100173C60, symSize: 0x0 }
  - { offsetInCU: 0x556B8, offset: 0x556B8, size: 0x8, addend: 0x0, symName: _.str.519, symObjAddr: 0x1708E0, symBinAddr: 0x100173CA0, symSize: 0x0 }
  - { offsetInCU: 0x556CA, offset: 0x556CA, size: 0x8, addend: 0x0, symName: _.str.520, symObjAddr: 0x170920, symBinAddr: 0x100173CE0, symSize: 0x0 }
  - { offsetInCU: 0x556DC, offset: 0x556DC, size: 0x8, addend: 0x0, symName: _.str.521, symObjAddr: 0x170960, symBinAddr: 0x100173D20, symSize: 0x0 }
  - { offsetInCU: 0x556EE, offset: 0x556EE, size: 0x8, addend: 0x0, symName: _.str.522, symObjAddr: 0x1709A0, symBinAddr: 0x100173D60, symSize: 0x0 }
  - { offsetInCU: 0x55700, offset: 0x55700, size: 0x8, addend: 0x0, symName: _.str.523, symObjAddr: 0x1709E0, symBinAddr: 0x100173DA0, symSize: 0x0 }
  - { offsetInCU: 0x55712, offset: 0x55712, size: 0x8, addend: 0x0, symName: _.str.524, symObjAddr: 0x170A20, symBinAddr: 0x100173DE0, symSize: 0x0 }
  - { offsetInCU: 0x55724, offset: 0x55724, size: 0x8, addend: 0x0, symName: _.str.525, symObjAddr: 0x170A60, symBinAddr: 0x100173E20, symSize: 0x0 }
  - { offsetInCU: 0x55736, offset: 0x55736, size: 0x8, addend: 0x0, symName: _.str.526, symObjAddr: 0x170AA0, symBinAddr: 0x100173E60, symSize: 0x0 }
  - { offsetInCU: 0x55748, offset: 0x55748, size: 0x8, addend: 0x0, symName: _.str.527, symObjAddr: 0x170AE0, symBinAddr: 0x100173EA0, symSize: 0x0 }
  - { offsetInCU: 0x5575A, offset: 0x5575A, size: 0x8, addend: 0x0, symName: _.str.528, symObjAddr: 0x170B40, symBinAddr: 0x100173F00, symSize: 0x0 }
  - { offsetInCU: 0x5576C, offset: 0x5576C, size: 0x8, addend: 0x0, symName: _.str.529, symObjAddr: 0x170B80, symBinAddr: 0x100173F40, symSize: 0x0 }
  - { offsetInCU: 0x5577E, offset: 0x5577E, size: 0x8, addend: 0x0, symName: _.str.530, symObjAddr: 0x170BC0, symBinAddr: 0x100173F80, symSize: 0x0 }
  - { offsetInCU: 0x55790, offset: 0x55790, size: 0x8, addend: 0x0, symName: _.str.531, symObjAddr: 0x170C00, symBinAddr: 0x100173FC0, symSize: 0x0 }
  - { offsetInCU: 0x557A2, offset: 0x557A2, size: 0x8, addend: 0x0, symName: _.str.532, symObjAddr: 0x170C40, symBinAddr: 0x100174000, symSize: 0x0 }
  - { offsetInCU: 0x557B4, offset: 0x557B4, size: 0x8, addend: 0x0, symName: _.str.533, symObjAddr: 0x170CA0, symBinAddr: 0x100174060, symSize: 0x0 }
  - { offsetInCU: 0x557C6, offset: 0x557C6, size: 0x8, addend: 0x0, symName: _.str.534, symObjAddr: 0x170CE0, symBinAddr: 0x1001740A0, symSize: 0x0 }
  - { offsetInCU: 0x557D8, offset: 0x557D8, size: 0x8, addend: 0x0, symName: _.str.535, symObjAddr: 0x170D20, symBinAddr: 0x1001740E0, symSize: 0x0 }
  - { offsetInCU: 0x557EA, offset: 0x557EA, size: 0x8, addend: 0x0, symName: _.str.536, symObjAddr: 0x170D60, symBinAddr: 0x100174120, symSize: 0x0 }
  - { offsetInCU: 0x557FC, offset: 0x557FC, size: 0x8, addend: 0x0, symName: _.str.537, symObjAddr: 0x170DA0, symBinAddr: 0x100174160, symSize: 0x0 }
  - { offsetInCU: 0x5580E, offset: 0x5580E, size: 0x8, addend: 0x0, symName: _.str.538, symObjAddr: 0x170DE0, symBinAddr: 0x1001741A0, symSize: 0x0 }
  - { offsetInCU: 0x55820, offset: 0x55820, size: 0x8, addend: 0x0, symName: _.str.539, symObjAddr: 0x170E20, symBinAddr: 0x1001741E0, symSize: 0x0 }
  - { offsetInCU: 0x55832, offset: 0x55832, size: 0x8, addend: 0x0, symName: _.str.540, symObjAddr: 0x170E80, symBinAddr: 0x100174240, symSize: 0x0 }
  - { offsetInCU: 0x55844, offset: 0x55844, size: 0x8, addend: 0x0, symName: _.str.541, symObjAddr: 0x170EE0, symBinAddr: 0x1001742A0, symSize: 0x0 }
  - { offsetInCU: 0x55856, offset: 0x55856, size: 0x8, addend: 0x0, symName: _.str.542, symObjAddr: 0x170F20, symBinAddr: 0x1001742E0, symSize: 0x0 }
  - { offsetInCU: 0x55868, offset: 0x55868, size: 0x8, addend: 0x0, symName: _.str.543, symObjAddr: 0x170F80, symBinAddr: 0x100174340, symSize: 0x0 }
  - { offsetInCU: 0x5587A, offset: 0x5587A, size: 0x8, addend: 0x0, symName: _.str.544, symObjAddr: 0x170FC0, symBinAddr: 0x100174380, symSize: 0x0 }
  - { offsetInCU: 0x5588C, offset: 0x5588C, size: 0x8, addend: 0x0, symName: _.str.545, symObjAddr: 0x171000, symBinAddr: 0x1001743C0, symSize: 0x0 }
  - { offsetInCU: 0x5589E, offset: 0x5589E, size: 0x8, addend: 0x0, symName: _.str.546, symObjAddr: 0x171060, symBinAddr: 0x100174420, symSize: 0x0 }
  - { offsetInCU: 0x558B0, offset: 0x558B0, size: 0x8, addend: 0x0, symName: _.str.547, symObjAddr: 0x1710A0, symBinAddr: 0x100174460, symSize: 0x0 }
  - { offsetInCU: 0x558C2, offset: 0x558C2, size: 0x8, addend: 0x0, symName: _.str.548, symObjAddr: 0x171100, symBinAddr: 0x1001744C0, symSize: 0x0 }
  - { offsetInCU: 0x558D4, offset: 0x558D4, size: 0x8, addend: 0x0, symName: _.str.549, symObjAddr: 0x171160, symBinAddr: 0x100174520, symSize: 0x0 }
  - { offsetInCU: 0x558E6, offset: 0x558E6, size: 0x8, addend: 0x0, symName: _.str.550, symObjAddr: 0x1711A0, symBinAddr: 0x100174560, symSize: 0x0 }
  - { offsetInCU: 0x558F8, offset: 0x558F8, size: 0x8, addend: 0x0, symName: _.str.551, symObjAddr: 0x1711E0, symBinAddr: 0x1001745A0, symSize: 0x0 }
  - { offsetInCU: 0x5590A, offset: 0x5590A, size: 0x8, addend: 0x0, symName: _.str.552, symObjAddr: 0x171240, symBinAddr: 0x100174600, symSize: 0x0 }
  - { offsetInCU: 0x5591C, offset: 0x5591C, size: 0x8, addend: 0x0, symName: _.str.553, symObjAddr: 0x1712A0, symBinAddr: 0x100174660, symSize: 0x0 }
  - { offsetInCU: 0x5592E, offset: 0x5592E, size: 0x8, addend: 0x0, symName: _.str.554, symObjAddr: 0x171300, symBinAddr: 0x1001746C0, symSize: 0x0 }
  - { offsetInCU: 0x55940, offset: 0x55940, size: 0x8, addend: 0x0, symName: _.str.555, symObjAddr: 0x171360, symBinAddr: 0x100174720, symSize: 0x0 }
  - { offsetInCU: 0x55952, offset: 0x55952, size: 0x8, addend: 0x0, symName: _.str.556, symObjAddr: 0x1713C0, symBinAddr: 0x100174780, symSize: 0x0 }
  - { offsetInCU: 0x55964, offset: 0x55964, size: 0x8, addend: 0x0, symName: _.str.557, symObjAddr: 0x171400, symBinAddr: 0x1001747C0, symSize: 0x0 }
  - { offsetInCU: 0x55976, offset: 0x55976, size: 0x8, addend: 0x0, symName: _.str.558, symObjAddr: 0x171460, symBinAddr: 0x100174820, symSize: 0x0 }
  - { offsetInCU: 0x55988, offset: 0x55988, size: 0x8, addend: 0x0, symName: _.str.559, symObjAddr: 0x1714A0, symBinAddr: 0x100174860, symSize: 0x0 }
  - { offsetInCU: 0x5599A, offset: 0x5599A, size: 0x8, addend: 0x0, symName: _.str.560, symObjAddr: 0x1714E0, symBinAddr: 0x1001748A0, symSize: 0x0 }
  - { offsetInCU: 0x559AC, offset: 0x559AC, size: 0x8, addend: 0x0, symName: _.str.561, symObjAddr: 0x171520, symBinAddr: 0x1001748E0, symSize: 0x0 }
  - { offsetInCU: 0x559BE, offset: 0x559BE, size: 0x8, addend: 0x0, symName: _.str.562, symObjAddr: 0x171560, symBinAddr: 0x100174920, symSize: 0x0 }
  - { offsetInCU: 0x559D0, offset: 0x559D0, size: 0x8, addend: 0x0, symName: _.str.563, symObjAddr: 0x1715A0, symBinAddr: 0x100174960, symSize: 0x0 }
  - { offsetInCU: 0x559E2, offset: 0x559E2, size: 0x8, addend: 0x0, symName: _.str.564, symObjAddr: 0x1715C0, symBinAddr: 0x100174980, symSize: 0x0 }
  - { offsetInCU: 0x559F4, offset: 0x559F4, size: 0x8, addend: 0x0, symName: _.str.565, symObjAddr: 0x1715E0, symBinAddr: 0x1001749A0, symSize: 0x0 }
  - { offsetInCU: 0x55A06, offset: 0x55A06, size: 0x8, addend: 0x0, symName: _.str.566, symObjAddr: 0x171620, symBinAddr: 0x1001749E0, symSize: 0x0 }
  - { offsetInCU: 0x55A18, offset: 0x55A18, size: 0x8, addend: 0x0, symName: _.str.567, symObjAddr: 0x171660, symBinAddr: 0x100174A20, symSize: 0x0 }
  - { offsetInCU: 0x55A2A, offset: 0x55A2A, size: 0x8, addend: 0x0, symName: _.str.568, symObjAddr: 0x1716A0, symBinAddr: 0x100174A60, symSize: 0x0 }
  - { offsetInCU: 0x55A3C, offset: 0x55A3C, size: 0x8, addend: 0x0, symName: _.str.569, symObjAddr: 0x1716E0, symBinAddr: 0x100174AA0, symSize: 0x0 }
  - { offsetInCU: 0x55A4E, offset: 0x55A4E, size: 0x8, addend: 0x0, symName: _.str.570, symObjAddr: 0x171740, symBinAddr: 0x100174B00, symSize: 0x0 }
  - { offsetInCU: 0x55A60, offset: 0x55A60, size: 0x8, addend: 0x0, symName: _.str.571, symObjAddr: 0x1717A0, symBinAddr: 0x100174B60, symSize: 0x0 }
  - { offsetInCU: 0x55A72, offset: 0x55A72, size: 0x8, addend: 0x0, symName: _.str.572, symObjAddr: 0x1717E0, symBinAddr: 0x100174BA0, symSize: 0x0 }
  - { offsetInCU: 0x55A84, offset: 0x55A84, size: 0x8, addend: 0x0, symName: _.str.573, symObjAddr: 0x171820, symBinAddr: 0x100174BE0, symSize: 0x0 }
  - { offsetInCU: 0x55A96, offset: 0x55A96, size: 0x8, addend: 0x0, symName: _.str.574, symObjAddr: 0x171840, symBinAddr: 0x100174C00, symSize: 0x0 }
  - { offsetInCU: 0x55AA8, offset: 0x55AA8, size: 0x8, addend: 0x0, symName: _.str.575, symObjAddr: 0x171880, symBinAddr: 0x100174C40, symSize: 0x0 }
  - { offsetInCU: 0x55ABA, offset: 0x55ABA, size: 0x8, addend: 0x0, symName: _.str.576, symObjAddr: 0x1718C0, symBinAddr: 0x100174C80, symSize: 0x0 }
  - { offsetInCU: 0x55ACC, offset: 0x55ACC, size: 0x8, addend: 0x0, symName: _.str.577, symObjAddr: 0x171900, symBinAddr: 0x100174CC0, symSize: 0x0 }
  - { offsetInCU: 0x55ADE, offset: 0x55ADE, size: 0x8, addend: 0x0, symName: _.str.578, symObjAddr: 0x171920, symBinAddr: 0x100174CE0, symSize: 0x0 }
  - { offsetInCU: 0x55AF0, offset: 0x55AF0, size: 0x8, addend: 0x0, symName: _.str.579, symObjAddr: 0x171960, symBinAddr: 0x100174D20, symSize: 0x0 }
  - { offsetInCU: 0x55B02, offset: 0x55B02, size: 0x8, addend: 0x0, symName: _.str.580, symObjAddr: 0x1719A0, symBinAddr: 0x100174D60, symSize: 0x0 }
  - { offsetInCU: 0x55B14, offset: 0x55B14, size: 0x8, addend: 0x0, symName: _.str.581, symObjAddr: 0x1719E0, symBinAddr: 0x100174DA0, symSize: 0x0 }
  - { offsetInCU: 0x55B26, offset: 0x55B26, size: 0x8, addend: 0x0, symName: _.str.582, symObjAddr: 0x171A20, symBinAddr: 0x100174DE0, symSize: 0x0 }
  - { offsetInCU: 0x55B38, offset: 0x55B38, size: 0x8, addend: 0x0, symName: _.str.583, symObjAddr: 0x171A60, symBinAddr: 0x100174E20, symSize: 0x0 }
  - { offsetInCU: 0x55B4A, offset: 0x55B4A, size: 0x8, addend: 0x0, symName: _.str.584, symObjAddr: 0x171AA0, symBinAddr: 0x100174E60, symSize: 0x0 }
  - { offsetInCU: 0x55B5C, offset: 0x55B5C, size: 0x8, addend: 0x0, symName: _.str.585, symObjAddr: 0x171AE0, symBinAddr: 0x100174EA0, symSize: 0x0 }
  - { offsetInCU: 0x55B6E, offset: 0x55B6E, size: 0x8, addend: 0x0, symName: _.str.586, symObjAddr: 0x171B20, symBinAddr: 0x100174EE0, symSize: 0x0 }
  - { offsetInCU: 0x55B80, offset: 0x55B80, size: 0x8, addend: 0x0, symName: _.str.587, symObjAddr: 0x171B60, symBinAddr: 0x100174F20, symSize: 0x0 }
  - { offsetInCU: 0x55B92, offset: 0x55B92, size: 0x8, addend: 0x0, symName: _.str.588, symObjAddr: 0x171BC0, symBinAddr: 0x100174F80, symSize: 0x0 }
  - { offsetInCU: 0x55BA4, offset: 0x55BA4, size: 0x8, addend: 0x0, symName: _.str.589, symObjAddr: 0x171C20, symBinAddr: 0x100174FE0, symSize: 0x0 }
  - { offsetInCU: 0x55BB6, offset: 0x55BB6, size: 0x8, addend: 0x0, symName: _.str.590, symObjAddr: 0x171C80, symBinAddr: 0x100175040, symSize: 0x0 }
  - { offsetInCU: 0x55BC8, offset: 0x55BC8, size: 0x8, addend: 0x0, symName: _.str.591, symObjAddr: 0x171CE0, symBinAddr: 0x1001750A0, symSize: 0x0 }
  - { offsetInCU: 0x55BDA, offset: 0x55BDA, size: 0x8, addend: 0x0, symName: _.str.592, symObjAddr: 0x171D20, symBinAddr: 0x1001750E0, symSize: 0x0 }
  - { offsetInCU: 0x55BEC, offset: 0x55BEC, size: 0x8, addend: 0x0, symName: _.str.593, symObjAddr: 0x171D60, symBinAddr: 0x100175120, symSize: 0x0 }
  - { offsetInCU: 0x55BFE, offset: 0x55BFE, size: 0x8, addend: 0x0, symName: _.str.594, symObjAddr: 0x171DA0, symBinAddr: 0x100175160, symSize: 0x0 }
  - { offsetInCU: 0x55C10, offset: 0x55C10, size: 0x8, addend: 0x0, symName: _.str.595, symObjAddr: 0x171DE0, symBinAddr: 0x1001751A0, symSize: 0x0 }
  - { offsetInCU: 0x55C22, offset: 0x55C22, size: 0x8, addend: 0x0, symName: _.str.596, symObjAddr: 0x171E20, symBinAddr: 0x1001751E0, symSize: 0x0 }
  - { offsetInCU: 0x55C34, offset: 0x55C34, size: 0x8, addend: 0x0, symName: _.str.597, symObjAddr: 0x171E60, symBinAddr: 0x100175220, symSize: 0x0 }
  - { offsetInCU: 0x55C46, offset: 0x55C46, size: 0x8, addend: 0x0, symName: _.str.598, symObjAddr: 0x171EC0, symBinAddr: 0x100175280, symSize: 0x0 }
  - { offsetInCU: 0x55C58, offset: 0x55C58, size: 0x8, addend: 0x0, symName: _.str.599, symObjAddr: 0x171F00, symBinAddr: 0x1001752C0, symSize: 0x0 }
  - { offsetInCU: 0x55C6A, offset: 0x55C6A, size: 0x8, addend: 0x0, symName: _.str.600, symObjAddr: 0x171F60, symBinAddr: 0x100175320, symSize: 0x0 }
  - { offsetInCU: 0x55C7C, offset: 0x55C7C, size: 0x8, addend: 0x0, symName: _.str.601, symObjAddr: 0x171FA0, symBinAddr: 0x100175360, symSize: 0x0 }
  - { offsetInCU: 0x55C8E, offset: 0x55C8E, size: 0x8, addend: 0x0, symName: _.str.602, symObjAddr: 0x171FE0, symBinAddr: 0x1001753A0, symSize: 0x0 }
  - { offsetInCU: 0x55CA0, offset: 0x55CA0, size: 0x8, addend: 0x0, symName: _.str.603, symObjAddr: 0x172040, symBinAddr: 0x100175400, symSize: 0x0 }
  - { offsetInCU: 0x55CB2, offset: 0x55CB2, size: 0x8, addend: 0x0, symName: _.str.604, symObjAddr: 0x1720A0, symBinAddr: 0x100175460, symSize: 0x0 }
  - { offsetInCU: 0x55CC4, offset: 0x55CC4, size: 0x8, addend: 0x0, symName: _.str.605, symObjAddr: 0x172100, symBinAddr: 0x1001754C0, symSize: 0x0 }
  - { offsetInCU: 0x55CD6, offset: 0x55CD6, size: 0x8, addend: 0x0, symName: _.str.606, symObjAddr: 0x172160, symBinAddr: 0x100175520, symSize: 0x0 }
  - { offsetInCU: 0x55CE8, offset: 0x55CE8, size: 0x8, addend: 0x0, symName: _.str.607, symObjAddr: 0x1721C0, symBinAddr: 0x100175580, symSize: 0x0 }
  - { offsetInCU: 0x55CFA, offset: 0x55CFA, size: 0x8, addend: 0x0, symName: _.str.608, symObjAddr: 0x172220, symBinAddr: 0x1001755E0, symSize: 0x0 }
  - { offsetInCU: 0x55D18, offset: 0x55D18, size: 0x8, addend: 0x0, symName: _.str.609, symObjAddr: 0x172280, symBinAddr: 0x100175640, symSize: 0x0 }
  - { offsetInCU: 0x55D2A, offset: 0x55D2A, size: 0x8, addend: 0x0, symName: _.str.610, symObjAddr: 0x1722C0, symBinAddr: 0x100175680, symSize: 0x0 }
  - { offsetInCU: 0x55D3C, offset: 0x55D3C, size: 0x8, addend: 0x0, symName: _.str.611, symObjAddr: 0x172300, symBinAddr: 0x1001756C0, symSize: 0x0 }
  - { offsetInCU: 0x55D4E, offset: 0x55D4E, size: 0x8, addend: 0x0, symName: _.str.612, symObjAddr: 0x172340, symBinAddr: 0x100175700, symSize: 0x0 }
  - { offsetInCU: 0x55D60, offset: 0x55D60, size: 0x8, addend: 0x0, symName: _.str.613, symObjAddr: 0x172380, symBinAddr: 0x100175740, symSize: 0x0 }
  - { offsetInCU: 0x55D72, offset: 0x55D72, size: 0x8, addend: 0x0, symName: _.str.614, symObjAddr: 0x1723E0, symBinAddr: 0x1001757A0, symSize: 0x0 }
  - { offsetInCU: 0x55D84, offset: 0x55D84, size: 0x8, addend: 0x0, symName: _.str.615, symObjAddr: 0x172440, symBinAddr: 0x100175800, symSize: 0x0 }
  - { offsetInCU: 0x55D96, offset: 0x55D96, size: 0x8, addend: 0x0, symName: _.str.616, symObjAddr: 0x172480, symBinAddr: 0x100175840, symSize: 0x0 }
  - { offsetInCU: 0x55DA8, offset: 0x55DA8, size: 0x8, addend: 0x0, symName: _.str.617, symObjAddr: 0x1724C0, symBinAddr: 0x100175880, symSize: 0x0 }
  - { offsetInCU: 0x55DBA, offset: 0x55DBA, size: 0x8, addend: 0x0, symName: _.str.618, symObjAddr: 0x172500, symBinAddr: 0x1001758C0, symSize: 0x0 }
  - { offsetInCU: 0x55DCC, offset: 0x55DCC, size: 0x8, addend: 0x0, symName: _.str.619, symObjAddr: 0x172540, symBinAddr: 0x100175900, symSize: 0x0 }
  - { offsetInCU: 0x55DDE, offset: 0x55DDE, size: 0x8, addend: 0x0, symName: _.str.620, symObjAddr: 0x172580, symBinAddr: 0x100175940, symSize: 0x0 }
  - { offsetInCU: 0x55DF0, offset: 0x55DF0, size: 0x8, addend: 0x0, symName: _.str.621, symObjAddr: 0x1725C0, symBinAddr: 0x100175980, symSize: 0x0 }
  - { offsetInCU: 0x55E02, offset: 0x55E02, size: 0x8, addend: 0x0, symName: _.str.622, symObjAddr: 0x172600, symBinAddr: 0x1001759C0, symSize: 0x0 }
  - { offsetInCU: 0x55E14, offset: 0x55E14, size: 0x8, addend: 0x0, symName: _.str.623, symObjAddr: 0x172640, symBinAddr: 0x100175A00, symSize: 0x0 }
  - { offsetInCU: 0x55E26, offset: 0x55E26, size: 0x8, addend: 0x0, symName: _.str.624, symObjAddr: 0x172680, symBinAddr: 0x100175A40, symSize: 0x0 }
  - { offsetInCU: 0x55E38, offset: 0x55E38, size: 0x8, addend: 0x0, symName: _.str.625, symObjAddr: 0x1726C0, symBinAddr: 0x100175A80, symSize: 0x0 }
  - { offsetInCU: 0x55E4A, offset: 0x55E4A, size: 0x8, addend: 0x0, symName: _.str.626, symObjAddr: 0x172720, symBinAddr: 0x100175AE0, symSize: 0x0 }
  - { offsetInCU: 0x55E5C, offset: 0x55E5C, size: 0x8, addend: 0x0, symName: _.str.627, symObjAddr: 0x172760, symBinAddr: 0x100175B20, symSize: 0x0 }
  - { offsetInCU: 0x55E6E, offset: 0x55E6E, size: 0x8, addend: 0x0, symName: _.str.628, symObjAddr: 0x1727C0, symBinAddr: 0x100175B80, symSize: 0x0 }
  - { offsetInCU: 0x55E80, offset: 0x55E80, size: 0x8, addend: 0x0, symName: _.str.629, symObjAddr: 0x172800, symBinAddr: 0x100175BC0, symSize: 0x0 }
  - { offsetInCU: 0x55E92, offset: 0x55E92, size: 0x8, addend: 0x0, symName: _.str.630, symObjAddr: 0x172840, symBinAddr: 0x100175C00, symSize: 0x0 }
  - { offsetInCU: 0x55EA4, offset: 0x55EA4, size: 0x8, addend: 0x0, symName: _.str.631, symObjAddr: 0x1728A0, symBinAddr: 0x100175C60, symSize: 0x0 }
  - { offsetInCU: 0x55EB6, offset: 0x55EB6, size: 0x8, addend: 0x0, symName: _.str.632, symObjAddr: 0x1728E0, symBinAddr: 0x100175CA0, symSize: 0x0 }
  - { offsetInCU: 0x55EC8, offset: 0x55EC8, size: 0x8, addend: 0x0, symName: _.str.633, symObjAddr: 0x172920, symBinAddr: 0x100175CE0, symSize: 0x0 }
  - { offsetInCU: 0x55EDA, offset: 0x55EDA, size: 0x8, addend: 0x0, symName: _.str.634, symObjAddr: 0x172980, symBinAddr: 0x100175D40, symSize: 0x0 }
  - { offsetInCU: 0x55EEC, offset: 0x55EEC, size: 0x8, addend: 0x0, symName: _.str.635, symObjAddr: 0x1729E0, symBinAddr: 0x100175DA0, symSize: 0x0 }
  - { offsetInCU: 0x55EFE, offset: 0x55EFE, size: 0x8, addend: 0x0, symName: _.str.636, symObjAddr: 0x172A20, symBinAddr: 0x100175DE0, symSize: 0x0 }
  - { offsetInCU: 0x55F10, offset: 0x55F10, size: 0x8, addend: 0x0, symName: _.str.637, symObjAddr: 0x172A60, symBinAddr: 0x100175E20, symSize: 0x0 }
  - { offsetInCU: 0x55F22, offset: 0x55F22, size: 0x8, addend: 0x0, symName: _.str.638, symObjAddr: 0x172AA0, symBinAddr: 0x100175E60, symSize: 0x0 }
  - { offsetInCU: 0x55F34, offset: 0x55F34, size: 0x8, addend: 0x0, symName: _.str.639, symObjAddr: 0x172AE0, symBinAddr: 0x100175EA0, symSize: 0x0 }
  - { offsetInCU: 0x55F46, offset: 0x55F46, size: 0x8, addend: 0x0, symName: _.str.640, symObjAddr: 0x172B20, symBinAddr: 0x100175EE0, symSize: 0x0 }
  - { offsetInCU: 0x55F58, offset: 0x55F58, size: 0x8, addend: 0x0, symName: _.str.641, symObjAddr: 0x172B60, symBinAddr: 0x100175F20, symSize: 0x0 }
  - { offsetInCU: 0x55F6A, offset: 0x55F6A, size: 0x8, addend: 0x0, symName: _.str.642, symObjAddr: 0x172BA0, symBinAddr: 0x100175F60, symSize: 0x0 }
  - { offsetInCU: 0x55F7C, offset: 0x55F7C, size: 0x8, addend: 0x0, symName: _.str.643, symObjAddr: 0x172C00, symBinAddr: 0x100175FC0, symSize: 0x0 }
  - { offsetInCU: 0x55F8E, offset: 0x55F8E, size: 0x8, addend: 0x0, symName: _.str.644, symObjAddr: 0x172C20, symBinAddr: 0x100175FE0, symSize: 0x0 }
  - { offsetInCU: 0x55FA0, offset: 0x55FA0, size: 0x8, addend: 0x0, symName: _.str.645, symObjAddr: 0x172C60, symBinAddr: 0x100176020, symSize: 0x0 }
  - { offsetInCU: 0x55FB2, offset: 0x55FB2, size: 0x8, addend: 0x0, symName: _.str.646, symObjAddr: 0x172CA0, symBinAddr: 0x100176060, symSize: 0x0 }
  - { offsetInCU: 0x55FC4, offset: 0x55FC4, size: 0x8, addend: 0x0, symName: _.str.647, symObjAddr: 0x172CE0, symBinAddr: 0x1001760A0, symSize: 0x0 }
  - { offsetInCU: 0x55FD6, offset: 0x55FD6, size: 0x8, addend: 0x0, symName: _.str.648, symObjAddr: 0x172D20, symBinAddr: 0x1001760E0, symSize: 0x0 }
  - { offsetInCU: 0x55FE8, offset: 0x55FE8, size: 0x8, addend: 0x0, symName: _.str.649, symObjAddr: 0x172D60, symBinAddr: 0x100176120, symSize: 0x0 }
  - { offsetInCU: 0x55FFA, offset: 0x55FFA, size: 0x8, addend: 0x0, symName: _.str.650, symObjAddr: 0x172DA0, symBinAddr: 0x100176160, symSize: 0x0 }
  - { offsetInCU: 0x5600C, offset: 0x5600C, size: 0x8, addend: 0x0, symName: _.str.651, symObjAddr: 0x172DE0, symBinAddr: 0x1001761A0, symSize: 0x0 }
  - { offsetInCU: 0x5601E, offset: 0x5601E, size: 0x8, addend: 0x0, symName: _.str.652, symObjAddr: 0x172E40, symBinAddr: 0x100176200, symSize: 0x0 }
  - { offsetInCU: 0x56030, offset: 0x56030, size: 0x8, addend: 0x0, symName: _.str.653, symObjAddr: 0x172E80, symBinAddr: 0x100176240, symSize: 0x0 }
  - { offsetInCU: 0x56042, offset: 0x56042, size: 0x8, addend: 0x0, symName: _.str.654, symObjAddr: 0x172EC0, symBinAddr: 0x100176280, symSize: 0x0 }
  - { offsetInCU: 0x56054, offset: 0x56054, size: 0x8, addend: 0x0, symName: _.str.655, symObjAddr: 0x172F00, symBinAddr: 0x1001762C0, symSize: 0x0 }
  - { offsetInCU: 0x56066, offset: 0x56066, size: 0x8, addend: 0x0, symName: _.str.656, symObjAddr: 0x172F40, symBinAddr: 0x100176300, symSize: 0x0 }
  - { offsetInCU: 0x56078, offset: 0x56078, size: 0x8, addend: 0x0, symName: _.str.657, symObjAddr: 0x172FA0, symBinAddr: 0x100176360, symSize: 0x0 }
  - { offsetInCU: 0x5608A, offset: 0x5608A, size: 0x8, addend: 0x0, symName: _.str.658, symObjAddr: 0x173000, symBinAddr: 0x1001763C0, symSize: 0x0 }
  - { offsetInCU: 0x5609C, offset: 0x5609C, size: 0x8, addend: 0x0, symName: _.str.659, symObjAddr: 0x173060, symBinAddr: 0x100176420, symSize: 0x0 }
  - { offsetInCU: 0x560AE, offset: 0x560AE, size: 0x8, addend: 0x0, symName: _.str.660, symObjAddr: 0x1730C0, symBinAddr: 0x100176480, symSize: 0x0 }
  - { offsetInCU: 0x560C0, offset: 0x560C0, size: 0x8, addend: 0x0, symName: _.str.661, symObjAddr: 0x173120, symBinAddr: 0x1001764E0, symSize: 0x0 }
  - { offsetInCU: 0x560D2, offset: 0x560D2, size: 0x8, addend: 0x0, symName: _.str.662, symObjAddr: 0x173180, symBinAddr: 0x100176540, symSize: 0x0 }
  - { offsetInCU: 0x560E4, offset: 0x560E4, size: 0x8, addend: 0x0, symName: _.str.663, symObjAddr: 0x1731E0, symBinAddr: 0x1001765A0, symSize: 0x0 }
  - { offsetInCU: 0x560F6, offset: 0x560F6, size: 0x8, addend: 0x0, symName: _.str.664, symObjAddr: 0x173240, symBinAddr: 0x100176600, symSize: 0x0 }
  - { offsetInCU: 0x56108, offset: 0x56108, size: 0x8, addend: 0x0, symName: _.str.665, symObjAddr: 0x1732A0, symBinAddr: 0x100176660, symSize: 0x0 }
  - { offsetInCU: 0x5611A, offset: 0x5611A, size: 0x8, addend: 0x0, symName: _.str.666, symObjAddr: 0x173300, symBinAddr: 0x1001766C0, symSize: 0x0 }
  - { offsetInCU: 0x5612C, offset: 0x5612C, size: 0x8, addend: 0x0, symName: _.str.667, symObjAddr: 0x173360, symBinAddr: 0x100176720, symSize: 0x0 }
  - { offsetInCU: 0x5613E, offset: 0x5613E, size: 0x8, addend: 0x0, symName: _.str.668, symObjAddr: 0x1733C0, symBinAddr: 0x100176780, symSize: 0x0 }
  - { offsetInCU: 0x56150, offset: 0x56150, size: 0x8, addend: 0x0, symName: _.str.669, symObjAddr: 0x173400, symBinAddr: 0x1001767C0, symSize: 0x0 }
  - { offsetInCU: 0x56162, offset: 0x56162, size: 0x8, addend: 0x0, symName: _.str.670, symObjAddr: 0x173440, symBinAddr: 0x100176800, symSize: 0x0 }
  - { offsetInCU: 0x56174, offset: 0x56174, size: 0x8, addend: 0x0, symName: _.str.671, symObjAddr: 0x173480, symBinAddr: 0x100176840, symSize: 0x0 }
  - { offsetInCU: 0x56186, offset: 0x56186, size: 0x8, addend: 0x0, symName: _.str.672, symObjAddr: 0x1734C0, symBinAddr: 0x100176880, symSize: 0x0 }
  - { offsetInCU: 0x56198, offset: 0x56198, size: 0x8, addend: 0x0, symName: _.str.673, symObjAddr: 0x173500, symBinAddr: 0x1001768C0, symSize: 0x0 }
  - { offsetInCU: 0x561AA, offset: 0x561AA, size: 0x8, addend: 0x0, symName: _.str.674, symObjAddr: 0x173540, symBinAddr: 0x100176900, symSize: 0x0 }
  - { offsetInCU: 0x561BC, offset: 0x561BC, size: 0x8, addend: 0x0, symName: _.str.675, symObjAddr: 0x173580, symBinAddr: 0x100176940, symSize: 0x0 }
  - { offsetInCU: 0x561CE, offset: 0x561CE, size: 0x8, addend: 0x0, symName: _.str.676, symObjAddr: 0x1735C0, symBinAddr: 0x100176980, symSize: 0x0 }
  - { offsetInCU: 0x561E0, offset: 0x561E0, size: 0x8, addend: 0x0, symName: _.str.677, symObjAddr: 0x173600, symBinAddr: 0x1001769C0, symSize: 0x0 }
  - { offsetInCU: 0x561F2, offset: 0x561F2, size: 0x8, addend: 0x0, symName: _.str.678, symObjAddr: 0x173660, symBinAddr: 0x100176A20, symSize: 0x0 }
  - { offsetInCU: 0x56204, offset: 0x56204, size: 0x8, addend: 0x0, symName: _.str.679, symObjAddr: 0x1736C0, symBinAddr: 0x100176A80, symSize: 0x0 }
  - { offsetInCU: 0x56216, offset: 0x56216, size: 0x8, addend: 0x0, symName: _.str.680, symObjAddr: 0x173720, symBinAddr: 0x100176AE0, symSize: 0x0 }
  - { offsetInCU: 0x56228, offset: 0x56228, size: 0x8, addend: 0x0, symName: _.str.681, symObjAddr: 0x173760, symBinAddr: 0x100176B20, symSize: 0x0 }
  - { offsetInCU: 0x5623A, offset: 0x5623A, size: 0x8, addend: 0x0, symName: _.str.682, symObjAddr: 0x1737C0, symBinAddr: 0x100176B80, symSize: 0x0 }
  - { offsetInCU: 0x5624C, offset: 0x5624C, size: 0x8, addend: 0x0, symName: _.str.683, symObjAddr: 0x173800, symBinAddr: 0x100176BC0, symSize: 0x0 }
  - { offsetInCU: 0x5625E, offset: 0x5625E, size: 0x8, addend: 0x0, symName: _.str.684, symObjAddr: 0x173840, symBinAddr: 0x100176C00, symSize: 0x0 }
  - { offsetInCU: 0x56270, offset: 0x56270, size: 0x8, addend: 0x0, symName: _.str.685, symObjAddr: 0x173880, symBinAddr: 0x100176C40, symSize: 0x0 }
  - { offsetInCU: 0x56282, offset: 0x56282, size: 0x8, addend: 0x0, symName: _.str.686, symObjAddr: 0x1738C0, symBinAddr: 0x100176C80, symSize: 0x0 }
  - { offsetInCU: 0x56294, offset: 0x56294, size: 0x8, addend: 0x0, symName: _.str.687, symObjAddr: 0x173900, symBinAddr: 0x100176CC0, symSize: 0x0 }
  - { offsetInCU: 0x562A6, offset: 0x562A6, size: 0x8, addend: 0x0, symName: _.str.688, symObjAddr: 0x173940, symBinAddr: 0x100176D00, symSize: 0x0 }
  - { offsetInCU: 0x562B8, offset: 0x562B8, size: 0x8, addend: 0x0, symName: _.str.689, symObjAddr: 0x173980, symBinAddr: 0x100176D40, symSize: 0x0 }
  - { offsetInCU: 0x562CA, offset: 0x562CA, size: 0x8, addend: 0x0, symName: _.str.690, symObjAddr: 0x1739C0, symBinAddr: 0x100176D80, symSize: 0x0 }
  - { offsetInCU: 0x562DC, offset: 0x562DC, size: 0x8, addend: 0x0, symName: _.str.691, symObjAddr: 0x173A00, symBinAddr: 0x100176DC0, symSize: 0x0 }
  - { offsetInCU: 0x562EE, offset: 0x562EE, size: 0x8, addend: 0x0, symName: _.str.692, symObjAddr: 0x173A40, symBinAddr: 0x100176E00, symSize: 0x0 }
  - { offsetInCU: 0x56300, offset: 0x56300, size: 0x8, addend: 0x0, symName: _.str.693, symObjAddr: 0x173AA0, symBinAddr: 0x100176E60, symSize: 0x0 }
  - { offsetInCU: 0x56312, offset: 0x56312, size: 0x8, addend: 0x0, symName: _.str.694, symObjAddr: 0x173AE0, symBinAddr: 0x100176EA0, symSize: 0x0 }
  - { offsetInCU: 0x56324, offset: 0x56324, size: 0x8, addend: 0x0, symName: _.str.695, symObjAddr: 0x173B20, symBinAddr: 0x100176EE0, symSize: 0x0 }
  - { offsetInCU: 0x56336, offset: 0x56336, size: 0x8, addend: 0x0, symName: _.str.696, symObjAddr: 0x173B80, symBinAddr: 0x100176F40, symSize: 0x0 }
  - { offsetInCU: 0x56348, offset: 0x56348, size: 0x8, addend: 0x0, symName: _.str.697, symObjAddr: 0x173BC0, symBinAddr: 0x100176F80, symSize: 0x0 }
  - { offsetInCU: 0x5635A, offset: 0x5635A, size: 0x8, addend: 0x0, symName: _.str.698, symObjAddr: 0x173C20, symBinAddr: 0x100176FE0, symSize: 0x0 }
  - { offsetInCU: 0x5636C, offset: 0x5636C, size: 0x8, addend: 0x0, symName: _.str.699, symObjAddr: 0x173C60, symBinAddr: 0x100177020, symSize: 0x0 }
  - { offsetInCU: 0x5637E, offset: 0x5637E, size: 0x8, addend: 0x0, symName: _.str.700, symObjAddr: 0x173CA0, symBinAddr: 0x100177060, symSize: 0x0 }
  - { offsetInCU: 0x56390, offset: 0x56390, size: 0x8, addend: 0x0, symName: _.str.701, symObjAddr: 0x173CE0, symBinAddr: 0x1001770A0, symSize: 0x0 }
  - { offsetInCU: 0x563A2, offset: 0x563A2, size: 0x8, addend: 0x0, symName: _.str.702, symObjAddr: 0x173D20, symBinAddr: 0x1001770E0, symSize: 0x0 }
  - { offsetInCU: 0x563B4, offset: 0x563B4, size: 0x8, addend: 0x0, symName: _.str.703, symObjAddr: 0x173D60, symBinAddr: 0x100177120, symSize: 0x0 }
  - { offsetInCU: 0x563C6, offset: 0x563C6, size: 0x8, addend: 0x0, symName: _.str.704, symObjAddr: 0x173DA0, symBinAddr: 0x100177160, symSize: 0x0 }
  - { offsetInCU: 0x563D8, offset: 0x563D8, size: 0x8, addend: 0x0, symName: _.str.705, symObjAddr: 0x173DE0, symBinAddr: 0x1001771A0, symSize: 0x0 }
  - { offsetInCU: 0x563EA, offset: 0x563EA, size: 0x8, addend: 0x0, symName: _.str.706, symObjAddr: 0x173E20, symBinAddr: 0x1001771E0, symSize: 0x0 }
  - { offsetInCU: 0x563FC, offset: 0x563FC, size: 0x8, addend: 0x0, symName: _.str.707, symObjAddr: 0x173E60, symBinAddr: 0x100177220, symSize: 0x0 }
  - { offsetInCU: 0x5640E, offset: 0x5640E, size: 0x8, addend: 0x0, symName: _.str.708, symObjAddr: 0x173EA0, symBinAddr: 0x100177260, symSize: 0x0 }
  - { offsetInCU: 0x56420, offset: 0x56420, size: 0x8, addend: 0x0, symName: _.str.709, symObjAddr: 0x173EE0, symBinAddr: 0x1001772A0, symSize: 0x0 }
  - { offsetInCU: 0x56432, offset: 0x56432, size: 0x8, addend: 0x0, symName: _.str.710, symObjAddr: 0x173F20, symBinAddr: 0x1001772E0, symSize: 0x0 }
  - { offsetInCU: 0x56444, offset: 0x56444, size: 0x8, addend: 0x0, symName: _.str.711, symObjAddr: 0x173F60, symBinAddr: 0x100177320, symSize: 0x0 }
  - { offsetInCU: 0x56456, offset: 0x56456, size: 0x8, addend: 0x0, symName: _.str.712, symObjAddr: 0x173FA0, symBinAddr: 0x100177360, symSize: 0x0 }
  - { offsetInCU: 0x56468, offset: 0x56468, size: 0x8, addend: 0x0, symName: _.str.713, symObjAddr: 0x173FE0, symBinAddr: 0x1001773A0, symSize: 0x0 }
  - { offsetInCU: 0x5647A, offset: 0x5647A, size: 0x8, addend: 0x0, symName: _.str.714, symObjAddr: 0x174020, symBinAddr: 0x1001773E0, symSize: 0x0 }
  - { offsetInCU: 0x5648C, offset: 0x5648C, size: 0x8, addend: 0x0, symName: _.str.715, symObjAddr: 0x174060, symBinAddr: 0x100177420, symSize: 0x0 }
  - { offsetInCU: 0x5649E, offset: 0x5649E, size: 0x8, addend: 0x0, symName: _.str.716, symObjAddr: 0x1740A0, symBinAddr: 0x100177460, symSize: 0x0 }
  - { offsetInCU: 0x564B4, offset: 0x564B4, size: 0x8, addend: 0x0, symName: _.str.717, symObjAddr: 0x1740E0, symBinAddr: 0x1001774A0, symSize: 0x0 }
  - { offsetInCU: 0x564C5, offset: 0x564C5, size: 0x8, addend: 0x0, symName: ___func__._ZNK3vkb6ResultINS_10SystemInfoEE5errorEv, symObjAddr: 0x174140, symBinAddr: 0x100177500, symSize: 0x0 }
  - { offsetInCU: 0x564D6, offset: 0x564D6, size: 0x8, addend: 0x0, symName: _.str.718, symObjAddr: 0x174160, symBinAddr: 0x100177520, symSize: 0x0 }
  - { offsetInCU: 0x564E7, offset: 0x564E7, size: 0x8, addend: 0x0, symName: _.str.719, symObjAddr: 0x174180, symBinAddr: 0x100177540, symSize: 0x0 }
  - { offsetInCU: 0x564F8, offset: 0x564F8, size: 0x8, addend: 0x0, symName: ___func__._ZNR3vkb6ResultINS_10SystemInfoEE5valueEv, symObjAddr: 0x1741A0, symBinAddr: 0x100177560, symSize: 0x0 }
  - { offsetInCU: 0x56509, offset: 0x56509, size: 0x8, addend: 0x0, symName: _.str.720, symObjAddr: 0x1741C0, symBinAddr: 0x100177580, symSize: 0x0 }
  - { offsetInCU: 0x5651A, offset: 0x5651A, size: 0x8, addend: 0x0, symName: ___func__._ZNK3vkb6ResultINS_6detail21SurfaceSupportDetailsEE9vk_resultEv, symObjAddr: 0x1741E0, symBinAddr: 0x1001775A0, symSize: 0x0 }
  - { offsetInCU: 0x5652C, offset: 0x5652C, size: 0x8, addend: 0x0, symName: _.str.721, symObjAddr: 0x174200, symBinAddr: 0x1001775C0, symSize: 0x0 }
  - { offsetInCU: 0x5653E, offset: 0x5653E, size: 0x8, addend: 0x0, symName: _.str.722, symObjAddr: 0x174220, symBinAddr: 0x1001775E0, symSize: 0x0 }
  - { offsetInCU: 0x56550, offset: 0x56550, size: 0x8, addend: 0x0, symName: _.str.723, symObjAddr: 0x174260, symBinAddr: 0x100177620, symSize: 0x0 }
  - { offsetInCU: 0x56562, offset: 0x56562, size: 0x8, addend: 0x0, symName: _.str.724, symObjAddr: 0x174280, symBinAddr: 0x100177640, symSize: 0x0 }
  - { offsetInCU: 0x56574, offset: 0x56574, size: 0x8, addend: 0x0, symName: _.str.725, symObjAddr: 0x1742A0, symBinAddr: 0x100177660, symSize: 0x0 }
  - { offsetInCU: 0x56586, offset: 0x56586, size: 0x8, addend: 0x0, symName: _.str.726, symObjAddr: 0x1742C0, symBinAddr: 0x100177680, symSize: 0x0 }
  - { offsetInCU: 0x56598, offset: 0x56598, size: 0x8, addend: 0x0, symName: _.str.727, symObjAddr: 0x174300, symBinAddr: 0x1001776C0, symSize: 0x0 }
  - { offsetInCU: 0x565AA, offset: 0x565AA, size: 0x8, addend: 0x0, symName: _.str.728, symObjAddr: 0x174340, symBinAddr: 0x100177700, symSize: 0x0 }
  - { offsetInCU: 0x565BC, offset: 0x565BC, size: 0x8, addend: 0x0, symName: _.str.729, symObjAddr: 0x174380, symBinAddr: 0x100177740, symSize: 0x0 }
  - { offsetInCU: 0x565CE, offset: 0x565CE, size: 0x8, addend: 0x0, symName: _.str.730, symObjAddr: 0x1743E0, symBinAddr: 0x1001777A0, symSize: 0x0 }
  - { offsetInCU: 0x565E0, offset: 0x565E0, size: 0x8, addend: 0x0, symName: _.str.731, symObjAddr: 0x174420, symBinAddr: 0x1001777E0, symSize: 0x0 }
  - { offsetInCU: 0x676BD, offset: 0x676BD, size: 0x8, addend: 0x0, symName: __ZNSt3__16vectorINS_12basic_stringIcNS_11char_traitsIcEENS_9allocatorIcEEEENS4_IS6_EEE26__swap_out_circular_bufferERNS_14__split_bufferIS6_RS7_EE, symObjAddr: 0x4AA00, symBinAddr: 0x10004D210, symSize: 0x6D0 }
  - { offsetInCU: 0x67753, offset: 0x67753, size: 0x8, addend: 0x0, symName: __ZNSt3__16vectorIKNS_12basic_stringIcNS_11char_traitsIcEENS_9allocatorIcEEEENS4_IS7_EEE26__swap_out_circular_bufferERNS_14__split_bufferIS7_RS8_EE, symObjAddr: 0x50A90, symBinAddr: 0x1000532A0, symSize: 0x6D0 }
  - { offsetInCU: 0x67B82, offset: 0x67B82, size: 0x8, addend: 0x0, symName: __ZNSt3__16vectorI21VkExtensionPropertiesNS_9allocatorIS1_EEE26__swap_out_circular_bufferERNS_14__split_bufferIS1_RS3_EEPS1_, symObjAddr: 0x590F0, symBinAddr: 0x10005B900, symSize: 0x800 }
  - { offsetInCU: 0x67C62, offset: 0x67C62, size: 0x8, addend: 0x0, symName: __ZNSt3__16vectorIPKcNS_9allocatorIS2_EEE26__swap_out_circular_bufferERNS_14__split_bufferIS2_RS4_EE, symObjAddr: 0x73980, symBinAddr: 0x100076190, symSize: 0x6D0 }
  - { offsetInCU: 0x67E4F, offset: 0x67E4F, size: 0x8, addend: 0x0, symName: __ZNSt3__16vectorIP18VkBaseOutStructureNS_9allocatorIS2_EEE26__swap_out_circular_bufferERNS_14__split_bufferIS2_RS4_EE, symObjAddr: 0x7BA40, symBinAddr: 0x10007E250, symSize: 0x6D0 }
  - { offsetInCU: 0x684E2, offset: 0x684E2, size: 0x8, addend: 0x0, symName: __ZNSt3__16vectorI20VkValidationCheckEXTNS_9allocatorIS1_EEE26__swap_out_circular_bufferERNS_14__split_bufferIS1_RS3_EE, symObjAddr: 0x84EF0, symBinAddr: 0x100087700, symSize: 0x6D0 }
  - { offsetInCU: 0x6853B, offset: 0x6853B, size: 0x8, addend: 0x0, symName: __ZNSt3__16vectorI28VkValidationFeatureEnableEXTNS_9allocatorIS1_EEE26__swap_out_circular_bufferERNS_14__split_bufferIS1_RS3_EE, symObjAddr: 0x8C4F0, symBinAddr: 0x10008ED00, symSize: 0x6D0 }
  - { offsetInCU: 0x68594, offset: 0x68594, size: 0x8, addend: 0x0, symName: __ZNSt3__16vectorI29VkValidationFeatureDisableEXTNS_9allocatorIS1_EEE26__swap_out_circular_bufferERNS_14__split_bufferIS1_RS3_EE, symObjAddr: 0x93AF0, symBinAddr: 0x100096300, symSize: 0x6D0 }
  - { offsetInCU: 0x68B7A, offset: 0x68B7A, size: 0x8, addend: 0x0, symName: __ZNSt3__16vectorINS_12basic_stringIcNS_11char_traitsIcEENS_9allocatorIcEEEENS4_IS6_EEE26__swap_out_circular_bufferERNS_14__split_bufferIS6_RS7_EEPS6_, symObjAddr: 0xB2120, symBinAddr: 0x1000B4930, symSize: 0x800 }
  - { offsetInCU: 0x68DD9, offset: 0x68DD9, size: 0x8, addend: 0x0, symName: __ZNSt3__16vectorIN3vkb14PhysicalDeviceENS_9allocatorIS2_EEE26__swap_out_circular_bufferERNS_14__split_bufferIS2_RS4_EE, symObjAddr: 0xC3BF0, symBinAddr: 0x1000C6400, symSize: 0x6D0 }
  - { offsetInCU: 0x691D6, offset: 0x691D6, size: 0x8, addend: 0x0, symName: __ZNSt3__16vectorIN3vkb22CustomQueueDescriptionENS_9allocatorIS2_EEE26__swap_out_circular_bufferERNS_14__split_bufferIS2_RS4_EEPS2_, symObjAddr: 0xE6940, symBinAddr: 0x1000E9150, symSize: 0x800 }
  - { offsetInCU: 0x69278, offset: 0x69278, size: 0x8, addend: 0x0, symName: __ZNSt3__16vectorIN3vkb22CustomQueueDescriptionENS_9allocatorIS2_EEE26__swap_out_circular_bufferERNS_14__split_bufferIS2_RS4_EE, symObjAddr: 0xFA330, symBinAddr: 0x1000FCB40, symSize: 0x6D0 }
  - { offsetInCU: 0x69424, offset: 0x69424, size: 0x8, addend: 0x0, symName: __ZNSt3__16vectorI23VkDeviceQueueCreateInfoNS_9allocatorIS1_EEE26__swap_out_circular_bufferERNS_14__split_bufferIS1_RS3_EE, symObjAddr: 0xFE950, symBinAddr: 0x100101160, symSize: 0x6D0 }
  - { offsetInCU: 0x6957F, offset: 0x6957F, size: 0x8, addend: 0x0, symName: __ZNSt3__16vectorI18VkSurfaceFormatKHRNS_9allocatorIS1_EEE26__swap_out_circular_bufferERNS_14__split_bufferIS1_RS3_EEPS1_, symObjAddr: 0x114DF0, symBinAddr: 0x100117600, symSize: 0x800 }
  - { offsetInCU: 0x695E4, offset: 0x695E4, size: 0x8, addend: 0x0, symName: __ZNSt3__16vectorI18VkSurfaceFormatKHRNS_9allocatorIS1_EEE26__swap_out_circular_bufferERNS_14__split_bufferIS1_RS3_EE, symObjAddr: 0x11F190, symBinAddr: 0x1001219A0, symSize: 0x6D0 }
  - { offsetInCU: 0x69643, offset: 0x69643, size: 0x8, addend: 0x0, symName: __ZNSt3__16vectorI16VkPresentModeKHRNS_9allocatorIS1_EEE26__swap_out_circular_bufferERNS_14__split_bufferIS1_RS3_EEPS1_, symObjAddr: 0x120D50, symBinAddr: 0x100123560, symSize: 0x800 }
  - { offsetInCU: 0x696A8, offset: 0x696A8, size: 0x8, addend: 0x0, symName: __ZNSt3__16vectorI16VkPresentModeKHRNS_9allocatorIS1_EEE26__swap_out_circular_bufferERNS_14__split_bufferIS1_RS3_EE, symObjAddr: 0x12B2B0, symBinAddr: 0x10012DAC0, symSize: 0x6D0 }
  - { offsetInCU: 0x697EB, offset: 0x697EB, size: 0x8, addend: 0x0, symName: __ZNSt3__16vectorI17VkLayerPropertiesNS_9allocatorIS1_EEE26__swap_out_circular_bufferERNS_14__split_bufferIS1_RS3_EE, symObjAddr: 0x131130, symBinAddr: 0x100133940, symSize: 0x6D0 }
  - { offsetInCU: 0x69830, offset: 0x69830, size: 0x8, addend: 0x0, symName: __ZNSt3__16vectorI21VkExtensionPropertiesNS_9allocatorIS1_EEE26__swap_out_circular_bufferERNS_14__split_bufferIS1_RS3_EE, symObjAddr: 0x1379D0, symBinAddr: 0x10013A1E0, symSize: 0x6D0 }
  - { offsetInCU: 0x69875, offset: 0x69875, size: 0x8, addend: 0x0, symName: __ZNSt3__16vectorI23VkQueueFamilyPropertiesNS_9allocatorIS1_EEE26__swap_out_circular_bufferERNS_14__split_bufferIS1_RS3_EE, symObjAddr: 0x139370, symBinAddr: 0x10013BB80, symSize: 0x6D0 }
  - { offsetInCU: 0x698BA, offset: 0x698BA, size: 0x8, addend: 0x0, symName: __ZNSt3__16vectorIP18VkPhysicalDevice_TNS_9allocatorIS2_EEE26__swap_out_circular_bufferERNS_14__split_bufferIS2_RS4_EE, symObjAddr: 0x141C30, symBinAddr: 0x100144440, symSize: 0x6D0 }
  - { offsetInCU: 0x69913, offset: 0x69913, size: 0x8, addend: 0x0, symName: __ZNSt3__16vectorIN3vkb6detail24GenericFeaturesPNextNodeENS_9allocatorIS3_EEE26__swap_out_circular_bufferERNS_14__split_bufferIS3_RS5_EE, symObjAddr: 0x14FE30, symBinAddr: 0x100152640, symSize: 0x6D0 }
  - { offsetInCU: 0x69A2D, offset: 0x69A2D, size: 0x8, addend: 0x0, symName: __ZNSt3__16vectorIP9VkImage_TNS_9allocatorIS2_EEE26__swap_out_circular_bufferERNS_14__split_bufferIS2_RS4_EE, symObjAddr: 0x159520, symBinAddr: 0x10015BD30, symSize: 0x6D0 }
  - { offsetInCU: 0x69AB3, offset: 0x69AB3, size: 0x8, addend: 0x0, symName: __ZNKSt3__16chrono13__duration_ltINS0_8durationIxNS_5ratioILl1ELl1000EEEEENS2_IeNS3_ILl1ELl1EEEEEEclB7v160006ERKS5_RKS7_, symObjAddr: 0x162080, symBinAddr: 0x100164890, symSize: 0x1E0 }
  - { offsetInCU: 0x69B33, offset: 0x69B33, size: 0x8, addend: 0x0, symName: __ZNKSt3__16chrono15__duration_castINS0_8durationIeNS_5ratioILl1ELl1EEEEENS2_IeNS3_ILl1ELl1000EEEEENS3_ILl1000ELl1EEELb0ELb1EEclB7v160006ERKS5_, symObjAddr: 0x1632F0, symBinAddr: 0x100165B00, symSize: 0x300 }
  - { offsetInCU: 0x69BA1, offset: 0x69BA1, size: 0x8, addend: 0x0, symName: __ZNKSt3__16chrono15__duration_castINS0_8durationIxNS_5ratioILl1ELl1000EEEEENS2_IxNS3_ILl1ELl1000000000EEEEENS3_ILl1000000ELl1EEELb0ELb1EEclB7v160006ERKS5_, symObjAddr: 0x1636B0, symBinAddr: 0x100165EC0, symSize: 0x200 }
  - { offsetInCU: 0x69BEC, offset: 0x69BEC, size: 0x8, addend: 0x0, symName: __ZNKSt3__16chrono13__duration_ltINS0_8durationIxNS_5ratioILl1ELl1000000000EEEEENS2_IxNS3_ILl1ELl1000EEEEEEclB7v160006ERKS5_RKS7_, symObjAddr: 0x163970, symBinAddr: 0x100166180, symSize: 0x1D0 }
  - { offsetInCU: 0x6BE43, offset: 0x6BE43, size: 0x8, addend: 0x0, symName: __Z11init_configP10HephConfig, symObjAddr: 0x0, symBinAddr: 0x100002810, symSize: 0x40 }
  - { offsetInCU: 0x6BE7D, offset: 0x6BE7D, size: 0x8, addend: 0x0, symName: __Z21heph_get_file_size_fdiPm, symObjAddr: 0x40, symBinAddr: 0x100002850, symSize: 0x3C0 }
  - { offsetInCU: 0x6BECC, offset: 0x6BECC, size: 0x8, addend: 0x0, symName: __ZNSt3__113basic_ostreamIcNS_11char_traitsIcEEElsB7v160006EPFRS3_S4_E, symObjAddr: 0x440, symBinAddr: 0x100002C50, symSize: 0x20 }
  - { offsetInCU: 0x6BEFF, offset: 0x6BEFF, size: 0x8, addend: 0x0, symName: __Z32heph_enumerate_directory_entriesRKNSt3__112basic_stringIcNS_11char_traitsIcEENS_9allocatorIcEEEERNS_6vectorIS5_NS3_IS5_EEEE, symObjAddr: 0x510, symBinAddr: 0x100002D20, symSize: 0x350 }
  - { offsetInCU: 0x6BF5A, offset: 0x6BF5A, size: 0x8, addend: 0x0, symName: __ZNKSt3__112basic_stringIcNS_11char_traitsIcEENS_9allocatorIcEEE5c_strB7v160006Ev, symObjAddr: 0x860, symBinAddr: 0x100003070, symSize: 0x20 }
  - { offsetInCU: 0x6BF80, offset: 0x6BF80, size: 0x8, addend: 0x0, symName: __ZNSt3__16vectorINS_12basic_stringIcNS_11char_traitsIcEENS_9allocatorIcEEEENS4_IS6_EEE9push_backB7v160006EOS6_, symObjAddr: 0x880, symBinAddr: 0x100003090, symSize: 0xC0 }
  - { offsetInCU: 0x6BFBC, offset: 0x6BFBC, size: 0x8, addend: 0x0, symName: __ZNSt3__112basic_stringIcNS_11char_traitsIcEENS_9allocatorIcEEEC1B7v160006IDnEEPKc, symObjAddr: 0x940, symBinAddr: 0x100003150, symSize: 0x30 }
  - { offsetInCU: 0x6BFF9, offset: 0x6BFF9, size: 0x8, addend: 0x0, symName: __Z23heph_get_file_size_pathRKNSt3__112basic_stringIcNS_11char_traitsIcEENS_9allocatorIcEEEEPm, symObjAddr: 0x970, symBinAddr: 0x100003180, symSize: 0x3C0 }
  - { offsetInCU: 0x6C047, offset: 0x6C047, size: 0x8, addend: 0x0, symName: __Z17heph_read_file_toPvPmRKNSt3__112basic_stringIcNS1_11char_traitsIcEENS1_9allocatorIcEEEE, symObjAddr: 0xD30, symBinAddr: 0x100003540, symSize: 0x150 }
  - { offsetInCU: 0x6C09D, offset: 0x6C09D, size: 0x8, addend: 0x0, symName: __Z20heph_get_hmodl_xattrRKNSt3__112basic_stringIcNS_11char_traitsIcEENS_9allocatorIcEEEEPc, symObjAddr: 0xE80, symBinAddr: 0x100003690, symSize: 0xF0 }
  - { offsetInCU: 0x6C0D7, offset: 0x6C0D7, size: 0x8, addend: 0x0, symName: __Z20heph_set_hmodl_xattrRKNSt3__112basic_stringIcNS_11char_traitsIcEENS_9allocatorIcEEEEPKc, symObjAddr: 0xFC0, symBinAddr: 0x1000037D0, symSize: 0xE0 }
  - { offsetInCU: 0x6C112, offset: 0x6C112, size: 0x8, addend: 0x0, symName: __Z16heph_meshes_initP10HephMeshes, symObjAddr: 0x10A0, symBinAddr: 0x1000038B0, symSize: 0x10 }
  - { offsetInCU: 0x6C13A, offset: 0x6C13A, size: 0x8, addend: 0x0, symName: __Z23heph_meshes_queue_hmodlP10HephMeshesRKNSt3__112basic_stringIcNS1_11char_traitsIcEENS1_9allocatorIcEEEE, symObjAddr: 0x10B0, symBinAddr: 0x1000038C0, symSize: 0x4F0 }
  - { offsetInCU: 0x6C188, offset: 0x6C188, size: 0x8, addend: 0x0, symName: __Z16heph_file_existsRKNSt3__112basic_stringIcNS_11char_traitsIcEENS_9allocatorIcEEEE, symObjAddr: 0x15A0, symBinAddr: 0x100003DB0, symSize: 0x40 }
  - { offsetInCU: 0x6C1B5, offset: 0x6C1B5, size: 0x8, addend: 0x0, symName: __ZNSt3__16vectorIKNS_12basic_stringIcNS_11char_traitsIcEENS_9allocatorIcEEEENS4_IS7_EEE9push_backB7v160006ERS7_, symObjAddr: 0x15E0, symBinAddr: 0x100003DF0, symSize: 0xC0 }
  - { offsetInCU: 0x6C1EB, offset: 0x6C1EB, size: 0x8, addend: 0x0, symName: __Z29heph_meshes_queue_hmodl_batchP10HephMeshesNSt3__16vectorIKNS1_12basic_stringIcNS1_11char_traitsIcEENS1_9allocatorIcEEEENS6_IS9_EEEE, symObjAddr: 0x16A0, symBinAddr: 0x100003EB0, symSize: 0x2C0 }
  - { offsetInCU: 0x6C290, offset: 0x6C290, size: 0x8, addend: 0x0, symName: __ZNSt3__16vectorIKNS_12basic_stringIcNS_11char_traitsIcEENS_9allocatorIcEEEENS4_IS7_EEE7reserveEm, symObjAddr: 0x1960, symBinAddr: 0x100004170, symSize: 0x2E0 }
  - { offsetInCU: 0x6C2F2, offset: 0x6C2F2, size: 0x8, addend: 0x0, symName: __ZNKSt3__16vectorIKNS_12basic_stringIcNS_11char_traitsIcEENS_9allocatorIcEEEENS4_IS7_EEE4sizeB7v160006Ev, symObjAddr: 0x1C40, symBinAddr: 0x100004450, symSize: 0xA0 }
  - { offsetInCU: 0x6C318, offset: 0x6C318, size: 0x8, addend: 0x0, symName: __ZNSt3__16vectorIKNS_12basic_stringIcNS_11char_traitsIcEENS_9allocatorIcEEEENS4_IS7_EEE5beginB7v160006Ev, symObjAddr: 0x1CE0, symBinAddr: 0x1000044F0, symSize: 0x1E0 }
  - { offsetInCU: 0x6C341, offset: 0x6C341, size: 0x8, addend: 0x0, symName: __ZNSt3__16vectorIKNS_12basic_stringIcNS_11char_traitsIcEENS_9allocatorIcEEEENS4_IS7_EEE3endB7v160006Ev, symObjAddr: 0x1EC0, symBinAddr: 0x1000046D0, symSize: 0x1F0 }
  - { offsetInCU: 0x6C36A, offset: 0x6C36A, size: 0x8, addend: 0x0, symName: __ZNKSt3__111__wrap_iterIPKNS_12basic_stringIcNS_11char_traitsIcEENS_9allocatorIcEEEEEdeB7v160006Ev, symObjAddr: 0x20E0, symBinAddr: 0x1000048F0, symSize: 0x50 }
  - { offsetInCU: 0x6C38F, offset: 0x6C38F, size: 0x8, addend: 0x0, symName: __Zan10HephResultS_, symObjAddr: 0x2130, symBinAddr: 0x100004940, symSize: 0x20 }
  - { offsetInCU: 0x6C3CA, offset: 0x6C3CA, size: 0x8, addend: 0x0, symName: __ZNSt3__111__wrap_iterIPKNS_12basic_stringIcNS_11char_traitsIcEENS_9allocatorIcEEEEEppB7v160006Ev, symObjAddr: 0x2150, symBinAddr: 0x100004960, symSize: 0x50 }
  - { offsetInCU: 0x6C3EF, offset: 0x6C3EF, size: 0x8, addend: 0x0, symName: __Z33heph_meshes_queue_hmodl_directoryP10HephMeshesRKNSt3__112basic_stringIcNS1_11char_traitsIcEENS1_9allocatorIcEEEE, symObjAddr: 0x21A0, symBinAddr: 0x1000049B0, symSize: 0x350 }
  - { offsetInCU: 0x6C449, offset: 0x6C449, size: 0x8, addend: 0x0, symName: __Z17heph_meshes_writePK10HephMeshesPc, symObjAddr: 0x24F0, symBinAddr: 0x100004D00, symSize: 0x9E0 }
  - { offsetInCU: 0x6C56B, offset: 0x6C56B, size: 0x8, addend: 0x0, symName: __ZNKSt3__16vectorIKNS_12basic_stringIcNS_11char_traitsIcEENS_9allocatorIcEEEENS4_IS7_EEE5beginB7v160006Ev, symObjAddr: 0x2ED0, symBinAddr: 0x1000056E0, symSize: 0x1E0 }
  - { offsetInCU: 0x6C594, offset: 0x6C594, size: 0x8, addend: 0x0, symName: __ZNKSt3__16vectorIKNS_12basic_stringIcNS_11char_traitsIcEENS_9allocatorIcEEEENS4_IS7_EEE3endB7v160006Ev, symObjAddr: 0x30B0, symBinAddr: 0x1000058C0, symSize: 0x1F0 }
  - { offsetInCU: 0x6C5BC, offset: 0x6C5BC, size: 0x8, addend: 0x0, symName: __Z18heph_meshes_size_bPK10HephMeshes, symObjAddr: 0x32A0, symBinAddr: 0x100005AB0, symSize: 0x90 }
  - { offsetInCU: 0x6C5E9, offset: 0x6C5E9, size: 0x8, addend: 0x0, symName: __ZN3vkb6detail24GenericFeaturesPNextNodeC2Ev, symObjAddr: 0x3330, symBinAddr: 0x100005B40, symSize: 0xC0 }
  - { offsetInCU: 0x6C615, offset: 0x6C615, size: 0x8, addend: 0x0, symName: __ZN3vkb6detail24GenericFeaturesPNextNodeC1Ev, symObjAddr: 0x33F0, symBinAddr: 0x100005C00, symSize: 0x20 }
  - { offsetInCU: 0x6C641, offset: 0x6C641, size: 0x8, addend: 0x0, symName: __ZN3vkb6detail24GenericFeaturesPNextNode5matchERKS1_S3_, symObjAddr: 0x3410, symBinAddr: 0x100005C20, symSize: 0x250 }
  - { offsetInCU: 0x6C690, offset: 0x6C690, size: 0x8, addend: 0x0, symName: __ZNKSt3__16vectorI17VkLayerPropertiesNS_9allocatorIS1_EEE5beginB7v160006Ev, symObjAddr: 0x4130, symBinAddr: 0x100006940, symSize: 0x1E0 }
  - { offsetInCU: 0x6C6B9, offset: 0x6C6B9, size: 0x8, addend: 0x0, symName: __ZNKSt3__16vectorI17VkLayerPropertiesNS_9allocatorIS1_EEE3endB7v160006Ev, symObjAddr: 0x4310, symBinAddr: 0x100006B20, symSize: 0x1F0 }
  - { offsetInCU: 0x6C6E2, offset: 0x6C6E2, size: 0x8, addend: 0x0, symName: __ZNKSt3__111__wrap_iterIPK17VkLayerPropertiesEdeB7v160006Ev, symObjAddr: 0x4530, symBinAddr: 0x100006D40, symSize: 0x50 }
  - { offsetInCU: 0x6C708, offset: 0x6C708, size: 0x8, addend: 0x0, symName: __ZNSt3__111__wrap_iterIPK17VkLayerPropertiesEppB7v160006Ev, symObjAddr: 0x4580, symBinAddr: 0x100006D90, symSize: 0x50 }
  - { offsetInCU: 0x6C72E, offset: 0x6C72E, size: 0x8, addend: 0x0, symName: __ZNKSt3__16vectorIPKcNS_9allocatorIS2_EEE5beginB7v160006Ev, symObjAddr: 0x48A0, symBinAddr: 0x1000070B0, symSize: 0x1E0 }
  - { offsetInCU: 0x6C757, offset: 0x6C757, size: 0x8, addend: 0x0, symName: __ZNKSt3__16vectorIPKcNS_9allocatorIS2_EEE3endB7v160006Ev, symObjAddr: 0x4A80, symBinAddr: 0x100007290, symSize: 0x1F0 }
  - { offsetInCU: 0x6C780, offset: 0x6C780, size: 0x8, addend: 0x0, symName: __ZNKSt3__111__wrap_iterIPKPKcEdeB7v160006Ev, symObjAddr: 0x4CA0, symBinAddr: 0x1000074B0, symSize: 0x50 }
  - { offsetInCU: 0x6C7A6, offset: 0x6C7A6, size: 0x8, addend: 0x0, symName: __ZNSt3__111__wrap_iterIPKPKcEppB7v160006Ev, symObjAddr: 0x4CF0, symBinAddr: 0x100007500, symSize: 0x50 }
  - { offsetInCU: 0x6C7CC, offset: 0x6C7CC, size: 0x8, addend: 0x0, symName: __ZNKSt3__16vectorI21VkExtensionPropertiesNS_9allocatorIS1_EEE5beginB7v160006Ev, symObjAddr: 0x5030, symBinAddr: 0x100007840, symSize: 0x1E0 }
  - { offsetInCU: 0x6C7F5, offset: 0x6C7F5, size: 0x8, addend: 0x0, symName: __ZNKSt3__16vectorI21VkExtensionPropertiesNS_9allocatorIS1_EEE3endB7v160006Ev, symObjAddr: 0x5210, symBinAddr: 0x100007A20, symSize: 0x1F0 }
  - { offsetInCU: 0x6C81E, offset: 0x6C81E, size: 0x8, addend: 0x0, symName: __ZNKSt3__111__wrap_iterIPK21VkExtensionPropertiesEdeB7v160006Ev, symObjAddr: 0x5430, symBinAddr: 0x100007C40, symSize: 0x50 }
  - { offsetInCU: 0x6C844, offset: 0x6C844, size: 0x8, addend: 0x0, symName: __ZNSt3__111__wrap_iterIPK21VkExtensionPropertiesEppB7v160006Ev, symObjAddr: 0x5480, symBinAddr: 0x100007C90, symSize: 0x50 }
  - { offsetInCU: 0x6C86F, offset: 0x6C86F, size: 0x8, addend: 0x0, symName: __ZN3vkb6detail21InstanceErrorCategoryD1Ev, symObjAddr: 0x57A0, symBinAddr: 0x100007FB0, symSize: 0x20 }
  - { offsetInCU: 0x6C8A1, offset: 0x6C8A1, size: 0x8, addend: 0x0, symName: __ZN3vkb6detail27PhysicalDeviceErrorCategoryD1Ev, symObjAddr: 0x57C0, symBinAddr: 0x100007FD0, symSize: 0x20 }
  - { offsetInCU: 0x6C8D3, offset: 0x6C8D3, size: 0x8, addend: 0x0, symName: __ZN3vkb6detail18QueueErrorCategoryD1Ev, symObjAddr: 0x57E0, symBinAddr: 0x100007FF0, symSize: 0x20 }
  - { offsetInCU: 0x6C905, offset: 0x6C905, size: 0x8, addend: 0x0, symName: __ZN3vkb6detail19DeviceErrorCategoryD1Ev, symObjAddr: 0x5800, symBinAddr: 0x100008010, symSize: 0x20 }
  - { offsetInCU: 0x6C937, offset: 0x6C937, size: 0x8, addend: 0x0, symName: __ZN3vkb6detail22SwapchainErrorCategoryD1Ev, symObjAddr: 0x5820, symBinAddr: 0x100008030, symSize: 0x20 }
  - { offsetInCU: 0x6C964, offset: 0x6C964, size: 0x8, addend: 0x0, symName: __ZNSt3__110error_codeC1B7v160006EiRKNS_14error_categoryE, symObjAddr: 0x59D0, symBinAddr: 0x1000081E0, symSize: 0x30 }
  - { offsetInCU: 0x6C9F4, offset: 0x6C9F4, size: 0x8, addend: 0x0, symName: __ZN3vkb10SystemInfo15get_system_infoEv, symObjAddr: 0x63A0, symBinAddr: 0x100008BB0, symSize: 0x350 }
  - { offsetInCU: 0x6CA0B, offset: 0x6CA0B, size: 0x8, addend: 0x0, symName: __ZN3vkb6detail15VulkanFunctions17init_vulkan_funcsEPFPFvvEP12VkInstance_TPKcE, symObjAddr: 0x66F0, symBinAddr: 0x100008F00, symSize: 0x590 }
  - { offsetInCU: 0x6CA70, offset: 0x6CA70, size: 0x8, addend: 0x0, symName: __ZN3vkb6ResultINS_10SystemInfoEEC1ENSt3__110error_codeE8VkResult, symObjAddr: 0x6C80, symBinAddr: 0x100009490, symSize: 0x290 }
  - { offsetInCU: 0x6CABC, offset: 0x6CABC, size: 0x8, addend: 0x0, symName: __ZN3vkb10SystemInfoC1Ev, symObjAddr: 0x6F10, symBinAddr: 0x100009720, symSize: 0x20 }
  - { offsetInCU: 0x6CAE9, offset: 0x6CAE9, size: 0x8, addend: 0x0, symName: __ZN3vkb6ResultINS_10SystemInfoEEC1EOS1_, symObjAddr: 0x6F30, symBinAddr: 0x100009740, symSize: 0x30 }
  - { offsetInCU: 0x6CB21, offset: 0x6CB21, size: 0x8, addend: 0x0, symName: __ZN3vkb10SystemInfoD1Ev, symObjAddr: 0x6F60, symBinAddr: 0x100009770, symSize: 0x20 }
  - { offsetInCU: 0x6CB4E, offset: 0x6CB4E, size: 0x8, addend: 0x0, symName: __ZN3vkb10SystemInfo15get_system_infoEPFPFvvEP12VkInstance_TPKcE, symObjAddr: 0x6F80, symBinAddr: 0x100009790, symSize: 0x350 }
  - { offsetInCU: 0x6CB76, offset: 0x6CB76, size: 0x8, addend: 0x0, symName: __ZN3vkb10SystemInfoC2Ev, symObjAddr: 0x72D0, symBinAddr: 0x100009AE0, symSize: 0x1020 }
  - { offsetInCU: 0x6CD56, offset: 0x6CD56, size: 0x8, addend: 0x0, symName: __ZNSt3__16vectorI17VkLayerPropertiesNS_9allocatorIS1_EEEC1B7v160006Ev, symObjAddr: 0x82F0, symBinAddr: 0x10000AB00, symSize: 0x20 }
  - { offsetInCU: 0x6CD80, offset: 0x6CD80, size: 0x8, addend: 0x0, symName: __ZNSt3__16vectorI21VkExtensionPropertiesNS_9allocatorIS1_EEEC1B7v160006Ev, symObjAddr: 0x8310, symBinAddr: 0x10000AB20, symSize: 0x20 }
  - { offsetInCU: 0x6CDAA, offset: 0x6CDAA, size: 0x8, addend: 0x0, symName: __ZNSt3__16vectorI17VkLayerPropertiesNS_9allocatorIS1_EEE5clearB7v160006Ev, symObjAddr: 0x8680, symBinAddr: 0x10000AE90, symSize: 0x60 }
  - { offsetInCU: 0x6CDDF, offset: 0x6CDDF, size: 0x8, addend: 0x0, symName: __ZNSt3__16vectorI17VkLayerPropertiesNS_9allocatorIS1_EEE5beginB7v160006Ev, symObjAddr: 0x86E0, symBinAddr: 0x10000AEF0, symSize: 0x1E0 }
  - { offsetInCU: 0x6CE08, offset: 0x6CE08, size: 0x8, addend: 0x0, symName: __ZNSt3__16vectorI17VkLayerPropertiesNS_9allocatorIS1_EEE3endB7v160006Ev, symObjAddr: 0x88C0, symBinAddr: 0x10000B0D0, symSize: 0x1F0 }
  - { offsetInCU: 0x6CE31, offset: 0x6CE31, size: 0x8, addend: 0x0, symName: __ZNKSt3__111__wrap_iterIP17VkLayerPropertiesEdeB7v160006Ev, symObjAddr: 0x8AE0, symBinAddr: 0x10000B2F0, symSize: 0x50 }
  - { offsetInCU: 0x6CE57, offset: 0x6CE57, size: 0x8, addend: 0x0, symName: __ZNSt3__111__wrap_iterIP17VkLayerPropertiesEppB7v160006Ev, symObjAddr: 0x8B30, symBinAddr: 0x10000B340, symSize: 0x50 }
  - { offsetInCU: 0x6CE7D, offset: 0x6CE7D, size: 0x8, addend: 0x0, symName: __ZNSt3__16vectorI21VkExtensionPropertiesNS_9allocatorIS1_EEE5clearB7v160006Ev, symObjAddr: 0x8F00, symBinAddr: 0x10000B710, symSize: 0x60 }
  - { offsetInCU: 0x6CEB2, offset: 0x6CEB2, size: 0x8, addend: 0x0, symName: __ZNSt3__16vectorI21VkExtensionPropertiesNS_9allocatorIS1_EEE5beginB7v160006Ev, symObjAddr: 0x8F60, symBinAddr: 0x10000B770, symSize: 0x1E0 }
  - { offsetInCU: 0x6CEDB, offset: 0x6CEDB, size: 0x8, addend: 0x0, symName: __ZNSt3__16vectorI21VkExtensionPropertiesNS_9allocatorIS1_EEE3endB7v160006Ev, symObjAddr: 0x9140, symBinAddr: 0x10000B950, symSize: 0x1F0 }
  - { offsetInCU: 0x6CF04, offset: 0x6CF04, size: 0x8, addend: 0x0, symName: __ZNKSt3__111__wrap_iterIP21VkExtensionPropertiesEdeB7v160006Ev, symObjAddr: 0x9360, symBinAddr: 0x10000BB70, symSize: 0x50 }
  - { offsetInCU: 0x6CF2A, offset: 0x6CF2A, size: 0x8, addend: 0x0, symName: __ZNSt3__111__wrap_iterIP21VkExtensionPropertiesEppB7v160006Ev, symObjAddr: 0x93B0, symBinAddr: 0x10000BBC0, symSize: 0x50 }
  - { offsetInCU: 0x6CF50, offset: 0x6CF50, size: 0x8, addend: 0x0, symName: __ZNSt3__16vectorI21VkExtensionPropertiesNS_9allocatorIS1_EEE6insertINS_11__wrap_iterIPS1_EELi0EEES8_NS6_IPKS1_EET_SC_, symObjAddr: 0x9790, symBinAddr: 0x10000BFA0, symSize: 0xCF0 }
  - { offsetInCU: 0x6D07E, offset: 0x6D07E, size: 0x8, addend: 0x0, symName: __ZNSt3__111__wrap_iterIPK21VkExtensionPropertiesEC1B7v160006IPS1_EERKNS0_IT_EEPNS_9enable_ifIXsr14is_convertibleIS7_S3_EE5valueEvE4typeE, symObjAddr: 0xA480, symBinAddr: 0x10000CC90, symSize: 0x30 }
  - { offsetInCU: 0x6D0CA, offset: 0x6D0CA, size: 0x8, addend: 0x0, symName: __ZNSt3__16vectorI21VkExtensionPropertiesNS_9allocatorIS1_EEED1B7v160006Ev, symObjAddr: 0xA4B0, symBinAddr: 0x10000CCC0, symSize: 0x20 }
  - { offsetInCU: 0x6D0F4, offset: 0x6D0F4, size: 0x8, addend: 0x0, symName: __ZNSt3__16vectorI17VkLayerPropertiesNS_9allocatorIS1_EEED1B7v160006Ev, symObjAddr: 0xA4D0, symBinAddr: 0x10000CCE0, symSize: 0x20 }
  - { offsetInCU: 0x6D11E, offset: 0x6D11E, size: 0x8, addend: 0x0, symName: __ZNK3vkb10SystemInfo22is_extension_availableEPKc, symObjAddr: 0xA4F0, symBinAddr: 0x10000CD00, symSize: 0x50 }
  - { offsetInCU: 0x6D156, offset: 0x6D156, size: 0x8, addend: 0x0, symName: __ZNK3vkb10SystemInfo18is_layer_availableEPKc, symObjAddr: 0xA540, symBinAddr: 0x10000CD50, symSize: 0x50 }
  - { offsetInCU: 0x6D18E, offset: 0x6D18E, size: 0x8, addend: 0x0, symName: __ZNK3vkb8InstancecvP12VkInstance_TEv, symObjAddr: 0xA940, symBinAddr: 0x10000D150, symSize: 0x50 }
  - { offsetInCU: 0x6D1B7, offset: 0x6D1B7, size: 0x8, addend: 0x0, symName: __ZNK3vkb8Instance10make_tableEv, symObjAddr: 0xA990, symBinAddr: 0x10000D1A0, symSize: 0xA0 }
  - { offsetInCU: 0x6D1E0, offset: 0x6D1E0, size: 0x8, addend: 0x0, symName: __ZN3vkb21InstanceDispatchTableC1EP12VkInstance_TPFPFvvES2_PKcE, symObjAddr: 0xAA30, symBinAddr: 0x10000D240, symSize: 0x30 }
  - { offsetInCU: 0x6D297, offset: 0x6D297, size: 0x8, addend: 0x0, symName: __ZN3vkb15InstanceBuilderC2EPFPFvvEP12VkInstance_TPKcE, symObjAddr: 0xAA60, symBinAddr: 0x10000D270, symSize: 0x70 }
  - { offsetInCU: 0x6D2D8, offset: 0x6D2D8, size: 0x8, addend: 0x0, symName: __ZN3vkb15InstanceBuilder12InstanceInfoC1Ev, symObjAddr: 0xAAD0, symBinAddr: 0x10000D2E0, symSize: 0x20 }
  - { offsetInCU: 0x6D305, offset: 0x6D305, size: 0x8, addend: 0x0, symName: __ZN3vkb15InstanceBuilderC1EPFPFvvEP12VkInstance_TPKcE, symObjAddr: 0xAAF0, symBinAddr: 0x10000D300, symSize: 0x30 }
  - { offsetInCU: 0x6D341, offset: 0x6D341, size: 0x8, addend: 0x0, symName: __ZN3vkb15InstanceBuilderC2Ev, symObjAddr: 0xAB20, symBinAddr: 0x10000D330, symSize: 0x20 }
  - { offsetInCU: 0x6D36E, offset: 0x6D36E, size: 0x8, addend: 0x0, symName: __ZN3vkb15InstanceBuilderC1Ev, symObjAddr: 0xAB40, symBinAddr: 0x10000D350, symSize: 0x20 }
  - { offsetInCU: 0x6D39B, offset: 0x6D39B, size: 0x8, addend: 0x0, symName: __ZNK3vkb15InstanceBuilder5buildEv, symObjAddr: 0xAB60, symBinAddr: 0x10000D370, symSize: 0x4B20 }
  - { offsetInCU: 0x6D6A6, offset: 0x6D6A6, size: 0x8, addend: 0x0, symName: __ZNK3vkb6ResultINS_10SystemInfoEEcvbEv, symObjAddr: 0xF680, symBinAddr: 0x100011E90, symSize: 0x70 }
  - { offsetInCU: 0x6D6CC, offset: 0x6D6CC, size: 0x8, addend: 0x0, symName: __ZNK3vkb6ResultINS_10SystemInfoEE5errorEv, symObjAddr: 0xF6F0, symBinAddr: 0x100011F00, symSize: 0x220 }
  - { offsetInCU: 0x6D6F3, offset: 0x6D6F3, size: 0x8, addend: 0x0, symName: __ZN3vkb6ResultINS_8InstanceEEC1ENSt3__110error_codeE8VkResult, symObjAddr: 0xF910, symBinAddr: 0x100012120, symSize: 0x290 }
  - { offsetInCU: 0x6D73F, offset: 0x6D73F, size: 0x8, addend: 0x0, symName: __ZNR3vkb6ResultINS_10SystemInfoEE5valueEv, symObjAddr: 0xFBA0, symBinAddr: 0x1000123B0, symSize: 0xC0 }
  - { offsetInCU: 0x6D765, offset: 0x6D765, size: 0x8, addend: 0x0, symName: __ZN3vkb10SystemInfoC1ERKS0_, symObjAddr: 0xFC60, symBinAddr: 0x100012470, symSize: 0x30 }
  - { offsetInCU: 0x6D79B, offset: 0x6D79B, size: 0x8, addend: 0x0, symName: __ZNSt3__16vectorIPKcNS_9allocatorIS2_EEEC1B7v160006Ev, symObjAddr: 0xFC90, symBinAddr: 0x1000124A0, symSize: 0x20 }
  - { offsetInCU: 0x6D7C5, offset: 0x6D7C5, size: 0x8, addend: 0x0, symName: __ZNSt3__16vectorIPKcNS_9allocatorIS2_EEE9push_backB7v160006ERKS2_, symObjAddr: 0xFCB0, symBinAddr: 0x1000124C0, symSize: 0xC0 }
  - { offsetInCU: 0x6D7FC, offset: 0x6D7FC, size: 0x8, addend: 0x0, symName: __ZNSt3__16vectorIPKcNS_9allocatorIS2_EEE9push_backB7v160006EOS2_, symObjAddr: 0xFD70, symBinAddr: 0x100012580, symSize: 0xC0 }
  - { offsetInCU: 0x6D83D, offset: 0x6D83D, size: 0x8, addend: 0x0, symName: '__ZZNK3vkb15InstanceBuilder5buildEvENK3$_3clEPKc', symObjAddr: 0xFE30, symBinAddr: 0x100012640, symSize: 0x250 }
  - { offsetInCU: 0x6D87B, offset: 0x6D87B, size: 0x8, addend: 0x0, symName: __ZNSt3__16vectorIP18VkBaseOutStructureNS_9allocatorIS2_EEEC1B7v160006Ev, symObjAddr: 0x10080, symBinAddr: 0x100012890, symSize: 0x20 }
  - { offsetInCU: 0x6D8A5, offset: 0x6D8A5, size: 0x8, addend: 0x0, symName: __ZNSt3__16vectorIP18VkBaseOutStructureNS_9allocatorIS2_EEE9push_backB7v160006EOS2_, symObjAddr: 0x100A0, symBinAddr: 0x1000128B0, symSize: 0xC0 }
  - { offsetInCU: 0x6D8DC, offset: 0x6D8DC, size: 0x8, addend: 0x0, symName: __ZNKSt3__16vectorI28VkValidationFeatureEnableEXTNS_9allocatorIS1_EEE4sizeB7v160006Ev, symObjAddr: 0x10160, symBinAddr: 0x100012970, symSize: 0x90 }
  - { offsetInCU: 0x6D902, offset: 0x6D902, size: 0x8, addend: 0x0, symName: __ZNKSt3__16vectorI29VkValidationFeatureDisableEXTNS_9allocatorIS1_EEE4sizeB7v160006Ev, symObjAddr: 0x101F0, symBinAddr: 0x100012A00, symSize: 0x90 }
  - { offsetInCU: 0x6D928, offset: 0x6D928, size: 0x8, addend: 0x0, symName: __ZNKSt3__16vectorI28VkValidationFeatureEnableEXTNS_9allocatorIS1_EEE4dataB7v160006Ev, symObjAddr: 0x10280, symBinAddr: 0x100012A90, symSize: 0x50 }
  - { offsetInCU: 0x6D94E, offset: 0x6D94E, size: 0x8, addend: 0x0, symName: __ZNKSt3__16vectorI29VkValidationFeatureDisableEXTNS_9allocatorIS1_EEE4dataB7v160006Ev, symObjAddr: 0x102D0, symBinAddr: 0x100012AE0, symSize: 0x50 }
  - { offsetInCU: 0x6D974, offset: 0x6D974, size: 0x8, addend: 0x0, symName: __ZNKSt3__16vectorI20VkValidationCheckEXTNS_9allocatorIS1_EEE4sizeB7v160006Ev, symObjAddr: 0x10320, symBinAddr: 0x100012B30, symSize: 0x90 }
  - { offsetInCU: 0x6D99A, offset: 0x6D99A, size: 0x8, addend: 0x0, symName: __ZNKSt3__16vectorI20VkValidationCheckEXTNS_9allocatorIS1_EEE4dataB7v160006Ev, symObjAddr: 0x103B0, symBinAddr: 0x100012BC0, symSize: 0x50 }
  - { offsetInCU: 0x6D9C0, offset: 0x6D9C0, size: 0x8, addend: 0x0, symName: __ZNSt3__16vectorIP18VkBaseOutStructureNS_9allocatorIS2_EEE5beginB7v160006Ev, symObjAddr: 0x105F0, symBinAddr: 0x100012E00, symSize: 0x1E0 }
  - { offsetInCU: 0x6D9E9, offset: 0x6D9E9, size: 0x8, addend: 0x0, symName: __ZNSt3__16vectorIP18VkBaseOutStructureNS_9allocatorIS2_EEE3endB7v160006Ev, symObjAddr: 0x107D0, symBinAddr: 0x100012FE0, symSize: 0x1F0 }
  - { offsetInCU: 0x6DA12, offset: 0x6DA12, size: 0x8, addend: 0x0, symName: __ZNKSt3__111__wrap_iterIPP18VkBaseOutStructureEdeB7v160006Ev, symObjAddr: 0x109F0, symBinAddr: 0x100013200, symSize: 0x50 }
  - { offsetInCU: 0x6DA38, offset: 0x6DA38, size: 0x8, addend: 0x0, symName: __ZNSt3__111__wrap_iterIPP18VkBaseOutStructureEppB7v160006Ev, symObjAddr: 0x10A40, symBinAddr: 0x100013250, symSize: 0x50 }
  - { offsetInCU: 0x6DA5E, offset: 0x6DA5E, size: 0x8, addend: 0x0, symName: __ZNKSt3__16vectorIPKcNS_9allocatorIS2_EEE4sizeB7v160006Ev, symObjAddr: 0x10A90, symBinAddr: 0x1000132A0, symSize: 0x90 }
  - { offsetInCU: 0x6DA84, offset: 0x6DA84, size: 0x8, addend: 0x0, symName: __ZNSt3__16vectorIPKcNS_9allocatorIS2_EEE4dataB7v160006Ev, symObjAddr: 0x10B20, symBinAddr: 0x100013330, symSize: 0x50 }
  - { offsetInCU: 0x6DAAF, offset: 0x6DAAF, size: 0x8, addend: 0x0, symName: __ZN3vkb8InstanceC1Ev, symObjAddr: 0x10B70, symBinAddr: 0x100013380, symSize: 0x20 }
  - { offsetInCU: 0x6DADC, offset: 0x6DADC, size: 0x8, addend: 0x0, symName: __ZNSt3__110error_codeC1B7v160006IN3vkb13InstanceErrorEEET_PNS_9enable_ifIXsr18is_error_code_enumIS4_EE5valueEvE4typeE, symObjAddr: 0x10B90, symBinAddr: 0x1000133A0, symSize: 0x30 }
  - { offsetInCU: 0x6DB29, offset: 0x6DB29, size: 0x8, addend: 0x0, symName: __ZN3vkb6detail15VulkanFunctions19init_instance_funcsEP12VkInstance_T, symObjAddr: 0x10BC0, symBinAddr: 0x1000133D0, symSize: 0x230 }
  - { offsetInCU: 0x6DB5D, offset: 0x6DB5D, size: 0x8, addend: 0x0, symName: __ZN3vkb6ResultINS_8InstanceEEC1EOS1_, symObjAddr: 0x10DF0, symBinAddr: 0x100013600, symSize: 0x30 }
  - { offsetInCU: 0x6DB95, offset: 0x6DB95, size: 0x8, addend: 0x0, symName: __ZNSt3__16vectorIP18VkBaseOutStructureNS_9allocatorIS2_EEED1B7v160006Ev, symObjAddr: 0x10E20, symBinAddr: 0x100013630, symSize: 0x20 }
  - { offsetInCU: 0x6DBBF, offset: 0x6DBBF, size: 0x8, addend: 0x0, symName: __ZNSt3__16vectorIPKcNS_9allocatorIS2_EEED1B7v160006Ev, symObjAddr: 0x10E40, symBinAddr: 0x100013650, symSize: 0x20 }
  - { offsetInCU: 0x6DBE9, offset: 0x6DBE9, size: 0x8, addend: 0x0, symName: __ZN3vkb6ResultINS_10SystemInfoEED1Ev, symObjAddr: 0x10E60, symBinAddr: 0x100013670, symSize: 0x20 }
  - { offsetInCU: 0x6DC13, offset: 0x6DC13, size: 0x8, addend: 0x0, symName: __ZN3vkb15InstanceBuilder12set_app_nameEPKc, symObjAddr: 0x10E80, symBinAddr: 0x100013690, symSize: 0x80 }
  - { offsetInCU: 0x6DC4B, offset: 0x6DC4B, size: 0x8, addend: 0x0, symName: __ZN3vkb15InstanceBuilder15set_engine_nameEPKc, symObjAddr: 0x10F00, symBinAddr: 0x100013710, symSize: 0x90 }
  - { offsetInCU: 0x6DC83, offset: 0x6DC83, size: 0x8, addend: 0x0, symName: __ZN3vkb15InstanceBuilder15set_app_versionEj, symObjAddr: 0x10F90, symBinAddr: 0x1000137A0, symSize: 0x80 }
  - { offsetInCU: 0x6DCBB, offset: 0x6DCBB, size: 0x8, addend: 0x0, symName: __ZN3vkb15InstanceBuilder15set_app_versionEjjj, symObjAddr: 0x11010, symBinAddr: 0x100013820, symSize: 0x90 }
  - { offsetInCU: 0x6DD11, offset: 0x6DD11, size: 0x8, addend: 0x0, symName: __ZN3vkb15InstanceBuilder18set_engine_versionEj, symObjAddr: 0x110A0, symBinAddr: 0x1000138B0, symSize: 0x80 }
  - { offsetInCU: 0x6DD49, offset: 0x6DD49, size: 0x8, addend: 0x0, symName: __ZN3vkb15InstanceBuilder18set_engine_versionEjjj, symObjAddr: 0x11120, symBinAddr: 0x100013930, symSize: 0x90 }
  - { offsetInCU: 0x6DD9F, offset: 0x6DD9F, size: 0x8, addend: 0x0, symName: __ZN3vkb15InstanceBuilder19require_api_versionEj, symObjAddr: 0x111B0, symBinAddr: 0x1000139C0, symSize: 0x80 }
  - { offsetInCU: 0x6DDD7, offset: 0x6DDD7, size: 0x8, addend: 0x0, symName: __ZN3vkb15InstanceBuilder19require_api_versionEjjj, symObjAddr: 0x11230, symBinAddr: 0x100013A40, symSize: 0x90 }
  - { offsetInCU: 0x6DE2D, offset: 0x6DE2D, size: 0x8, addend: 0x0, symName: __ZN3vkb15InstanceBuilder28set_minimum_instance_versionEj, symObjAddr: 0x112C0, symBinAddr: 0x100013AD0, symSize: 0x80 }
  - { offsetInCU: 0x6DE65, offset: 0x6DE65, size: 0x8, addend: 0x0, symName: __ZN3vkb15InstanceBuilder28set_minimum_instance_versionEjjj, symObjAddr: 0x11340, symBinAddr: 0x100013B50, symSize: 0x90 }
  - { offsetInCU: 0x6DEBB, offset: 0x6DEBB, size: 0x8, addend: 0x0, symName: __ZN3vkb15InstanceBuilder18desire_api_versionEj, symObjAddr: 0x113D0, symBinAddr: 0x100013BE0, symSize: 0x80 }
  - { offsetInCU: 0x6DEF3, offset: 0x6DEF3, size: 0x8, addend: 0x0, symName: __ZN3vkb15InstanceBuilder18desire_api_versionEjjj, symObjAddr: 0x11450, symBinAddr: 0x100013C60, symSize: 0x90 }
  - { offsetInCU: 0x6DF49, offset: 0x6DF49, size: 0x8, addend: 0x0, symName: __ZN3vkb15InstanceBuilder12enable_layerEPKc, symObjAddr: 0x114E0, symBinAddr: 0x100013CF0, symSize: 0x1D0 }
  - { offsetInCU: 0x6DF86, offset: 0x6DF86, size: 0x8, addend: 0x0, symName: __ZN3vkb15InstanceBuilder16enable_extensionEPKc, symObjAddr: 0x116B0, symBinAddr: 0x100013EC0, symSize: 0x1D0 }
  - { offsetInCU: 0x6DFC3, offset: 0x6DFC3, size: 0x8, addend: 0x0, symName: __ZN3vkb15InstanceBuilder17enable_extensionsERKNSt3__16vectorIPKcNS1_9allocatorIS4_EEEE, symObjAddr: 0x11880, symBinAddr: 0x100014090, symSize: 0x300 }
  - { offsetInCU: 0x6E059, offset: 0x6E059, size: 0x8, addend: 0x0, symName: __ZN3vkb15InstanceBuilder17enable_extensionsEmPKPKc, symObjAddr: 0x11B80, symBinAddr: 0x100014390, symSize: 0xA0 }
  - { offsetInCU: 0x6E0BD, offset: 0x6E0BD, size: 0x8, addend: 0x0, symName: __ZN3vkb15InstanceBuilder24enable_validation_layersEb, symObjAddr: 0x11C20, symBinAddr: 0x100014430, symSize: 0x80 }
  - { offsetInCU: 0x6E0F5, offset: 0x6E0F5, size: 0x8, addend: 0x0, symName: __ZN3vkb15InstanceBuilder25request_validation_layersEb, symObjAddr: 0x11CA0, symBinAddr: 0x1000144B0, symSize: 0x80 }
  - { offsetInCU: 0x6E12D, offset: 0x6E12D, size: 0x8, addend: 0x0, symName: __ZN3vkb15InstanceBuilder27use_default_debug_messengerEv, symObjAddr: 0x11D20, symBinAddr: 0x100014530, symSize: 0xB0 }
  - { offsetInCU: 0x6E156, offset: 0x6E156, size: 0x8, addend: 0x0, symName: __ZN3vkb15InstanceBuilder18set_debug_callbackEPFj38VkDebugUtilsMessageSeverityFlagBitsEXTjPK36VkDebugUtilsMessengerCallbackDataEXTPvE, symObjAddr: 0x11DD0, symBinAddr: 0x1000145E0, symSize: 0xC0 }
  - { offsetInCU: 0x6E18E, offset: 0x6E18E, size: 0x8, addend: 0x0, symName: __ZN3vkb15InstanceBuilder36set_debug_callback_user_data_pointerEPv, symObjAddr: 0x11E90, symBinAddr: 0x1000146A0, symSize: 0x70 }
  - { offsetInCU: 0x6E1C6, offset: 0x6E1C6, size: 0x8, addend: 0x0, symName: __ZN3vkb15InstanceBuilder12set_headlessEb, symObjAddr: 0x11F00, symBinAddr: 0x100014710, symSize: 0x80 }
  - { offsetInCU: 0x6E1FE, offset: 0x6E1FE, size: 0x8, addend: 0x0, symName: __ZN3vkb15InstanceBuilder28set_debug_messenger_severityEj, symObjAddr: 0x11F80, symBinAddr: 0x100014790, symSize: 0x80 }
  - { offsetInCU: 0x6E236, offset: 0x6E236, size: 0x8, addend: 0x0, symName: __ZN3vkb15InstanceBuilder28add_debug_messenger_severityEj, symObjAddr: 0x12000, symBinAddr: 0x100014810, symSize: 0xD0 }
  - { offsetInCU: 0x6E26E, offset: 0x6E26E, size: 0x8, addend: 0x0, symName: __ZN3vkb15InstanceBuilder24set_debug_messenger_typeEj, symObjAddr: 0x120D0, symBinAddr: 0x1000148E0, symSize: 0x80 }
  - { offsetInCU: 0x6E2A6, offset: 0x6E2A6, size: 0x8, addend: 0x0, symName: __ZN3vkb15InstanceBuilder24add_debug_messenger_typeEj, symObjAddr: 0x12150, symBinAddr: 0x100014960, symSize: 0xD0 }
  - { offsetInCU: 0x6E2DE, offset: 0x6E2DE, size: 0x8, addend: 0x0, symName: __ZN3vkb15InstanceBuilder22add_validation_disableE20VkValidationCheckEXT, symObjAddr: 0x12220, symBinAddr: 0x100014A30, symSize: 0x1A0 }
  - { offsetInCU: 0x6E31B, offset: 0x6E31B, size: 0x8, addend: 0x0, symName: __ZNSt3__16vectorI20VkValidationCheckEXTNS_9allocatorIS1_EEE9push_backB7v160006ERKS1_, symObjAddr: 0x123C0, symBinAddr: 0x100014BD0, symSize: 0xC0 }
  - { offsetInCU: 0x6E352, offset: 0x6E352, size: 0x8, addend: 0x0, symName: __ZN3vkb15InstanceBuilder29add_validation_feature_enableE28VkValidationFeatureEnableEXT, symObjAddr: 0x12480, symBinAddr: 0x100014C90, symSize: 0x1A0 }
  - { offsetInCU: 0x6E38F, offset: 0x6E38F, size: 0x8, addend: 0x0, symName: __ZNSt3__16vectorI28VkValidationFeatureEnableEXTNS_9allocatorIS1_EEE9push_backB7v160006ERKS1_, symObjAddr: 0x12620, symBinAddr: 0x100014E30, symSize: 0xC0 }
  - { offsetInCU: 0x6E3C6, offset: 0x6E3C6, size: 0x8, addend: 0x0, symName: __ZN3vkb15InstanceBuilder30add_validation_feature_disableE29VkValidationFeatureDisableEXT, symObjAddr: 0x126E0, symBinAddr: 0x100014EF0, symSize: 0x1A0 }
  - { offsetInCU: 0x6E403, offset: 0x6E403, size: 0x8, addend: 0x0, symName: __ZNSt3__16vectorI29VkValidationFeatureDisableEXTNS_9allocatorIS1_EEE9push_backB7v160006ERKS1_, symObjAddr: 0x12880, symBinAddr: 0x100015090, symSize: 0xC0 }
  - { offsetInCU: 0x6E43A, offset: 0x6E43A, size: 0x8, addend: 0x0, symName: __ZN3vkb15InstanceBuilder24set_allocation_callbacksEP21VkAllocationCallbacks, symObjAddr: 0x12940, symBinAddr: 0x100015150, symSize: 0x70 }
  - { offsetInCU: 0x6E472, offset: 0x6E472, size: 0x8, addend: 0x0, symName: __ZNSt3__16vectorINS_12basic_stringIcNS_11char_traitsIcEENS_9allocatorIcEEEENS4_IS6_EEEC1B7v160006Ev, symObjAddr: 0x12EE0, symBinAddr: 0x1000156F0, symSize: 0x20 }
  - { offsetInCU: 0x6E49C, offset: 0x6E49C, size: 0x8, addend: 0x0, symName: __ZNKSt3__16vectorINS_12basic_stringIcNS_11char_traitsIcEENS_9allocatorIcEEEENS4_IS6_EEE5beginB7v160006Ev, symObjAddr: 0x12F00, symBinAddr: 0x100015710, symSize: 0x1E0 }
  - { offsetInCU: 0x6E4C5, offset: 0x6E4C5, size: 0x8, addend: 0x0, symName: __ZNKSt3__16vectorINS_12basic_stringIcNS_11char_traitsIcEENS_9allocatorIcEEEENS4_IS6_EEE3endB7v160006Ev, symObjAddr: 0x130E0, symBinAddr: 0x1000158F0, symSize: 0x1F0 }
  - { offsetInCU: 0x6E4EE, offset: 0x6E4EE, size: 0x8, addend: 0x0, symName: __ZNSt3__16vectorINS_12basic_stringIcNS_11char_traitsIcEENS_9allocatorIcEEEENS4_IS6_EEE9push_backB7v160006ERKS6_, symObjAddr: 0x13490, symBinAddr: 0x100015CA0, symSize: 0xC0 }
  - { offsetInCU: 0x6E525, offset: 0x6E525, size: 0x8, addend: 0x0, symName: __ZNSt3__16vectorINS_12basic_stringIcNS_11char_traitsIcEENS_9allocatorIcEEEENS4_IS6_EEED1B7v160006Ev, symObjAddr: 0x13550, symBinAddr: 0x100015D60, symSize: 0x20 }
  - { offsetInCU: 0x6E54F, offset: 0x6E54F, size: 0x8, addend: 0x0, symName: __ZNKSt3__16vectorIN3vkb6detail24GenericFeaturesPNextNodeENS_9allocatorIS3_EEE4sizeB7v160006Ev, symObjAddr: 0x16AD0, symBinAddr: 0x1000192E0, symSize: 0xA0 }
  - { offsetInCU: 0x6E575, offset: 0x6E575, size: 0x8, addend: 0x0, symName: __ZNKSt3__16vectorIN3vkb6detail24GenericFeaturesPNextNodeENS_9allocatorIS3_EEEixB7v160006Em, symObjAddr: 0x16B70, symBinAddr: 0x100019380, symSize: 0x60 }
  - { offsetInCU: 0x6E5AC, offset: 0x6E5AC, size: 0x8, addend: 0x0, symName: __ZNKSt3__16vectorI23VkQueueFamilyPropertiesNS_9allocatorIS1_EEE4sizeB7v160006Ev, symObjAddr: 0x16CC0, symBinAddr: 0x1000194D0, symSize: 0xA0 }
  - { offsetInCU: 0x6E5D2, offset: 0x6E5D2, size: 0x8, addend: 0x0, symName: __ZNKSt3__16vectorI23VkQueueFamilyPropertiesNS_9allocatorIS1_EEEixB7v160006Em, symObjAddr: 0x16D60, symBinAddr: 0x100019570, symSize: 0x60 }
  - { offsetInCU: 0x6EAEE, offset: 0x6EAEE, size: 0x8, addend: 0x0, symName: __ZNK3vkb22PhysicalDeviceSelector23populate_device_detailsEP18VkPhysicalDevice_TRKNSt3__16vectorINS_6detail24GenericFeaturesPNextNodeENS3_9allocatorIS6_EEEE, symObjAddr: 0x17460, symBinAddr: 0x100019C70, symSize: 0x14A0 }
  - { offsetInCU: 0x6EC77, offset: 0x6EC77, size: 0x8, addend: 0x0, symName: __ZN3vkb14PhysicalDeviceC1Ev, symObjAddr: 0x18900, symBinAddr: 0x10001B110, symSize: 0x20 }
  - { offsetInCU: 0x6ECA4, offset: 0x6ECA4, size: 0x8, addend: 0x0, symName: __ZNSt3__16vectorI23VkQueueFamilyPropertiesNS_9allocatorIS1_EEEaSB7v160006ERKS4_, symObjAddr: 0x18D90, symBinAddr: 0x10001B5A0, symSize: 0xC0 }
  - { offsetInCU: 0x6ECDB, offset: 0x6ECDB, size: 0x8, addend: 0x0, symName: __ZNSt3__112basic_stringIcNS_11char_traitsIcEENS_9allocatorIcEEEaSB7v160006EPKc, symObjAddr: 0x18E50, symBinAddr: 0x10001B660, symSize: 0x30 }
  - { offsetInCU: 0x6ED10, offset: 0x6ED10, size: 0x8, addend: 0x0, symName: __ZNSt3__16vectorIN3vkb6detail24GenericFeaturesPNextNodeENS_9allocatorIS3_EEEC1ERKS6_, symObjAddr: 0x19290, symBinAddr: 0x10001BAA0, symSize: 0x30 }
  - { offsetInCU: 0x6ED4B, offset: 0x6ED4B, size: 0x8, addend: 0x0, symName: __ZNKSt3__16vectorIN3vkb6detail24GenericFeaturesPNextNodeENS_9allocatorIS3_EEE5emptyB7v160006Ev, symObjAddr: 0x192C0, symBinAddr: 0x10001BAD0, symSize: 0x90 }
  - { offsetInCU: 0x6ED71, offset: 0x6ED71, size: 0x8, addend: 0x0, symName: __ZNSt3__16vectorIN3vkb6detail24GenericFeaturesPNextNodeENS_9allocatorIS3_EEE5beginB7v160006Ev, symObjAddr: 0x19350, symBinAddr: 0x10001BB60, symSize: 0x1E0 }
  - { offsetInCU: 0x6ED9A, offset: 0x6ED9A, size: 0x8, addend: 0x0, symName: __ZNSt3__16vectorIN3vkb6detail24GenericFeaturesPNextNodeENS_9allocatorIS3_EEE3endB7v160006Ev, symObjAddr: 0x19530, symBinAddr: 0x10001BD40, symSize: 0x1F0 }
  - { offsetInCU: 0x6EDC3, offset: 0x6EDC3, size: 0x8, addend: 0x0, symName: __ZNKSt3__111__wrap_iterIPN3vkb6detail24GenericFeaturesPNextNodeEEdeB7v160006Ev, symObjAddr: 0x19750, symBinAddr: 0x10001BF60, symSize: 0x50 }
  - { offsetInCU: 0x6EDE9, offset: 0x6EDE9, size: 0x8, addend: 0x0, symName: __ZNSt3__111__wrap_iterIPN3vkb6detail24GenericFeaturesPNextNodeEEppB7v160006Ev, symObjAddr: 0x197A0, symBinAddr: 0x10001BFB0, symSize: 0x50 }
  - { offsetInCU: 0x6EE0F, offset: 0x6EE0F, size: 0x8, addend: 0x0, symName: __ZNSt3__16vectorIN3vkb6detail24GenericFeaturesPNextNodeENS_9allocatorIS3_EEE5frontB7v160006Ev, symObjAddr: 0x197F0, symBinAddr: 0x10001C000, symSize: 0x50 }
  - { offsetInCU: 0x6EE35, offset: 0x6EE35, size: 0x8, addend: 0x0, symName: __ZNSt3__16vectorIN3vkb6detail24GenericFeaturesPNextNodeENS_9allocatorIS3_EEEaSB7v160006ERKS6_, symObjAddr: 0x19840, symBinAddr: 0x10001C050, symSize: 0xC0 }
  - { offsetInCU: 0x6EE6C, offset: 0x6EE6C, size: 0x8, addend: 0x0, symName: __ZNSt3__16vectorIN3vkb6detail24GenericFeaturesPNextNodeENS_9allocatorIS3_EEED1B7v160006Ev, symObjAddr: 0x19900, symBinAddr: 0x10001C110, symSize: 0x20 }
  - { offsetInCU: 0x6EE96, offset: 0x6EE96, size: 0x8, addend: 0x0, symName: __ZNSt3__16vectorI23VkQueueFamilyPropertiesNS_9allocatorIS1_EEED1B7v160006Ev, symObjAddr: 0x19920, symBinAddr: 0x10001C130, symSize: 0x20 }
  - { offsetInCU: 0x6EEC0, offset: 0x6EEC0, size: 0x8, addend: 0x0, symName: __ZN3vkb14PhysicalDeviceD1Ev, symObjAddr: 0x19940, symBinAddr: 0x10001C150, symSize: 0x20 }
  - { offsetInCU: 0x6EEED, offset: 0x6EEED, size: 0x8, addend: 0x0, symName: __ZNK3vkb22PhysicalDeviceSelector18is_device_suitableERKNS_14PhysicalDeviceE, symObjAddr: 0x19960, symBinAddr: 0x10001C170, symSize: 0x1550 }
  - { offsetInCU: 0x6F029, offset: 0x6F029, size: 0x8, addend: 0x0, symName: __ZNKSt3__112basic_stringIcNS_11char_traitsIcEENS_9allocatorIcEEE4sizeB7v160006Ev, symObjAddr: 0x1AEB0, symBinAddr: 0x10001D6C0, symSize: 0x50 }
  - { offsetInCU: 0x6F04F, offset: 0x6F04F, size: 0x8, addend: 0x0, symName: __ZNKSt3__16vectorINS_12basic_stringIcNS_11char_traitsIcEENS_9allocatorIcEEEENS4_IS6_EEE4sizeB7v160006Ev, symObjAddr: 0x1B210, symBinAddr: 0x10001DA20, symSize: 0xA0 }
  - { offsetInCU: 0x6F075, offset: 0x6F075, size: 0x8, addend: 0x0, symName: __ZNSt3__16vectorI18VkSurfaceFormatKHRNS_9allocatorIS1_EEEC1B7v160006Ev, symObjAddr: 0x1B2B0, symBinAddr: 0x10001DAC0, symSize: 0x20 }
  - { offsetInCU: 0x6F09F, offset: 0x6F09F, size: 0x8, addend: 0x0, symName: __ZNSt3__16vectorI16VkPresentModeKHRNS_9allocatorIS1_EEEC1B7v160006Ev, symObjAddr: 0x1B2D0, symBinAddr: 0x10001DAE0, symSize: 0x20 }
  - { offsetInCU: 0x6F0C9, offset: 0x6F0C9, size: 0x8, addend: 0x0, symName: __ZNKSt3__16vectorI18VkSurfaceFormatKHRNS_9allocatorIS1_EEE5emptyB7v160006Ev, symObjAddr: 0x1BC90, symBinAddr: 0x10001E4A0, symSize: 0x90 }
  - { offsetInCU: 0x6F0EF, offset: 0x6F0EF, size: 0x8, addend: 0x0, symName: __ZNKSt3__16vectorI16VkPresentModeKHRNS_9allocatorIS1_EEE5emptyB7v160006Ev, symObjAddr: 0x1BD20, symBinAddr: 0x10001E530, symSize: 0x90 }
  - { offsetInCU: 0x6F115, offset: 0x6F115, size: 0x8, addend: 0x0, symName: __ZNSt3__16vectorI16VkPresentModeKHRNS_9allocatorIS1_EEED1B7v160006Ev, symObjAddr: 0x1BDB0, symBinAddr: 0x10001E5C0, symSize: 0x20 }
  - { offsetInCU: 0x6F13F, offset: 0x6F13F, size: 0x8, addend: 0x0, symName: __ZNSt3__16vectorI18VkSurfaceFormatKHRNS_9allocatorIS1_EEED1B7v160006Ev, symObjAddr: 0x1BDD0, symBinAddr: 0x10001E5E0, symSize: 0x20 }
  - { offsetInCU: 0x6F169, offset: 0x6F169, size: 0x8, addend: 0x0, symName: __ZN3vkb22PhysicalDeviceSelectorC2ERKNS_8InstanceE, symObjAddr: 0x1BDF0, symBinAddr: 0x10001E600, symSize: 0x30 }
  - { offsetInCU: 0x6F1A5, offset: 0x6F1A5, size: 0x8, addend: 0x0, symName: __ZN3vkb22PhysicalDeviceSelectorC2ERKNS_8InstanceEP14VkSurfaceKHR_T, symObjAddr: 0x1BE20, symBinAddr: 0x10001E630, symSize: 0x4C0 }
  - { offsetInCU: 0x6F1F0, offset: 0x6F1F0, size: 0x8, addend: 0x0, symName: __ZN3vkb22PhysicalDeviceSelectorC1ERKNS_8InstanceE, symObjAddr: 0x1C2E0, symBinAddr: 0x10001EAF0, symSize: 0x30 }
  - { offsetInCU: 0x6F22C, offset: 0x6F22C, size: 0x8, addend: 0x0, symName: __ZN3vkb22PhysicalDeviceSelectorC1ERKNS_8InstanceEP14VkSurfaceKHR_T, symObjAddr: 0x1C310, symBinAddr: 0x10001EB20, symSize: 0x30 }
  - { offsetInCU: 0x6F27C, offset: 0x6F27C, size: 0x8, addend: 0x0, symName: __ZN3vkb22PhysicalDeviceSelector12InstanceInfoC1Ev, symObjAddr: 0x1C340, symBinAddr: 0x10001EB50, symSize: 0x20 }
  - { offsetInCU: 0x6F2AE, offset: 0x6F2AE, size: 0x8, addend: 0x0, symName: __ZN3vkb22PhysicalDeviceSelector17SelectionCriteriaC1Ev, symObjAddr: 0x1C360, symBinAddr: 0x10001EB70, symSize: 0x20 }
  - { offsetInCU: 0x6F2DB, offset: 0x6F2DB, size: 0x8, addend: 0x0, symName: __ZNK3vkb22PhysicalDeviceSelector11select_implENS_19DeviceSelectionModeE, symObjAddr: 0x1C380, symBinAddr: 0x10001EB90, symSize: 0x1A80 }
  - { offsetInCU: 0x6F504, offset: 0x6F504, size: 0x8, addend: 0x0, symName: __ZNKSt3__16vectorIN3vkb6detail24GenericFeaturesPNextNodeENS_9allocatorIS3_EEE5beginB7v160006Ev, symObjAddr: 0x1DE00, symBinAddr: 0x100020610, symSize: 0x1E0 }
  - { offsetInCU: 0x6F52D, offset: 0x6F52D, size: 0x8, addend: 0x0, symName: __ZNKSt3__16vectorIN3vkb6detail24GenericFeaturesPNextNodeENS_9allocatorIS3_EEE3endB7v160006Ev, symObjAddr: 0x1DFE0, symBinAddr: 0x1000207F0, symSize: 0x1F0 }
  - { offsetInCU: 0x6F556, offset: 0x6F556, size: 0x8, addend: 0x0, symName: __ZNKSt3__111__wrap_iterIPKN3vkb6detail24GenericFeaturesPNextNodeEEdeB7v160006Ev, symObjAddr: 0x1E200, symBinAddr: 0x100020A10, symSize: 0x50 }
  - { offsetInCU: 0x6F57C, offset: 0x6F57C, size: 0x8, addend: 0x0, symName: __ZNSt3__111__wrap_iterIPKN3vkb6detail24GenericFeaturesPNextNodeEEppB7v160006Ev, symObjAddr: 0x1E250, symBinAddr: 0x100020A60, symSize: 0x50 }
  - { offsetInCU: 0x6F5A2, offset: 0x6F5A2, size: 0x8, addend: 0x0, symName: __ZNSt3__110error_codeC1B7v160006IN3vkb19PhysicalDeviceErrorEEET_PNS_9enable_ifIXsr18is_error_code_enumIS4_EE5valueEvE4typeE, symObjAddr: 0x1E2A0, symBinAddr: 0x100020AB0, symSize: 0x30 }
  - { offsetInCU: 0x6F5EF, offset: 0x6F5EF, size: 0x8, addend: 0x0, symName: __ZN3vkb6ResultINSt3__16vectorINS_14PhysicalDeviceENS1_9allocatorIS3_EEEEEC1ENS1_10error_codeE8VkResult, symObjAddr: 0x1E2D0, symBinAddr: 0x100020AE0, symSize: 0x290 }
  - { offsetInCU: 0x6F63B, offset: 0x6F63B, size: 0x8, addend: 0x0, symName: __ZNSt3__16vectorIP18VkPhysicalDevice_TNS_9allocatorIS2_EEEC1B7v160006Ev, symObjAddr: 0x1E560, symBinAddr: 0x100020D70, symSize: 0x20 }
  - { offsetInCU: 0x6F665, offset: 0x6F665, size: 0x8, addend: 0x0, symName: __ZNKSt3__16vectorIP18VkPhysicalDevice_TNS_9allocatorIS2_EEE4sizeB7v160006Ev, symObjAddr: 0x1E9B0, symBinAddr: 0x1000211C0, symSize: 0x90 }
  - { offsetInCU: 0x6F68B, offset: 0x6F68B, size: 0x8, addend: 0x0, symName: __ZNSt3__16vectorIP18VkPhysicalDevice_TNS_9allocatorIS2_EEEixB7v160006Em, symObjAddr: 0x1EA40, symBinAddr: 0x100021250, symSize: 0x60 }
  - { offsetInCU: 0x6F6D1, offset: 0x6F6D1, size: 0x8, addend: 0x0, symName: '__ZZNK3vkb22PhysicalDeviceSelector11select_implENS_19DeviceSelectionModeEENK3$_4clERNS_14PhysicalDeviceE', symObjAddr: 0x1EAA0, symBinAddr: 0x1000212B0, symSize: 0xC30 }
  - { offsetInCU: 0x6F788, offset: 0x6F788, size: 0x8, addend: 0x0, symName: __ZN3vkb14PhysicalDeviceC1ERKS0_, symObjAddr: 0x1F6D0, symBinAddr: 0x100021EE0, symSize: 0x30 }
  - { offsetInCU: 0x6F7BE, offset: 0x6F7BE, size: 0x8, addend: 0x0, symName: __ZNSt3__16vectorIN3vkb14PhysicalDeviceENS_9allocatorIS2_EEEC1B7v160006ESt16initializer_listIS2_E, symObjAddr: 0x1F700, symBinAddr: 0x100021F10, symSize: 0x230 }
  - { offsetInCU: 0x6F7FE, offset: 0x6F7FE, size: 0x8, addend: 0x0, symName: __ZN3vkb6ResultINSt3__16vectorINS_14PhysicalDeviceENS1_9allocatorIS3_EEEEEC1EOS6_, symObjAddr: 0x1F930, symBinAddr: 0x100022140, symSize: 0x30 }
  - { offsetInCU: 0x6F836, offset: 0x6F836, size: 0x8, addend: 0x0, symName: __ZNSt3__16vectorIN3vkb14PhysicalDeviceENS_9allocatorIS2_EEED1B7v160006Ev, symObjAddr: 0x1F960, symBinAddr: 0x100022170, symSize: 0x20 }
  - { offsetInCU: 0x6F860, offset: 0x6F860, size: 0x8, addend: 0x0, symName: __ZNSt3__16vectorIN3vkb14PhysicalDeviceENS_9allocatorIS2_EEEC1B7v160006Ev, symObjAddr: 0x1F980, symBinAddr: 0x100022190, symSize: 0x20 }
  - { offsetInCU: 0x6F88A, offset: 0x6F88A, size: 0x8, addend: 0x0, symName: __ZNSt3__16vectorIP18VkPhysicalDevice_TNS_9allocatorIS2_EEE5beginB7v160006Ev, symObjAddr: 0x1F9A0, symBinAddr: 0x1000221B0, symSize: 0x1E0 }
  - { offsetInCU: 0x6F8B3, offset: 0x6F8B3, size: 0x8, addend: 0x0, symName: __ZNSt3__16vectorIP18VkPhysicalDevice_TNS_9allocatorIS2_EEE3endB7v160006Ev, symObjAddr: 0x1FB80, symBinAddr: 0x100022390, symSize: 0x1F0 }
  - { offsetInCU: 0x6F8DC, offset: 0x6F8DC, size: 0x8, addend: 0x0, symName: __ZNKSt3__111__wrap_iterIPP18VkPhysicalDevice_TEdeB7v160006Ev, symObjAddr: 0x1FDA0, symBinAddr: 0x1000225B0, symSize: 0x50 }
  - { offsetInCU: 0x6F902, offset: 0x6F902, size: 0x8, addend: 0x0, symName: __ZNSt3__16vectorIN3vkb14PhysicalDeviceENS_9allocatorIS2_EEE9push_backB7v160006ERKS2_, symObjAddr: 0x1FDF0, symBinAddr: 0x100022600, symSize: 0xC0 }
  - { offsetInCU: 0x6F939, offset: 0x6F939, size: 0x8, addend: 0x0, symName: __ZNSt3__111__wrap_iterIPP18VkPhysicalDevice_TEppB7v160006Ev, symObjAddr: 0x1FEB0, symBinAddr: 0x1000226C0, symSize: 0x50 }
  - { offsetInCU: 0x6F95F, offset: 0x6F95F, size: 0x8, addend: 0x0, symName: __ZNSt3__16vectorIN3vkb14PhysicalDeviceENS_9allocatorIS2_EEE5beginB7v160006Ev, symObjAddr: 0x20270, symBinAddr: 0x100022A80, symSize: 0x1E0 }
  - { offsetInCU: 0x6F988, offset: 0x6F988, size: 0x8, addend: 0x0, symName: __ZNSt3__16vectorIN3vkb14PhysicalDeviceENS_9allocatorIS2_EEE3endB7v160006Ev, symObjAddr: 0x20450, symBinAddr: 0x100022C60, symSize: 0x1F0 }
  - { offsetInCU: 0x6F9B1, offset: 0x6F9B1, size: 0x8, addend: 0x0, symName: __ZNSt3__16vectorIN3vkb14PhysicalDeviceENS_9allocatorIS2_EEE5eraseENS_11__wrap_iterIPKS2_EES9_, symObjAddr: 0x20640, symBinAddr: 0x100022E50, symSize: 0x430 }
  - { offsetInCU: 0x6FA15, offset: 0x6FA15, size: 0x8, addend: 0x0, symName: __ZNSt3__111__wrap_iterIPKN3vkb14PhysicalDeviceEEC1B7v160006IPS2_EERKNS0_IT_EEPNS_9enable_ifIXsr14is_convertibleIS8_S4_EE5valueEvE4typeE, symObjAddr: 0x20A70, symBinAddr: 0x100023280, symSize: 0x30 }
  - { offsetInCU: 0x6FA61, offset: 0x6FA61, size: 0x8, addend: 0x0, symName: __ZNKSt3__111__wrap_iterIPN3vkb14PhysicalDeviceEEdeB7v160006Ev, symObjAddr: 0x20AD0, symBinAddr: 0x1000232E0, symSize: 0x50 }
  - { offsetInCU: 0x6FA87, offset: 0x6FA87, size: 0x8, addend: 0x0, symName: __ZNSt3__111__wrap_iterIPN3vkb14PhysicalDeviceEEppB7v160006Ev, symObjAddr: 0x20B20, symBinAddr: 0x100023330, symSize: 0x50 }
  - { offsetInCU: 0x6FAAD, offset: 0x6FAAD, size: 0x8, addend: 0x0, symName: __ZNSt3__16vectorIP18VkPhysicalDevice_TNS_9allocatorIS2_EEED1B7v160006Ev, symObjAddr: 0x20B70, symBinAddr: 0x100023380, symSize: 0x20 }
  - { offsetInCU: 0x6FAD7, offset: 0x6FAD7, size: 0x8, addend: 0x0, symName: __ZNK3vkb22PhysicalDeviceSelector6selectENS_19DeviceSelectionModeE, symObjAddr: 0x20B90, symBinAddr: 0x1000233A0, symSize: 0x590 }
  - { offsetInCU: 0x6FB24, offset: 0x6FB24, size: 0x8, addend: 0x0, symName: __ZNK3vkb6ResultINSt3__16vectorINS_14PhysicalDeviceENS1_9allocatorIS3_EEEEEcvbEv, symObjAddr: 0x21120, symBinAddr: 0x100023930, symSize: 0x70 }
  - { offsetInCU: 0x6FB4A, offset: 0x6FB4A, size: 0x8, addend: 0x0, symName: __ZNK3vkb6ResultINSt3__16vectorINS_14PhysicalDeviceENS1_9allocatorIS3_EEEEE5errorEv, symObjAddr: 0x21190, symBinAddr: 0x1000239A0, symSize: 0x220 }
  - { offsetInCU: 0x6FB71, offset: 0x6FB71, size: 0x8, addend: 0x0, symName: __ZN3vkb6ResultINS_14PhysicalDeviceEEC1ENSt3__110error_codeE8VkResult, symObjAddr: 0x213B0, symBinAddr: 0x100023BC0, symSize: 0x290 }
  - { offsetInCU: 0x6FBBD, offset: 0x6FBBD, size: 0x8, addend: 0x0, symName: __ZNKR3vkb6ResultINSt3__16vectorINS_14PhysicalDeviceENS1_9allocatorIS3_EEEEE5valueEv, symObjAddr: 0x21640, symBinAddr: 0x100023E50, symSize: 0xC0 }
  - { offsetInCU: 0x6FBE3, offset: 0x6FBE3, size: 0x8, addend: 0x0, symName: __ZNKSt3__16vectorIN3vkb14PhysicalDeviceENS_9allocatorIS2_EEE4sizeB7v160006Ev, symObjAddr: 0x21700, symBinAddr: 0x100023F10, symSize: 0xA0 }
  - { offsetInCU: 0x6FC09, offset: 0x6FC09, size: 0x8, addend: 0x0, symName: __ZNKSt3__16vectorIN3vkb14PhysicalDeviceENS_9allocatorIS2_EEE2atEm, symObjAddr: 0x217A0, symBinAddr: 0x100023FB0, symSize: 0x90 }
  - { offsetInCU: 0x6FC40, offset: 0x6FC40, size: 0x8, addend: 0x0, symName: __ZN3vkb6ResultINS_14PhysicalDeviceEEC1ERKS1_, symObjAddr: 0x21830, symBinAddr: 0x100024040, symSize: 0x30 }
  - { offsetInCU: 0x6FC78, offset: 0x6FC78, size: 0x8, addend: 0x0, symName: __ZN3vkb6ResultINSt3__16vectorINS_14PhysicalDeviceENS1_9allocatorIS3_EEEEED1Ev, symObjAddr: 0x21860, symBinAddr: 0x100024070, symSize: 0x20 }
  - { offsetInCU: 0x6FCA2, offset: 0x6FCA2, size: 0x8, addend: 0x0, symName: __ZNK3vkb22PhysicalDeviceSelector14select_devicesENS_19DeviceSelectionModeE, symObjAddr: 0x21880, symBinAddr: 0x100024090, symSize: 0x530 }
  - { offsetInCU: 0x6FCEF, offset: 0x6FCEF, size: 0x8, addend: 0x0, symName: __ZN3vkb6ResultINSt3__16vectorINS_14PhysicalDeviceENS1_9allocatorIS3_EEEEEC1ERKS6_, symObjAddr: 0x21DB0, symBinAddr: 0x1000245C0, symSize: 0x30 }
  - { offsetInCU: 0x6FD27, offset: 0x6FD27, size: 0x8, addend: 0x0, symName: __ZNK3vkb22PhysicalDeviceSelector19select_device_namesENS_19DeviceSelectionModeE, symObjAddr: 0x21DE0, symBinAddr: 0x1000245F0, symSize: 0x740 }
  - { offsetInCU: 0x6FDDB, offset: 0x6FDDB, size: 0x8, addend: 0x0, symName: __ZN3vkb6ResultINSt3__16vectorINS1_12basic_stringIcNS1_11char_traitsIcEENS1_9allocatorIcEEEENS6_IS8_EEEEEC1ENS1_10error_codeE8VkResult, symObjAddr: 0x22520, symBinAddr: 0x100024D30, symSize: 0x290 }
  - { offsetInCU: 0x6FE27, offset: 0x6FE27, size: 0x8, addend: 0x0, symName: __ZNKSt3__16vectorIN3vkb14PhysicalDeviceENS_9allocatorIS2_EEE5beginB7v160006Ev, symObjAddr: 0x227B0, symBinAddr: 0x100024FC0, symSize: 0x1E0 }
  - { offsetInCU: 0x6FE50, offset: 0x6FE50, size: 0x8, addend: 0x0, symName: __ZNKSt3__16vectorIN3vkb14PhysicalDeviceENS_9allocatorIS2_EEE3endB7v160006Ev, symObjAddr: 0x22990, symBinAddr: 0x1000251A0, symSize: 0x1F0 }
  - { offsetInCU: 0x6FE79, offset: 0x6FE79, size: 0x8, addend: 0x0, symName: __ZNKSt3__111__wrap_iterIPKN3vkb14PhysicalDeviceEEdeB7v160006Ev, symObjAddr: 0x22BB0, symBinAddr: 0x1000253C0, symSize: 0x50 }
  - { offsetInCU: 0x6FE9F, offset: 0x6FE9F, size: 0x8, addend: 0x0, symName: __ZNSt3__111__wrap_iterIPKN3vkb14PhysicalDeviceEEppB7v160006Ev, symObjAddr: 0x22C00, symBinAddr: 0x100025410, symSize: 0x50 }
  - { offsetInCU: 0x6FEC5, offset: 0x6FEC5, size: 0x8, addend: 0x0, symName: __ZN3vkb6ResultINSt3__16vectorINS1_12basic_stringIcNS1_11char_traitsIcEENS1_9allocatorIcEEEENS6_IS8_EEEEEC1EOSA_, symObjAddr: 0x22C50, symBinAddr: 0x100025460, symSize: 0x30 }
  - { offsetInCU: 0x6FEFD, offset: 0x6FEFD, size: 0x8, addend: 0x0, symName: __ZN3vkb22PhysicalDeviceSelector11set_surfaceEP14VkSurfaceKHR_T, symObjAddr: 0x22C80, symBinAddr: 0x100025490, symSize: 0x70 }
  - { offsetInCU: 0x6FF35, offset: 0x6FF35, size: 0x8, addend: 0x0, symName: __ZN3vkb22PhysicalDeviceSelector8set_nameERKNSt3__112basic_stringIcNS1_11char_traitsIcEENS1_9allocatorIcEEEE, symObjAddr: 0x22CF0, symBinAddr: 0x100025500, symSize: 0x30 }
  - { offsetInCU: 0x6FF6D, offset: 0x6FF6D, size: 0x8, addend: 0x0, symName: __ZN3vkb22PhysicalDeviceSelector22prefer_gpu_device_typeENS_19PreferredDeviceTypeE, symObjAddr: 0x22D20, symBinAddr: 0x100025530, symSize: 0x80 }
  - { offsetInCU: 0x6FFA5, offset: 0x6FFA5, size: 0x8, addend: 0x0, symName: __ZN3vkb22PhysicalDeviceSelector25allow_any_gpu_device_typeEb, symObjAddr: 0x22DA0, symBinAddr: 0x1000255B0, symSize: 0x80 }
  - { offsetInCU: 0x6FFDD, offset: 0x6FFDD, size: 0x8, addend: 0x0, symName: __ZN3vkb22PhysicalDeviceSelector15require_presentEb, symObjAddr: 0x22E20, symBinAddr: 0x100025630, symSize: 0x80 }
  - { offsetInCU: 0x70015, offset: 0x70015, size: 0x8, addend: 0x0, symName: __ZN3vkb22PhysicalDeviceSelector32require_dedicated_transfer_queueEv, symObjAddr: 0x22EA0, symBinAddr: 0x1000256B0, symSize: 0x70 }
  - { offsetInCU: 0x7003E, offset: 0x7003E, size: 0x8, addend: 0x0, symName: __ZN3vkb22PhysicalDeviceSelector31require_dedicated_compute_queueEv, symObjAddr: 0x22F10, symBinAddr: 0x100025720, symSize: 0x70 }
  - { offsetInCU: 0x70067, offset: 0x70067, size: 0x8, addend: 0x0, symName: __ZN3vkb22PhysicalDeviceSelector31require_separate_transfer_queueEv, symObjAddr: 0x22F80, symBinAddr: 0x100025790, symSize: 0x70 }
  - { offsetInCU: 0x70090, offset: 0x70090, size: 0x8, addend: 0x0, symName: __ZN3vkb22PhysicalDeviceSelector30require_separate_compute_queueEv, symObjAddr: 0x22FF0, symBinAddr: 0x100025800, symSize: 0x70 }
  - { offsetInCU: 0x700B9, offset: 0x700B9, size: 0x8, addend: 0x0, symName: __ZN3vkb22PhysicalDeviceSelector27required_device_memory_sizeEy, symObjAddr: 0x23060, symBinAddr: 0x100025870, symSize: 0x70 }
  - { offsetInCU: 0x700F1, offset: 0x700F1, size: 0x8, addend: 0x0, symName: __ZN3vkb22PhysicalDeviceSelector26desired_device_memory_sizeEy, symObjAddr: 0x230D0, symBinAddr: 0x1000258E0, symSize: 0x70 }
  - { offsetInCU: 0x70129, offset: 0x70129, size: 0x8, addend: 0x0, symName: __ZN3vkb22PhysicalDeviceSelector22add_required_extensionEPKc, symObjAddr: 0x23140, symBinAddr: 0x100025950, symSize: 0x240 }
  - { offsetInCU: 0x70163, offset: 0x70163, size: 0x8, addend: 0x0, symName: __ZN3vkb22PhysicalDeviceSelector23add_required_extensionsERKNSt3__16vectorIPKcNS1_9allocatorIS4_EEEE, symObjAddr: 0x23380, symBinAddr: 0x100025B90, symSize: 0x410 }
  - { offsetInCU: 0x701E6, offset: 0x701E6, size: 0x8, addend: 0x0, symName: __ZN3vkb22PhysicalDeviceSelector23add_required_extensionsEmPKPKc, symObjAddr: 0x23790, symBinAddr: 0x100025FA0, symSize: 0x310 }
  - { offsetInCU: 0x70246, offset: 0x70246, size: 0x8, addend: 0x0, symName: __ZN3vkb22PhysicalDeviceSelector21add_desired_extensionEPKc, symObjAddr: 0x23AA0, symBinAddr: 0x1000262B0, symSize: 0x240 }
  - { offsetInCU: 0x70280, offset: 0x70280, size: 0x8, addend: 0x0, symName: __ZN3vkb22PhysicalDeviceSelector22add_desired_extensionsERKNSt3__16vectorIPKcNS1_9allocatorIS4_EEEE, symObjAddr: 0x23CE0, symBinAddr: 0x1000264F0, symSize: 0x410 }
  - { offsetInCU: 0x70303, offset: 0x70303, size: 0x8, addend: 0x0, symName: __ZN3vkb22PhysicalDeviceSelector19set_minimum_versionEjj, symObjAddr: 0x240F0, symBinAddr: 0x100026900, symSize: 0x90 }
  - { offsetInCU: 0x7034A, offset: 0x7034A, size: 0x8, addend: 0x0, symName: __ZN3vkb22PhysicalDeviceSelector19set_desired_versionEjj, symObjAddr: 0x24180, symBinAddr: 0x100026990, symSize: 0x90 }
  - { offsetInCU: 0x70391, offset: 0x70391, size: 0x8, addend: 0x0, symName: __ZN3vkb22PhysicalDeviceSelector26disable_portability_subsetEv, symObjAddr: 0x24210, symBinAddr: 0x100026A20, symSize: 0x70 }
  - { offsetInCU: 0x703BA, offset: 0x703BA, size: 0x8, addend: 0x0, symName: __ZN3vkb22PhysicalDeviceSelector21set_required_featuresERK24VkPhysicalDeviceFeatures, symObjAddr: 0x24280, symBinAddr: 0x100026A90, symSize: 0x40 }
  - { offsetInCU: 0x703F2, offset: 0x703F2, size: 0x8, addend: 0x0, symName: __ZN3vkb22PhysicalDeviceSelector24set_required_features_11E32VkPhysicalDeviceVulkan11Features, symObjAddr: 0x242C0, symBinAddr: 0x100026AD0, symSize: 0x1D0 }
  - { offsetInCU: 0x70439, offset: 0x70439, size: 0x8, addend: 0x0, symName: __ZN3vkb22PhysicalDeviceSelector31add_required_extension_featuresI32VkPhysicalDeviceVulkan11FeaturesEERS0_RKT_, symObjAddr: 0x24490, symBinAddr: 0x100026CA0, symSize: 0x1C0 }
  - { offsetInCU: 0x70479, offset: 0x70479, size: 0x8, addend: 0x0, symName: __ZN3vkb22PhysicalDeviceSelector24set_required_features_12E32VkPhysicalDeviceVulkan12Features, symObjAddr: 0x24650, symBinAddr: 0x100026E60, symSize: 0x1D0 }
  - { offsetInCU: 0x704C0, offset: 0x704C0, size: 0x8, addend: 0x0, symName: __ZN3vkb22PhysicalDeviceSelector31add_required_extension_featuresI32VkPhysicalDeviceVulkan12FeaturesEERS0_RKT_, symObjAddr: 0x24820, symBinAddr: 0x100027030, symSize: 0x1C0 }
  - { offsetInCU: 0x70500, offset: 0x70500, size: 0x8, addend: 0x0, symName: __ZN3vkb22PhysicalDeviceSelector24set_required_features_13E32VkPhysicalDeviceVulkan13Features, symObjAddr: 0x249E0, symBinAddr: 0x1000271F0, symSize: 0x200 }
  - { offsetInCU: 0x70547, offset: 0x70547, size: 0x8, addend: 0x0, symName: __ZN3vkb22PhysicalDeviceSelector31add_required_extension_featuresI32VkPhysicalDeviceVulkan13FeaturesEERS0_RKT_, symObjAddr: 0x24BE0, symBinAddr: 0x1000273F0, symSize: 0x1C0 }
  - { offsetInCU: 0x70587, offset: 0x70587, size: 0x8, addend: 0x0, symName: __ZN3vkb22PhysicalDeviceSelector28defer_surface_initializationEv, symObjAddr: 0x24DA0, symBinAddr: 0x1000275B0, symSize: 0x70 }
  - { offsetInCU: 0x705B0, offset: 0x705B0, size: 0x8, addend: 0x0, symName: __ZN3vkb22PhysicalDeviceSelector35select_first_device_unconditionallyEb, symObjAddr: 0x24E10, symBinAddr: 0x100027620, symSize: 0x90 }
  - { offsetInCU: 0x705E8, offset: 0x705E8, size: 0x8, addend: 0x0, symName: __ZNK3vkb14PhysicalDevice27has_dedicated_compute_queueEv, symObjAddr: 0x24EA0, symBinAddr: 0x1000276B0, symSize: 0x40 }
  - { offsetInCU: 0x70611, offset: 0x70611, size: 0x8, addend: 0x0, symName: __ZNK3vkb14PhysicalDevice26has_separate_compute_queueEv, symObjAddr: 0x24EE0, symBinAddr: 0x1000276F0, symSize: 0x40 }
  - { offsetInCU: 0x7063A, offset: 0x7063A, size: 0x8, addend: 0x0, symName: __ZNK3vkb14PhysicalDevice28has_dedicated_transfer_queueEv, symObjAddr: 0x24F20, symBinAddr: 0x100027730, symSize: 0x40 }
  - { offsetInCU: 0x70663, offset: 0x70663, size: 0x8, addend: 0x0, symName: __ZNK3vkb14PhysicalDevice27has_separate_transfer_queueEv, symObjAddr: 0x24F60, symBinAddr: 0x100027770, symSize: 0x40 }
  - { offsetInCU: 0x7068C, offset: 0x7068C, size: 0x8, addend: 0x0, symName: __ZNK3vkb14PhysicalDevice18get_queue_familiesEv, symObjAddr: 0x24FA0, symBinAddr: 0x1000277B0, symSize: 0x40 }
  - { offsetInCU: 0x706B5, offset: 0x706B5, size: 0x8, addend: 0x0, symName: __ZNSt3__16vectorI23VkQueueFamilyPropertiesNS_9allocatorIS1_EEEC1ERKS4_, symObjAddr: 0x24FE0, symBinAddr: 0x1000277F0, symSize: 0x30 }
  - { offsetInCU: 0x706F0, offset: 0x706F0, size: 0x8, addend: 0x0, symName: __ZNK3vkb14PhysicalDevice14get_extensionsEv, symObjAddr: 0x25010, symBinAddr: 0x100027820, symSize: 0x40 }
  - { offsetInCU: 0x70719, offset: 0x70719, size: 0x8, addend: 0x0, symName: __ZNSt3__16vectorINS_12basic_stringIcNS_11char_traitsIcEENS_9allocatorIcEEEENS4_IS6_EEEC1ERKS8_, symObjAddr: 0x25050, symBinAddr: 0x100027860, symSize: 0x30 }
  - { offsetInCU: 0x70754, offset: 0x70754, size: 0x8, addend: 0x0, symName: __ZNK3vkb14PhysicalDevice24get_available_extensionsEv, symObjAddr: 0x25080, symBinAddr: 0x100027890, symSize: 0x40 }
  - { offsetInCU: 0x7077D, offset: 0x7077D, size: 0x8, addend: 0x0, symName: __ZNK3vkb14PhysicalDevice20is_extension_presentEPKc, symObjAddr: 0x250C0, symBinAddr: 0x1000278D0, symSize: 0x450 }
  - { offsetInCU: 0x707E5, offset: 0x707E5, size: 0x8, addend: 0x0, symName: __ZN3vkb14PhysicalDevice27enable_extension_if_presentEPKc, symObjAddr: 0x25B70, symBinAddr: 0x100028380, symSize: 0x5F0 }
  - { offsetInCU: 0x70860, offset: 0x70860, size: 0x8, addend: 0x0, symName: __ZN3vkb14PhysicalDevice28enable_extensions_if_presentERKNSt3__16vectorIPKcNS1_9allocatorIS4_EEEE, symObjAddr: 0x267F0, symBinAddr: 0x100029000, symSize: 0x990 }
  - { offsetInCU: 0x7098D, offset: 0x7098D, size: 0x8, addend: 0x0, symName: __ZNK3vkb14PhysicalDevicecvP18VkPhysicalDevice_TEv, symObjAddr: 0x274C0, symBinAddr: 0x100029CD0, symSize: 0x50 }
  - { offsetInCU: 0x709B6, offset: 0x709B6, size: 0x8, addend: 0x0, symName: __ZNK3vkb6Device15get_queue_indexENS_9QueueTypeE, symObjAddr: 0x27510, symBinAddr: 0x100029D20, symSize: 0x9B0 }
  - { offsetInCU: 0x70A03, offset: 0x70A03, size: 0x8, addend: 0x0, symName: __ZNSt3__110error_codeC1B7v160006IN3vkb10QueueErrorEEET_PNS_9enable_ifIXsr18is_error_code_enumIS4_EE5valueEvE4typeE, symObjAddr: 0x27EC0, symBinAddr: 0x10002A6D0, symSize: 0x30 }
  - { offsetInCU: 0x70A50, offset: 0x70A50, size: 0x8, addend: 0x0, symName: __ZN3vkb6ResultIjEC1ENSt3__110error_codeE8VkResult, symObjAddr: 0x27EF0, symBinAddr: 0x10002A700, symSize: 0x290 }
  - { offsetInCU: 0x70A9C, offset: 0x70A9C, size: 0x8, addend: 0x0, symName: __ZN3vkb6ResultIjEC1EOj, symObjAddr: 0x28180, symBinAddr: 0x10002A990, symSize: 0x30 }
  - { offsetInCU: 0x70AD4, offset: 0x70AD4, size: 0x8, addend: 0x0, symName: __ZNK3vkb6Device25get_dedicated_queue_indexENS_9QueueTypeE, symObjAddr: 0x281B0, symBinAddr: 0x10002A9C0, symSize: 0x5D0 }
  - { offsetInCU: 0x70B21, offset: 0x70B21, size: 0x8, addend: 0x0, symName: __ZNK3vkb6Device9get_queueENS_9QueueTypeE, symObjAddr: 0x28780, symBinAddr: 0x10002AF90, symSize: 0x5C0 }
  - { offsetInCU: 0x70B82, offset: 0x70B82, size: 0x8, addend: 0x0, symName: __ZNK3vkb6ResultIjE9has_valueEv, symObjAddr: 0x28D40, symBinAddr: 0x10002B550, symSize: 0x70 }
  - { offsetInCU: 0x70BA8, offset: 0x70BA8, size: 0x8, addend: 0x0, symName: __ZNK3vkb6ResultIjE5errorEv, symObjAddr: 0x28DB0, symBinAddr: 0x10002B5C0, symSize: 0x220 }
  - { offsetInCU: 0x70BCF, offset: 0x70BCF, size: 0x8, addend: 0x0, symName: __ZN3vkb6ResultIP9VkQueue_TEC1ENSt3__110error_codeE8VkResult, symObjAddr: 0x28FD0, symBinAddr: 0x10002B7E0, symSize: 0x290 }
  - { offsetInCU: 0x70C1B, offset: 0x70C1B, size: 0x8, addend: 0x0, symName: __ZNR3vkb6ResultIjE5valueEv, symObjAddr: 0x29260, symBinAddr: 0x10002BA70, symSize: 0xC0 }
  - { offsetInCU: 0x70C41, offset: 0x70C41, size: 0x8, addend: 0x0, symName: __ZN3vkb6ResultIP9VkQueue_TEC1EOS2_, symObjAddr: 0x29320, symBinAddr: 0x10002BB30, symSize: 0x30 }
  - { offsetInCU: 0x70C79, offset: 0x70C79, size: 0x8, addend: 0x0, symName: __ZN3vkb6ResultIjED1Ev, symObjAddr: 0x29350, symBinAddr: 0x10002BB60, symSize: 0x20 }
  - { offsetInCU: 0x70CA3, offset: 0x70CA3, size: 0x8, addend: 0x0, symName: __ZNK3vkb6Device19get_dedicated_queueENS_9QueueTypeE, symObjAddr: 0x29370, symBinAddr: 0x10002BB80, symSize: 0x5C0 }
  - { offsetInCU: 0x70D04, offset: 0x70D04, size: 0x8, addend: 0x0, symName: __ZNK3vkb6Device10make_tableEv, symObjAddr: 0x29930, symBinAddr: 0x10002C140, symSize: 0xA0 }
  - { offsetInCU: 0x70D2D, offset: 0x70D2D, size: 0x8, addend: 0x0, symName: __ZN3vkb13DispatchTableC1EP10VkDevice_TPFPFvvES2_PKcE, symObjAddr: 0x299D0, symBinAddr: 0x10002C1E0, symSize: 0x30 }
  - { offsetInCU: 0x70D75, offset: 0x70D75, size: 0x8, addend: 0x0, symName: __ZNK3vkb6DevicecvP10VkDevice_TEv, symObjAddr: 0x29A00, symBinAddr: 0x10002C210, symSize: 0x50 }
  - { offsetInCU: 0x70D9E, offset: 0x70D9E, size: 0x8, addend: 0x0, symName: __ZN3vkb22CustomQueueDescriptionC2EjNSt3__16vectorIfNS1_9allocatorIfEEEE, symObjAddr: 0x29A50, symBinAddr: 0x10002C260, symSize: 0x90 }
  - { offsetInCU: 0x70DEA, offset: 0x70DEA, size: 0x8, addend: 0x0, symName: __ZNSt3__16vectorIfNS_9allocatorIfEEEC1B7v160006EOS3_, symObjAddr: 0x29AE0, symBinAddr: 0x10002C2F0, symSize: 0x30 }
  - { offsetInCU: 0x70E25, offset: 0x70E25, size: 0x8, addend: 0x0, symName: __ZN3vkb22CustomQueueDescriptionC1EjNSt3__16vectorIfNS1_9allocatorIfEEEE, symObjAddr: 0x29B10, symBinAddr: 0x10002C320, symSize: 0x30 }
  - { offsetInCU: 0x70EBE, offset: 0x70EBE, size: 0x8, addend: 0x0, symName: __ZN3vkb13DeviceBuilderC2ENS_14PhysicalDeviceE, symObjAddr: 0x29C10, symBinAddr: 0x10002C420, symSize: 0x50 }
  - { offsetInCU: 0x70F00, offset: 0x70F00, size: 0x8, addend: 0x0, symName: __ZN3vkb13DeviceBuilder10DeviceInfoC1Ev, symObjAddr: 0x29C60, symBinAddr: 0x10002C470, symSize: 0x20 }
  - { offsetInCU: 0x70F2D, offset: 0x70F2D, size: 0x8, addend: 0x0, symName: __ZN3vkb14PhysicalDeviceaSEOS0_, symObjAddr: 0x29C80, symBinAddr: 0x10002C490, symSize: 0xE0 }
  - { offsetInCU: 0x70F5F, offset: 0x70F5F, size: 0x8, addend: 0x0, symName: __ZN3vkb13DeviceBuilderC1ENS_14PhysicalDeviceE, symObjAddr: 0x29D60, symBinAddr: 0x10002C570, symSize: 0x20 }
  - { offsetInCU: 0x70F9C, offset: 0x70F9C, size: 0x8, addend: 0x0, symName: __ZNK3vkb13DeviceBuilder5buildEv, symObjAddr: 0x29D80, symBinAddr: 0x10002C590, symSize: 0x2B60 }
  - { offsetInCU: 0x712A3, offset: 0x712A3, size: 0x8, addend: 0x0, symName: __ZNSt3__16vectorIN3vkb22CustomQueueDescriptionENS_9allocatorIS2_EEEC1B7v160006Ev, symObjAddr: 0x2C8E0, symBinAddr: 0x10002F0F0, symSize: 0x20 }
  - { offsetInCU: 0x712CD, offset: 0x712CD, size: 0x8, addend: 0x0, symName: __ZNSt3__16vectorIN3vkb22CustomQueueDescriptionENS_9allocatorIS2_EEE6insertINS_11__wrap_iterIPKS2_EELi0EEENS7_IPS2_EESA_T_SD_, symObjAddr: 0x2C900, symBinAddr: 0x10002F110, symSize: 0xCD0 }
  - { offsetInCU: 0x713F1, offset: 0x713F1, size: 0x8, addend: 0x0, symName: __ZNSt3__16vectorIN3vkb22CustomQueueDescriptionENS_9allocatorIS2_EEE3endB7v160006Ev, symObjAddr: 0x2D5D0, symBinAddr: 0x10002FDE0, symSize: 0x1F0 }
  - { offsetInCU: 0x7141F, offset: 0x7141F, size: 0x8, addend: 0x0, symName: __ZNSt3__111__wrap_iterIPKN3vkb22CustomQueueDescriptionEEC1B7v160006IPS2_EERKNS0_IT_EEPNS_9enable_ifIXsr14is_convertibleIS8_S4_EE5valueEvE4typeE, symObjAddr: 0x2D7C0, symBinAddr: 0x10002FFD0, symSize: 0x30 }
  - { offsetInCU: 0x7146B, offset: 0x7146B, size: 0x8, addend: 0x0, symName: __ZNKSt3__16vectorIN3vkb22CustomQueueDescriptionENS_9allocatorIS2_EEE5beginB7v160006Ev, symObjAddr: 0x2D7F0, symBinAddr: 0x100030000, symSize: 0x1E0 }
  - { offsetInCU: 0x71494, offset: 0x71494, size: 0x8, addend: 0x0, symName: __ZNKSt3__16vectorIN3vkb22CustomQueueDescriptionENS_9allocatorIS2_EEE3endB7v160006Ev, symObjAddr: 0x2D9D0, symBinAddr: 0x1000301E0, symSize: 0x1F0 }
  - { offsetInCU: 0x714BD, offset: 0x714BD, size: 0x8, addend: 0x0, symName: __ZNKSt3__16vectorIN3vkb22CustomQueueDescriptionENS_9allocatorIS2_EEE5emptyB7v160006Ev, symObjAddr: 0x2DBC0, symBinAddr: 0x1000303D0, symSize: 0x90 }
  - { offsetInCU: 0x714E3, offset: 0x714E3, size: 0x8, addend: 0x0, symName: __ZNSt3__16vectorIN3vkb22CustomQueueDescriptionENS_9allocatorIS2_EEE12emplace_backIJRjNS0_IfNS3_IfEEEEEEERS2_DpOT_, symObjAddr: 0x2DC50, symBinAddr: 0x100030460, symSize: 0xD0 }
  - { offsetInCU: 0x71539, offset: 0x71539, size: 0x8, addend: 0x0, symName: __ZNSt3__16vectorIfNS_9allocatorIfEEEC1B7v160006ESt16initializer_listIfE, symObjAddr: 0x2DD20, symBinAddr: 0x100030530, symSize: 0x230 }
  - { offsetInCU: 0x71579, offset: 0x71579, size: 0x8, addend: 0x0, symName: __ZNSt3__16vectorIfNS_9allocatorIfEEED1B7v160006Ev, symObjAddr: 0x2DF50, symBinAddr: 0x100030760, symSize: 0x20 }
  - { offsetInCU: 0x715A3, offset: 0x715A3, size: 0x8, addend: 0x0, symName: __ZNSt3__16vectorI23VkDeviceQueueCreateInfoNS_9allocatorIS1_EEEC1B7v160006Ev, symObjAddr: 0x2DF70, symBinAddr: 0x100030780, symSize: 0x20 }
  - { offsetInCU: 0x715CD, offset: 0x715CD, size: 0x8, addend: 0x0, symName: __ZNSt3__16vectorIN3vkb22CustomQueueDescriptionENS_9allocatorIS2_EEE5beginB7v160006Ev, symObjAddr: 0x2DF90, symBinAddr: 0x1000307A0, symSize: 0x1E0 }
  - { offsetInCU: 0x715F6, offset: 0x715F6, size: 0x8, addend: 0x0, symName: __ZNKSt3__111__wrap_iterIPN3vkb22CustomQueueDescriptionEEdeB7v160006Ev, symObjAddr: 0x2E1A0, symBinAddr: 0x1000309B0, symSize: 0x50 }
  - { offsetInCU: 0x7161C, offset: 0x7161C, size: 0x8, addend: 0x0, symName: __ZNKSt3__16vectorIfNS_9allocatorIfEEE4sizeB7v160006Ev, symObjAddr: 0x2E1F0, symBinAddr: 0x100030A00, symSize: 0x90 }
  - { offsetInCU: 0x71642, offset: 0x71642, size: 0x8, addend: 0x0, symName: __ZNSt3__16vectorIfNS_9allocatorIfEEE4dataB7v160006Ev, symObjAddr: 0x2E280, symBinAddr: 0x100030A90, symSize: 0x50 }
  - { offsetInCU: 0x71668, offset: 0x71668, size: 0x8, addend: 0x0, symName: __ZNSt3__16vectorI23VkDeviceQueueCreateInfoNS_9allocatorIS1_EEE9push_backB7v160006ERKS1_, symObjAddr: 0x2E2D0, symBinAddr: 0x100030AE0, symSize: 0xC0 }
  - { offsetInCU: 0x7169F, offset: 0x7169F, size: 0x8, addend: 0x0, symName: __ZNSt3__111__wrap_iterIPN3vkb22CustomQueueDescriptionEEppB7v160006Ev, symObjAddr: 0x2E390, symBinAddr: 0x100030BA0, symSize: 0x50 }
  - { offsetInCU: 0x716C5, offset: 0x716C5, size: 0x8, addend: 0x0, symName: __ZNKSt3__16vectorIP18VkBaseOutStructureNS_9allocatorIS2_EEE5beginB7v160006Ev, symObjAddr: 0x2E3E0, symBinAddr: 0x100030BF0, symSize: 0x1E0 }
  - { offsetInCU: 0x716EE, offset: 0x716EE, size: 0x8, addend: 0x0, symName: __ZNKSt3__16vectorIP18VkBaseOutStructureNS_9allocatorIS2_EEE3endB7v160006Ev, symObjAddr: 0x2E5C0, symBinAddr: 0x100030DD0, symSize: 0x1F0 }
  - { offsetInCU: 0x71717, offset: 0x71717, size: 0x8, addend: 0x0, symName: __ZNKSt3__111__wrap_iterIPKP18VkBaseOutStructureEdeB7v160006Ev, symObjAddr: 0x2E7E0, symBinAddr: 0x100030FF0, symSize: 0x50 }
  - { offsetInCU: 0x7173D, offset: 0x7173D, size: 0x8, addend: 0x0, symName: __ZNSt3__111__wrap_iterIPKP18VkBaseOutStructureEppB7v160006Ev, symObjAddr: 0x2E830, symBinAddr: 0x100031040, symSize: 0x50 }
  - { offsetInCU: 0x71763, offset: 0x71763, size: 0x8, addend: 0x0, symName: __ZNSt3__110error_codeC1B7v160006IN3vkb11DeviceErrorEEET_PNS_9enable_ifIXsr18is_error_code_enumIS4_EE5valueEvE4typeE, symObjAddr: 0x2E880, symBinAddr: 0x100031090, symSize: 0x30 }
  - { offsetInCU: 0x717B0, offset: 0x717B0, size: 0x8, addend: 0x0, symName: __ZN3vkb6ResultINS_6DeviceEEC1ENSt3__110error_codeE8VkResult, symObjAddr: 0x2E8B0, symBinAddr: 0x1000310C0, symSize: 0x290 }
  - { offsetInCU: 0x717FC, offset: 0x717FC, size: 0x8, addend: 0x0, symName: __ZNSt3__16vectorIP18VkBaseOutStructureNS_9allocatorIS2_EEE9push_backB7v160006ERKS2_, symObjAddr: 0x2EB40, symBinAddr: 0x100031350, symSize: 0xC0 }
  - { offsetInCU: 0x71833, offset: 0x71833, size: 0x8, addend: 0x0, symName: __ZNKSt3__16vectorI23VkDeviceQueueCreateInfoNS_9allocatorIS1_EEE4sizeB7v160006Ev, symObjAddr: 0x2EDF0, symBinAddr: 0x100031600, symSize: 0xA0 }
  - { offsetInCU: 0x71859, offset: 0x71859, size: 0x8, addend: 0x0, symName: __ZNSt3__16vectorI23VkDeviceQueueCreateInfoNS_9allocatorIS1_EEE4dataB7v160006Ev, symObjAddr: 0x2EE90, symBinAddr: 0x1000316A0, symSize: 0x50 }
  - { offsetInCU: 0x71884, offset: 0x71884, size: 0x8, addend: 0x0, symName: __ZN3vkb6DeviceC1Ev, symObjAddr: 0x2EEE0, symBinAddr: 0x1000316F0, symSize: 0x20 }
  - { offsetInCU: 0x718B1, offset: 0x718B1, size: 0x8, addend: 0x0, symName: __ZN3vkb14PhysicalDeviceaSERKS0_, symObjAddr: 0x2EF00, symBinAddr: 0x100031710, symSize: 0xE0 }
  - { offsetInCU: 0x718E8, offset: 0x718E8, size: 0x8, addend: 0x0, symName: __ZN3vkb6detail15VulkanFunctions20get_device_proc_addrIPFvP10VkDevice_TjjPP9VkQueue_TEEEvS4_RT_PKc, symObjAddr: 0x2EFE0, symBinAddr: 0x1000317F0, symSize: 0xA0 }
  - { offsetInCU: 0x71946, offset: 0x71946, size: 0x8, addend: 0x0, symName: __ZN3vkb6detail15VulkanFunctions20get_device_proc_addrIPFvP10VkDevice_TPK21VkAllocationCallbacksEEEvS4_RT_PKc, symObjAddr: 0x2F080, symBinAddr: 0x100031890, symSize: 0xA0 }
  - { offsetInCU: 0x7199F, offset: 0x7199F, size: 0x8, addend: 0x0, symName: __ZN3vkb6ResultINS_6DeviceEEC1EOS1_, symObjAddr: 0x2F120, symBinAddr: 0x100031930, symSize: 0x30 }
  - { offsetInCU: 0x719D7, offset: 0x719D7, size: 0x8, addend: 0x0, symName: __ZN3vkb6DeviceD1Ev, symObjAddr: 0x2F150, symBinAddr: 0x100031960, symSize: 0x20 }
  - { offsetInCU: 0x71A04, offset: 0x71A04, size: 0x8, addend: 0x0, symName: __ZNSt3__16vectorI23VkDeviceQueueCreateInfoNS_9allocatorIS1_EEED1B7v160006Ev, symObjAddr: 0x2F170, symBinAddr: 0x100031980, symSize: 0x20 }
  - { offsetInCU: 0x71A2E, offset: 0x71A2E, size: 0x8, addend: 0x0, symName: __ZNSt3__16vectorIN3vkb22CustomQueueDescriptionENS_9allocatorIS2_EEED1B7v160006Ev, symObjAddr: 0x2F190, symBinAddr: 0x1000319A0, symSize: 0x20 }
  - { offsetInCU: 0x71A58, offset: 0x71A58, size: 0x8, addend: 0x0, symName: __ZN3vkb13DeviceBuilder18custom_queue_setupENSt3__16vectorINS_22CustomQueueDescriptionENS1_9allocatorIS3_EEEE, symObjAddr: 0x2F1B0, symBinAddr: 0x1000319C0, symSize: 0x40 }
  - { offsetInCU: 0x71A91, offset: 0x71A91, size: 0x8, addend: 0x0, symName: __ZNSt3__16vectorIN3vkb22CustomQueueDescriptionENS_9allocatorIS2_EEEaSB7v160006EOS5_, symObjAddr: 0x2F1F0, symBinAddr: 0x100031A00, symSize: 0x30 }
  - { offsetInCU: 0x71AC8, offset: 0x71AC8, size: 0x8, addend: 0x0, symName: __ZN3vkb13DeviceBuilder24set_allocation_callbacksEP21VkAllocationCallbacks, symObjAddr: 0x2F220, symBinAddr: 0x100031A30, symSize: 0x70 }
  - { offsetInCU: 0x71B05, offset: 0x71B05, size: 0x8, addend: 0x0, symName: __ZN3vkb6detail27SurfaceSupportErrorCategoryD1Ev, symObjAddr: 0x2F290, symBinAddr: 0x100031AA0, symSize: 0x20 }
  - { offsetInCU: 0x71B70, offset: 0x71B70, size: 0x8, addend: 0x0, symName: __ZN3vkb6ResultINS_6detail21SurfaceSupportDetailsEEC1ENSt3__110error_codeE8VkResult, symObjAddr: 0x30230, symBinAddr: 0x100032A40, symSize: 0x290 }
  - { offsetInCU: 0x71BBC, offset: 0x71BBC, size: 0x8, addend: 0x0, symName: __ZNSt3__16vectorI18VkSurfaceFormatKHRNS_9allocatorIS1_EEEC1ERKS4_, symObjAddr: 0x30E60, symBinAddr: 0x100033670, symSize: 0x30 }
  - { offsetInCU: 0x71BF7, offset: 0x71BF7, size: 0x8, addend: 0x0, symName: __ZNSt3__16vectorI16VkPresentModeKHRNS_9allocatorIS1_EEEC1ERKS4_, symObjAddr: 0x30E90, symBinAddr: 0x1000336A0, symSize: 0x30 }
  - { offsetInCU: 0x71C32, offset: 0x71C32, size: 0x8, addend: 0x0, symName: __ZN3vkb6ResultINS_6detail21SurfaceSupportDetailsEEC1EOS2_, symObjAddr: 0x30EC0, symBinAddr: 0x1000336D0, symSize: 0x30 }
  - { offsetInCU: 0x71C6F, offset: 0x71C6F, size: 0x8, addend: 0x0, symName: __ZN3vkb6detail21SurfaceSupportDetailsD1Ev, symObjAddr: 0x30EF0, symBinAddr: 0x100033700, symSize: 0x20 }
  - { offsetInCU: 0x71C9C, offset: 0x71C9C, size: 0x8, addend: 0x0, symName: __ZNKSt3__16vectorI18VkSurfaceFormatKHRNS_9allocatorIS1_EEE5beginB7v160006Ev, symObjAddr: 0x316C0, symBinAddr: 0x100033ED0, symSize: 0x1E0 }
  - { offsetInCU: 0x71CC5, offset: 0x71CC5, size: 0x8, addend: 0x0, symName: __ZNKSt3__16vectorI18VkSurfaceFormatKHRNS_9allocatorIS1_EEE3endB7v160006Ev, symObjAddr: 0x318A0, symBinAddr: 0x1000340B0, symSize: 0x1F0 }
  - { offsetInCU: 0x71CEE, offset: 0x71CEE, size: 0x8, addend: 0x0, symName: __ZNKSt3__111__wrap_iterIPK18VkSurfaceFormatKHREdeB7v160006Ev, symObjAddr: 0x31AC0, symBinAddr: 0x1000342D0, symSize: 0x50 }
  - { offsetInCU: 0x71D39, offset: 0x71D39, size: 0x8, addend: 0x0, symName: __ZN3vkb6ResultI18VkSurfaceFormatKHREC1ERKS1_, symObjAddr: 0x31B10, symBinAddr: 0x100034320, symSize: 0x30 }
  - { offsetInCU: 0x71D71, offset: 0x71D71, size: 0x8, addend: 0x0, symName: __ZNSt3__111__wrap_iterIPK18VkSurfaceFormatKHREppB7v160006Ev, symObjAddr: 0x31B40, symBinAddr: 0x100034350, symSize: 0x50 }
  - { offsetInCU: 0x71D97, offset: 0x71D97, size: 0x8, addend: 0x0, symName: __ZN3vkb6ResultI18VkSurfaceFormatKHREC1ENSt3__110error_codeE8VkResult, symObjAddr: 0x31B90, symBinAddr: 0x1000343A0, symSize: 0x290 }
  - { offsetInCU: 0x71DE3, offset: 0x71DE3, size: 0x8, addend: 0x0, symName: __ZNK3vkb6ResultI18VkSurfaceFormatKHRE9has_valueEv, symObjAddr: 0x32180, symBinAddr: 0x100034990, symSize: 0x70 }
  - { offsetInCU: 0x71E09, offset: 0x71E09, size: 0x8, addend: 0x0, symName: __ZNR3vkb6ResultI18VkSurfaceFormatKHRE5valueEv, symObjAddr: 0x321F0, symBinAddr: 0x100034A00, symSize: 0xC0 }
  - { offsetInCU: 0x71E2F, offset: 0x71E2F, size: 0x8, addend: 0x0, symName: __ZNKSt3__16vectorI18VkSurfaceFormatKHRNS_9allocatorIS1_EEEixB7v160006Em, symObjAddr: 0x322B0, symBinAddr: 0x100034AC0, symSize: 0x60 }
  - { offsetInCU: 0x71E66, offset: 0x71E66, size: 0x8, addend: 0x0, symName: __ZN3vkb6ResultI18VkSurfaceFormatKHRED1Ev, symObjAddr: 0x32310, symBinAddr: 0x100034B20, symSize: 0x20 }
  - { offsetInCU: 0x71E90, offset: 0x71E90, size: 0x8, addend: 0x0, symName: __ZNKSt3__16vectorI16VkPresentModeKHRNS_9allocatorIS1_EEE5beginB7v160006Ev, symObjAddr: 0x328E0, symBinAddr: 0x1000350F0, symSize: 0x1E0 }
  - { offsetInCU: 0x71EB9, offset: 0x71EB9, size: 0x8, addend: 0x0, symName: __ZNKSt3__16vectorI16VkPresentModeKHRNS_9allocatorIS1_EEE3endB7v160006Ev, symObjAddr: 0x32AC0, symBinAddr: 0x1000352D0, symSize: 0x1F0 }
  - { offsetInCU: 0x71EE2, offset: 0x71EE2, size: 0x8, addend: 0x0, symName: __ZNKSt3__111__wrap_iterIPK16VkPresentModeKHREdeB7v160006Ev, symObjAddr: 0x32CE0, symBinAddr: 0x1000354F0, symSize: 0x50 }
  - { offsetInCU: 0x71F08, offset: 0x71F08, size: 0x8, addend: 0x0, symName: __ZNSt3__111__wrap_iterIPK16VkPresentModeKHREppB7v160006Ev, symObjAddr: 0x32D30, symBinAddr: 0x100035540, symSize: 0x50 }
  - { offsetInCU: 0x71F8A, offset: 0x71F8A, size: 0x8, addend: 0x0, symName: __ZN3vkb16SwapchainBuilderC2ERKNS_6DeviceE, symObjAddr: 0x33610, symBinAddr: 0x100035E20, symSize: 0x8A0 }
  - { offsetInCU: 0x71FF9, offset: 0x71FF9, size: 0x8, addend: 0x0, symName: __ZN3vkb16SwapchainBuilder13SwapchainInfoC1Ev, symObjAddr: 0x33EB0, symBinAddr: 0x1000366C0, symSize: 0x20 }
  - { offsetInCU: 0x72026, offset: 0x72026, size: 0x8, addend: 0x0, symName: __ZN3vkb16SwapchainBuilder13SwapchainInfoD1Ev, symObjAddr: 0x33ED0, symBinAddr: 0x1000366E0, symSize: 0x20 }
  - { offsetInCU: 0x72053, offset: 0x72053, size: 0x8, addend: 0x0, symName: __ZN3vkb16SwapchainBuilderC1ERKNS_6DeviceE, symObjAddr: 0x33EF0, symBinAddr: 0x100036700, symSize: 0x30 }
  - { offsetInCU: 0x7208F, offset: 0x7208F, size: 0x8, addend: 0x0, symName: __ZN3vkb16SwapchainBuilderC2ERKNS_6DeviceEP14VkSurfaceKHR_T, symObjAddr: 0x33F20, symBinAddr: 0x100036730, symSize: 0x930 }
  - { offsetInCU: 0x7211E, offset: 0x7211E, size: 0x8, addend: 0x0, symName: __ZN3vkb6DeviceC1ERKS0_, symObjAddr: 0x34850, symBinAddr: 0x100037060, symSize: 0x30 }
  - { offsetInCU: 0x72154, offset: 0x72154, size: 0x8, addend: 0x0, symName: __ZN3vkb16SwapchainBuilderC1ERKNS_6DeviceEP14VkSurfaceKHR_T, symObjAddr: 0x34880, symBinAddr: 0x100037090, symSize: 0x30 }
  - { offsetInCU: 0x7219F, offset: 0x7219F, size: 0x8, addend: 0x0, symName: __ZN3vkb16SwapchainBuilderC2EP18VkPhysicalDevice_TP10VkDevice_TP14VkSurfaceKHR_Tjj, symObjAddr: 0x348B0, symBinAddr: 0x1000370C0, symSize: 0x6B0 }
  - { offsetInCU: 0x72239, offset: 0x72239, size: 0x8, addend: 0x0, symName: __ZN3vkb16SwapchainBuilderC1EP18VkPhysicalDevice_TP10VkDevice_TP14VkSurfaceKHR_Tjj, symObjAddr: 0x353D0, symBinAddr: 0x100037BE0, symSize: 0x50 }
  - { offsetInCU: 0x722B1, offset: 0x722B1, size: 0x8, addend: 0x0, symName: __ZNK3vkb16SwapchainBuilder5buildEv, symObjAddr: 0x35420, symBinAddr: 0x100037C30, symSize: 0x3AE0 }
  - { offsetInCU: 0x72486, offset: 0x72486, size: 0x8, addend: 0x0, symName: __ZNSt3__110error_codeC1B7v160006IN3vkb14SwapchainErrorEEET_PNS_9enable_ifIXsr18is_error_code_enumIS4_EE5valueEvE4typeE, symObjAddr: 0x38F00, symBinAddr: 0x10003B710, symSize: 0x30 }
  - { offsetInCU: 0x724D3, offset: 0x724D3, size: 0x8, addend: 0x0, symName: __ZN3vkb6ResultINS_9SwapchainEEC1ENS_5ErrorE, symObjAddr: 0x38F30, symBinAddr: 0x10003B740, symSize: 0x250 }
  - { offsetInCU: 0x72510, offset: 0x72510, size: 0x8, addend: 0x0, symName: __ZNKSt3__16vectorI18VkSurfaceFormatKHRNS_9allocatorIS1_EEE4sizeB7v160006Ev, symObjAddr: 0x39180, symBinAddr: 0x10003B990, symSize: 0x90 }
  - { offsetInCU: 0x72536, offset: 0x72536, size: 0x8, addend: 0x0, symName: __ZNK3vkb16SwapchainBuilder19add_desired_formatsERNSt3__16vectorI18VkSurfaceFormatKHRNS1_9allocatorIS3_EEEE, symObjAddr: 0x39210, symBinAddr: 0x10003BA20, symSize: 0x300 }
  - { offsetInCU: 0x72570, offset: 0x72570, size: 0x8, addend: 0x0, symName: __ZNKSt3__16vectorI16VkPresentModeKHRNS_9allocatorIS1_EEE4sizeB7v160006Ev, symObjAddr: 0x39510, symBinAddr: 0x10003BD20, symSize: 0x90 }
  - { offsetInCU: 0x72596, offset: 0x72596, size: 0x8, addend: 0x0, symName: __ZNK3vkb16SwapchainBuilder25add_desired_present_modesERNSt3__16vectorI16VkPresentModeKHRNS1_9allocatorIS3_EEEE, symObjAddr: 0x395A0, symBinAddr: 0x10003BDB0, symSize: 0x220 }
  - { offsetInCU: 0x725D0, offset: 0x725D0, size: 0x8, addend: 0x0, symName: __ZNK3vkb6ResultINS_6detail21SurfaceSupportDetailsEE9has_valueEv, symObjAddr: 0x397C0, symBinAddr: 0x10003BFD0, symSize: 0x70 }
  - { offsetInCU: 0x725F6, offset: 0x725F6, size: 0x8, addend: 0x0, symName: __ZNK3vkb6ResultINS_6detail21SurfaceSupportDetailsEE9vk_resultEv, symObjAddr: 0x39830, symBinAddr: 0x10003C040, symSize: 0xF0 }
  - { offsetInCU: 0x7261C, offset: 0x7261C, size: 0x8, addend: 0x0, symName: __ZNR3vkb6ResultINS_6detail21SurfaceSupportDetailsEE5valueEv, symObjAddr: 0x39920, symBinAddr: 0x10003C130, symSize: 0xC0 }
  - { offsetInCU: 0x72642, offset: 0x72642, size: 0x8, addend: 0x0, symName: __ZN3vkb6detail21SurfaceSupportDetailsC1ERKS1_, symObjAddr: 0x399E0, symBinAddr: 0x10003C1F0, symSize: 0x30 }
  - { offsetInCU: 0x72678, offset: 0x72678, size: 0x8, addend: 0x0, symName: __ZN3vkb6ResultINS_9SwapchainEEC1ENSt3__110error_codeE8VkResult, symObjAddr: 0x39A10, symBinAddr: 0x10003C220, symSize: 0x290 }
  - { offsetInCU: 0x726CE, offset: 0x726CE, size: 0x8, addend: 0x0, symName: '__ZZNK3vkb16SwapchainBuilder5buildEvENK3$_6clE16VkPresentModeKHR', symObjAddr: 0x39CA0, symBinAddr: 0x10003C4B0, symSize: 0x50 }
  - { offsetInCU: 0x72707, offset: 0x72707, size: 0x8, addend: 0x0, symName: __ZN3vkb9SwapchainC1Ev, symObjAddr: 0x39EE0, symBinAddr: 0x10003C6F0, symSize: 0x20 }
  - { offsetInCU: 0x72739, offset: 0x72739, size: 0x8, addend: 0x0, symName: __ZN3vkb6detail15VulkanFunctions20get_device_proc_addrIPF8VkResultP10VkDevice_TPK24VkSwapchainCreateInfoKHRPK21VkAllocationCallbacksPP16VkSwapchainKHR_TEEEvS5_RT_PKc, symObjAddr: 0x39F00, symBinAddr: 0x10003C710, symSize: 0xA0 }
  - { offsetInCU: 0x72797, offset: 0x72797, size: 0x8, addend: 0x0, symName: __ZN3vkb6detail15VulkanFunctions20get_device_proc_addrIPF8VkResultP10VkDevice_TP16VkSwapchainKHR_TPjPP9VkImage_TEEEvS5_RT_PKc, symObjAddr: 0x39FA0, symBinAddr: 0x10003C7B0, symSize: 0xA0 }
  - { offsetInCU: 0x727F5, offset: 0x727F5, size: 0x8, addend: 0x0, symName: __ZN3vkb6detail15VulkanFunctions20get_device_proc_addrIPF8VkResultP10VkDevice_TPK21VkImageViewCreateInfoPK21VkAllocationCallbacksPP13VkImageView_TEEEvS5_RT_PKc, symObjAddr: 0x3A040, symBinAddr: 0x10003C850, symSize: 0xA0 }
  - { offsetInCU: 0x72853, offset: 0x72853, size: 0x8, addend: 0x0, symName: __ZN3vkb6detail15VulkanFunctions20get_device_proc_addrIPFvP10VkDevice_TP13VkImageView_TPK21VkAllocationCallbacksEEEvS4_RT_PKc, symObjAddr: 0x3A0E0, symBinAddr: 0x10003C8F0, symSize: 0xA0 }
  - { offsetInCU: 0x728B1, offset: 0x728B1, size: 0x8, addend: 0x0, symName: __ZN3vkb6detail15VulkanFunctions20get_device_proc_addrIPFvP10VkDevice_TP16VkSwapchainKHR_TPK21VkAllocationCallbacksEEEvS4_RT_PKc, symObjAddr: 0x3A180, symBinAddr: 0x10003C990, symSize: 0xA0 }
  - { offsetInCU: 0x7290A, offset: 0x7290A, size: 0x8, addend: 0x0, symName: __ZN3vkb9Swapchain10get_imagesEv, symObjAddr: 0x3A220, symBinAddr: 0x10003CA30, symSize: 0x450 }
  - { offsetInCU: 0x72957, offset: 0x72957, size: 0x8, addend: 0x0, symName: __ZNK3vkb6ResultINSt3__16vectorIP9VkImage_TNS1_9allocatorIS4_EEEEEcvbEv, symObjAddr: 0x3A670, symBinAddr: 0x10003CE80, symSize: 0x70 }
  - { offsetInCU: 0x7297D, offset: 0x7297D, size: 0x8, addend: 0x0, symName: __ZNR3vkb6ResultINSt3__16vectorIP9VkImage_TNS1_9allocatorIS4_EEEEE5valueEv, symObjAddr: 0x3A6E0, symBinAddr: 0x10003CEF0, symSize: 0xC0 }
  - { offsetInCU: 0x729A3, offset: 0x729A3, size: 0x8, addend: 0x0, symName: __ZNKSt3__16vectorIP9VkImage_TNS_9allocatorIS2_EEE4sizeB7v160006Ev, symObjAddr: 0x3A7A0, symBinAddr: 0x10003CFB0, symSize: 0x90 }
  - { offsetInCU: 0x729C9, offset: 0x729C9, size: 0x8, addend: 0x0, symName: __ZN3vkb6ResultINS_9SwapchainEEC1EOS1_, symObjAddr: 0x3A830, symBinAddr: 0x10003D040, symSize: 0x30 }
  - { offsetInCU: 0x72A01, offset: 0x72A01, size: 0x8, addend: 0x0, symName: __ZN3vkb6ResultINSt3__16vectorIP9VkImage_TNS1_9allocatorIS4_EEEEED1Ev, symObjAddr: 0x3A860, symBinAddr: 0x10003D070, symSize: 0x20 }
  - { offsetInCU: 0x72A2B, offset: 0x72A2B, size: 0x8, addend: 0x0, symName: __ZN3vkb6ResultINS_6detail21SurfaceSupportDetailsEED1Ev, symObjAddr: 0x3A880, symBinAddr: 0x10003D090, symSize: 0x20 }
  - { offsetInCU: 0x72A55, offset: 0x72A55, size: 0x8, addend: 0x0, symName: __ZNSt3__16vectorIP9VkImage_TNS_9allocatorIS2_EEEC1B7v160006Ev, symObjAddr: 0x3A8A0, symBinAddr: 0x10003D0B0, symSize: 0x20 }
  - { offsetInCU: 0x72A7F, offset: 0x72A7F, size: 0x8, addend: 0x0, symName: __ZN3vkb6ResultINSt3__16vectorIP9VkImage_TNS1_9allocatorIS4_EEEEEC1ENS_5ErrorE, symObjAddr: 0x3AD90, symBinAddr: 0x10003D5A0, symSize: 0x250 }
  - { offsetInCU: 0x72ABC, offset: 0x72ABC, size: 0x8, addend: 0x0, symName: __ZN3vkb6ResultINSt3__16vectorIP9VkImage_TNS1_9allocatorIS4_EEEEEC1EOS7_, symObjAddr: 0x3AFE0, symBinAddr: 0x10003D7F0, symSize: 0x30 }
  - { offsetInCU: 0x72AF4, offset: 0x72AF4, size: 0x8, addend: 0x0, symName: __ZNSt3__16vectorIP9VkImage_TNS_9allocatorIS2_EEED1B7v160006Ev, symObjAddr: 0x3B010, symBinAddr: 0x10003D820, symSize: 0x20 }
  - { offsetInCU: 0x72B1E, offset: 0x72B1E, size: 0x8, addend: 0x0, symName: __ZN3vkb9Swapchain15get_image_viewsEv, symObjAddr: 0x3B030, symBinAddr: 0x10003D840, symSize: 0x30 }
  - { offsetInCU: 0x72B47, offset: 0x72B47, size: 0x8, addend: 0x0, symName: __ZN3vkb9Swapchain15get_image_viewsEPKv, symObjAddr: 0x3B060, symBinAddr: 0x10003D870, symSize: 0x1310 }
  - { offsetInCU: 0x72C1C, offset: 0x72C1C, size: 0x8, addend: 0x0, symName: __ZNK3vkb6ResultINSt3__16vectorIP9VkImage_TNS1_9allocatorIS4_EEEEE5errorEv, symObjAddr: 0x3C370, symBinAddr: 0x10003EB80, symSize: 0x220 }
  - { offsetInCU: 0x72C43, offset: 0x72C43, size: 0x8, addend: 0x0, symName: __ZN3vkb6ResultINSt3__16vectorIP13VkImageView_TNS1_9allocatorIS4_EEEEEC1ENS1_10error_codeE8VkResult, symObjAddr: 0x3C590, symBinAddr: 0x10003EDA0, symSize: 0x290 }
  - { offsetInCU: 0x72C8F, offset: 0x72C8F, size: 0x8, addend: 0x0, symName: __ZNKR3vkb6ResultINSt3__16vectorIP9VkImage_TNS1_9allocatorIS4_EEEEE5valueEv, symObjAddr: 0x3C820, symBinAddr: 0x10003F030, symSize: 0xC0 }
  - { offsetInCU: 0x72CB5, offset: 0x72CB5, size: 0x8, addend: 0x0, symName: __ZNSt3__16vectorIP13VkImageView_TNS_9allocatorIS2_EEEC1Em, symObjAddr: 0x3C8E0, symBinAddr: 0x10003F0F0, symSize: 0x30 }
  - { offsetInCU: 0x72CF0, offset: 0x72CF0, size: 0x8, addend: 0x0, symName: __ZNKSt3__16vectorIP9VkImage_TNS_9allocatorIS2_EEEixB7v160006Em, symObjAddr: 0x3C910, symBinAddr: 0x10003F120, symSize: 0x60 }
  - { offsetInCU: 0x72D27, offset: 0x72D27, size: 0x8, addend: 0x0, symName: __ZNSt3__16vectorIP13VkImageView_TNS_9allocatorIS2_EEEixB7v160006Em, symObjAddr: 0x3C970, symBinAddr: 0x10003F180, symSize: 0x60 }
  - { offsetInCU: 0x72D5E, offset: 0x72D5E, size: 0x8, addend: 0x0, symName: __ZN3vkb6ResultINSt3__16vectorIP13VkImageView_TNS1_9allocatorIS4_EEEEEC1ENS_5ErrorE, symObjAddr: 0x3C9D0, symBinAddr: 0x10003F1E0, symSize: 0x250 }
  - { offsetInCU: 0x72D9B, offset: 0x72D9B, size: 0x8, addend: 0x0, symName: __ZN3vkb6ResultINSt3__16vectorIP13VkImageView_TNS1_9allocatorIS4_EEEEEC1EOS7_, symObjAddr: 0x3CC20, symBinAddr: 0x10003F430, symSize: 0x30 }
  - { offsetInCU: 0x72DD3, offset: 0x72DD3, size: 0x8, addend: 0x0, symName: __ZNSt3__16vectorIP13VkImageView_TNS_9allocatorIS2_EEED1B7v160006Ev, symObjAddr: 0x3CC50, symBinAddr: 0x10003F460, symSize: 0x20 }
  - { offsetInCU: 0x72DFD, offset: 0x72DFD, size: 0x8, addend: 0x0, symName: __ZN3vkb9Swapchain19destroy_image_viewsERKNSt3__16vectorIP13VkImageView_TNS1_9allocatorIS4_EEEE, symObjAddr: 0x3CC70, symBinAddr: 0x10003F480, symSize: 0x380 }
  - { offsetInCU: 0x72E90, offset: 0x72E90, size: 0x8, addend: 0x0, symName: __ZNKSt3__16vectorIP13VkImageView_TNS_9allocatorIS2_EEE5beginB7v160006Ev, symObjAddr: 0x3CFF0, symBinAddr: 0x10003F800, symSize: 0x1E0 }
  - { offsetInCU: 0x72EB9, offset: 0x72EB9, size: 0x8, addend: 0x0, symName: __ZNKSt3__16vectorIP13VkImageView_TNS_9allocatorIS2_EEE3endB7v160006Ev, symObjAddr: 0x3D1D0, symBinAddr: 0x10003F9E0, symSize: 0x1F0 }
  - { offsetInCU: 0x72EE2, offset: 0x72EE2, size: 0x8, addend: 0x0, symName: __ZNKSt3__111__wrap_iterIPKP13VkImageView_TEdeB7v160006Ev, symObjAddr: 0x3D3F0, symBinAddr: 0x10003FC00, symSize: 0x50 }
  - { offsetInCU: 0x72F08, offset: 0x72F08, size: 0x8, addend: 0x0, symName: __ZNSt3__111__wrap_iterIPKP13VkImageView_TEppB7v160006Ev, symObjAddr: 0x3D440, symBinAddr: 0x10003FC50, symSize: 0x50 }
  - { offsetInCU: 0x72F2E, offset: 0x72F2E, size: 0x8, addend: 0x0, symName: __ZNK3vkb9SwapchaincvP16VkSwapchainKHR_TEv, symObjAddr: 0x3D490, symBinAddr: 0x10003FCA0, symSize: 0x50 }
  - { offsetInCU: 0x72F57, offset: 0x72F57, size: 0x8, addend: 0x0, symName: __ZN3vkb16SwapchainBuilder17set_old_swapchainEP16VkSwapchainKHR_T, symObjAddr: 0x3D4E0, symBinAddr: 0x10003FCF0, symSize: 0x70 }
  - { offsetInCU: 0x72F8F, offset: 0x72F8F, size: 0x8, addend: 0x0, symName: __ZN3vkb16SwapchainBuilder17set_old_swapchainERKNS_9SwapchainE, symObjAddr: 0x3D550, symBinAddr: 0x10003FD60, symSize: 0xA0 }
  - { offsetInCU: 0x72FC7, offset: 0x72FC7, size: 0x8, addend: 0x0, symName: __ZN3vkb16SwapchainBuilder18set_desired_extentEjj, symObjAddr: 0x3D5F0, symBinAddr: 0x10003FE00, symSize: 0xE0 }
  - { offsetInCU: 0x7300E, offset: 0x7300E, size: 0x8, addend: 0x0, symName: __ZN3vkb16SwapchainBuilder18set_desired_formatE18VkSurfaceFormatKHR, symObjAddr: 0x3D6D0, symBinAddr: 0x10003FEE0, symSize: 0x370 }
  - { offsetInCU: 0x7304B, offset: 0x7304B, size: 0x8, addend: 0x0, symName: __ZNSt3__16vectorI18VkSurfaceFormatKHRNS_9allocatorIS1_EEE6insertENS_11__wrap_iterIPKS1_EERS6_, symObjAddr: 0x3DA40, symBinAddr: 0x100040250, symSize: 0x7D0 }
  - { offsetInCU: 0x730EF, offset: 0x730EF, size: 0x8, addend: 0x0, symName: __ZNSt3__16vectorI18VkSurfaceFormatKHRNS_9allocatorIS1_EEE5beginB7v160006Ev, symObjAddr: 0x3E210, symBinAddr: 0x100040A20, symSize: 0x1E0 }
  - { offsetInCU: 0x7311D, offset: 0x7311D, size: 0x8, addend: 0x0, symName: __ZNSt3__111__wrap_iterIPK18VkSurfaceFormatKHREC1B7v160006IPS1_EERKNS0_IT_EEPNS_9enable_ifIXsr14is_convertibleIS7_S3_EE5valueEvE4typeE, symObjAddr: 0x3E3F0, symBinAddr: 0x100040C00, symSize: 0x30 }
  - { offsetInCU: 0x73169, offset: 0x73169, size: 0x8, addend: 0x0, symName: __ZN3vkb16SwapchainBuilder19add_fallback_formatE18VkSurfaceFormatKHR, symObjAddr: 0x3E420, symBinAddr: 0x100040C30, symSize: 0x200 }
  - { offsetInCU: 0x731A6, offset: 0x731A6, size: 0x8, addend: 0x0, symName: __ZNSt3__16vectorI18VkSurfaceFormatKHRNS_9allocatorIS1_EEE9push_backB7v160006ERKS1_, symObjAddr: 0x3E620, symBinAddr: 0x100040E30, symSize: 0xC0 }
  - { offsetInCU: 0x731DD, offset: 0x731DD, size: 0x8, addend: 0x0, symName: __ZN3vkb16SwapchainBuilder28use_default_format_selectionEv, symObjAddr: 0x3E6E0, symBinAddr: 0x100040EF0, symSize: 0x40 }
  - { offsetInCU: 0x73206, offset: 0x73206, size: 0x8, addend: 0x0, symName: __ZNSt3__16vectorI18VkSurfaceFormatKHRNS_9allocatorIS1_EEE5clearB7v160006Ev, symObjAddr: 0x3E720, symBinAddr: 0x100040F30, symSize: 0x50 }
  - { offsetInCU: 0x7323B, offset: 0x7323B, size: 0x8, addend: 0x0, symName: __ZN3vkb16SwapchainBuilder24set_desired_present_modeE16VkPresentModeKHR, symObjAddr: 0x3E770, symBinAddr: 0x100040F80, symSize: 0x310 }
  - { offsetInCU: 0x73278, offset: 0x73278, size: 0x8, addend: 0x0, symName: __ZNSt3__16vectorI16VkPresentModeKHRNS_9allocatorIS1_EEE6insertENS_11__wrap_iterIPKS1_EERS6_, symObjAddr: 0x3EA80, symBinAddr: 0x100041290, symSize: 0x880 }
  - { offsetInCU: 0x7331C, offset: 0x7331C, size: 0x8, addend: 0x0, symName: __ZNSt3__16vectorI16VkPresentModeKHRNS_9allocatorIS1_EEE5beginB7v160006Ev, symObjAddr: 0x3F300, symBinAddr: 0x100041B10, symSize: 0x1E0 }
  - { offsetInCU: 0x7334A, offset: 0x7334A, size: 0x8, addend: 0x0, symName: __ZNSt3__111__wrap_iterIPK16VkPresentModeKHREC1B7v160006IPS1_EERKNS0_IT_EEPNS_9enable_ifIXsr14is_convertibleIS7_S3_EE5valueEvE4typeE, symObjAddr: 0x3F4E0, symBinAddr: 0x100041CF0, symSize: 0x30 }
  - { offsetInCU: 0x73396, offset: 0x73396, size: 0x8, addend: 0x0, symName: __ZN3vkb16SwapchainBuilder25add_fallback_present_modeE16VkPresentModeKHR, symObjAddr: 0x3F510, symBinAddr: 0x100041D20, symSize: 0x1A0 }
  - { offsetInCU: 0x733D3, offset: 0x733D3, size: 0x8, addend: 0x0, symName: __ZNSt3__16vectorI16VkPresentModeKHRNS_9allocatorIS1_EEE9push_backB7v160006ERKS1_, symObjAddr: 0x3F6B0, symBinAddr: 0x100041EC0, symSize: 0xC0 }
  - { offsetInCU: 0x7340A, offset: 0x7340A, size: 0x8, addend: 0x0, symName: __ZN3vkb16SwapchainBuilder34use_default_present_mode_selectionEv, symObjAddr: 0x3F770, symBinAddr: 0x100041F80, symSize: 0x40 }
  - { offsetInCU: 0x73433, offset: 0x73433, size: 0x8, addend: 0x0, symName: __ZNSt3__16vectorI16VkPresentModeKHRNS_9allocatorIS1_EEE5clearB7v160006Ev, symObjAddr: 0x3F7B0, symBinAddr: 0x100041FC0, symSize: 0x50 }
  - { offsetInCU: 0x73468, offset: 0x73468, size: 0x8, addend: 0x0, symName: __ZN3vkb16SwapchainBuilder24set_allocation_callbacksEP21VkAllocationCallbacks, symObjAddr: 0x3F800, symBinAddr: 0x100042010, symSize: 0x70 }
  - { offsetInCU: 0x734A0, offset: 0x734A0, size: 0x8, addend: 0x0, symName: __ZN3vkb16SwapchainBuilder21set_image_usage_flagsEj, symObjAddr: 0x3F870, symBinAddr: 0x100042080, symSize: 0x80 }
  - { offsetInCU: 0x734D8, offset: 0x734D8, size: 0x8, addend: 0x0, symName: __ZN3vkb16SwapchainBuilder21add_image_usage_flagsEj, symObjAddr: 0x3F8F0, symBinAddr: 0x100042100, symSize: 0xD0 }
  - { offsetInCU: 0x73510, offset: 0x73510, size: 0x8, addend: 0x0, symName: __ZN3vkb16SwapchainBuilder29use_default_image_usage_flagsEv, symObjAddr: 0x3F9C0, symBinAddr: 0x1000421D0, symSize: 0x70 }
  - { offsetInCU: 0x73539, offset: 0x73539, size: 0x8, addend: 0x0, symName: __ZN3vkb16SwapchainBuilder27set_image_array_layer_countEj, symObjAddr: 0x3FA30, symBinAddr: 0x100042240, symSize: 0x80 }
  - { offsetInCU: 0x73571, offset: 0x73571, size: 0x8, addend: 0x0, symName: __ZN3vkb16SwapchainBuilder27set_desired_min_image_countEj, symObjAddr: 0x3FAB0, symBinAddr: 0x1000422C0, symSize: 0x80 }
  - { offsetInCU: 0x735A9, offset: 0x735A9, size: 0x8, addend: 0x0, symName: __ZN3vkb16SwapchainBuilder28set_required_min_image_countEj, symObjAddr: 0x3FB30, symBinAddr: 0x100042340, symSize: 0x80 }
  - { offsetInCU: 0x735E1, offset: 0x735E1, size: 0x8, addend: 0x0, symName: __ZN3vkb16SwapchainBuilder11set_clippedEb, symObjAddr: 0x3FBB0, symBinAddr: 0x1000423C0, symSize: 0x80 }
  - { offsetInCU: 0x73619, offset: 0x73619, size: 0x8, addend: 0x0, symName: __ZN3vkb16SwapchainBuilder16set_create_flagsE28VkSwapchainCreateFlagBitsKHR, symObjAddr: 0x3FC30, symBinAddr: 0x100042440, symSize: 0x80 }
  - { offsetInCU: 0x73651, offset: 0x73651, size: 0x8, addend: 0x0, symName: __ZN3vkb16SwapchainBuilder23set_pre_transform_flagsE29VkSurfaceTransformFlagBitsKHR, symObjAddr: 0x3FCB0, symBinAddr: 0x1000424C0, symSize: 0x80 }
  - { offsetInCU: 0x73689, offset: 0x73689, size: 0x8, addend: 0x0, symName: __ZN3vkb16SwapchainBuilder25set_composite_alpha_flagsE27VkCompositeAlphaFlagBitsKHR, symObjAddr: 0x3FD30, symBinAddr: 0x100042540, symSize: 0x80 }
  - { offsetInCU: 0x736C1, offset: 0x736C1, size: 0x8, addend: 0x0, symName: __ZNSt3__16vectorI18VkSurfaceFormatKHRNS_9allocatorIS1_EEE9push_backB7v160006EOS1_, symObjAddr: 0x3FDB0, symBinAddr: 0x1000425C0, symSize: 0xC0 }
  - { offsetInCU: 0x736F8, offset: 0x736F8, size: 0x8, addend: 0x0, symName: __ZNSt3__16vectorI16VkPresentModeKHRNS_9allocatorIS1_EEE9push_backB7v160006EOS1_, symObjAddr: 0x3FE70, symBinAddr: 0x100042680, symSize: 0xC0 }
  - { offsetInCU: 0x7372F, offset: 0x7372F, size: 0x8, addend: 0x0, symName: __Z18heph_renderer_initP12HephRendererRKNSt3__112basic_stringIcNS1_11char_traitsIcEENS1_9allocatorIcEEEEii, symObjAddr: 0x3FF30, symBinAddr: 0x100042740, symSize: 0x130 }
  - { offsetInCU: 0x73782, offset: 0x73782, size: 0x8, addend: 0x0, symName: __Z27heph_renderer_init_instanceP12HephRenderer, symObjAddr: 0x40060, symBinAddr: 0x100042870, symSize: 0x730 }
  - { offsetInCU: 0x737D1, offset: 0x737D1, size: 0x8, addend: 0x0, symName: __Z25heph_renderer_init_windowP12HephRendererRKNSt3__112basic_stringIcNS1_11char_traitsIcEENS1_9allocatorIcEEEE, symObjAddr: 0x40790, symBinAddr: 0x100042FA0, symSize: 0x1D0 }
  - { offsetInCU: 0x73808, offset: 0x73808, size: 0x8, addend: 0x0, symName: __Z26heph_renderer_init_surfaceP12HephRenderer, symObjAddr: 0x40960, symBinAddr: 0x100043170, symSize: 0x130 }
  - { offsetInCU: 0x73831, offset: 0x73831, size: 0x8, addend: 0x0, symName: __Z26heph_renderer_init_pdeviceP12HephRenderer, symObjAddr: 0x40A90, symBinAddr: 0x1000432A0, symSize: 0x730 }
  - { offsetInCU: 0x73880, offset: 0x73880, size: 0x8, addend: 0x0, symName: __Z26heph_renderer_init_ldeviceP12HephRenderer, symObjAddr: 0x411C0, symBinAddr: 0x1000439D0, symSize: 0x760 }
  - { offsetInCU: 0x738CF, offset: 0x738CF, size: 0x8, addend: 0x0, symName: __Z24heph_renderer_init_queueP12HephRenderer, symObjAddr: 0x41920, symBinAddr: 0x100044130, symSize: 0x540 }
  - { offsetInCU: 0x73992, offset: 0x73992, size: 0x8, addend: 0x0, symName: __Z28heph_renderer_init_swapchainP12HephRenderer, symObjAddr: 0x41E60, symBinAddr: 0x100044670, symSize: 0x700 }
  - { offsetInCU: 0x739E1, offset: 0x739E1, size: 0x8, addend: 0x0, symName: __Z31heph_renderer_init_command_poolP12HephRenderer, symObjAddr: 0x42560, symBinAddr: 0x100044D70, symSize: 0x3B0 }
  - { offsetInCU: 0x73A1D, offset: 0x73A1D, size: 0x8, addend: 0x0, symName: __Z38heph_renderer_allocate_command_buffersP12HephRenderer, symObjAddr: 0x42910, symBinAddr: 0x100045120, symSize: 0x3E0 }
  - { offsetInCU: 0x73A58, offset: 0x73A58, size: 0x8, addend: 0x0, symName: __Z34heph_renderer_init_sync_structuresP12HephRenderer, symObjAddr: 0x42CF0, symBinAddr: 0x100045500, symSize: 0x450 }
  - { offsetInCU: 0x73AAA, offset: 0x73AAA, size: 0x8, addend: 0x0, symName: __ZNK3vkb6ResultINS_8InstanceEEcvbEv, symObjAddr: 0x43140, symBinAddr: 0x100045950, symSize: 0x70 }
  - { offsetInCU: 0x73AD0, offset: 0x73AD0, size: 0x8, addend: 0x0, symName: __ZNK3vkb6ResultINS_8InstanceEE5errorEv, symObjAddr: 0x431B0, symBinAddr: 0x1000459C0, symSize: 0x220 }
  - { offsetInCU: 0x73AF7, offset: 0x73AF7, size: 0x8, addend: 0x0, symName: __ZNR3vkb6ResultINS_8InstanceEE5valueEv, symObjAddr: 0x433D0, symBinAddr: 0x100045BE0, symSize: 0xC0 }
  - { offsetInCU: 0x73B1D, offset: 0x73B1D, size: 0x8, addend: 0x0, symName: __ZN3vkb6ResultINS_8InstanceEED1Ev, symObjAddr: 0x43490, symBinAddr: 0x100045CA0, symSize: 0x20 }
  - { offsetInCU: 0x73B47, offset: 0x73B47, size: 0x8, addend: 0x0, symName: __ZN3vkb15InstanceBuilderD1Ev, symObjAddr: 0x434B0, symBinAddr: 0x100045CC0, symSize: 0x20 }
  - { offsetInCU: 0x73B74, offset: 0x73B74, size: 0x8, addend: 0x0, symName: __ZNK3vkb6ResultINS_14PhysicalDeviceEEcvbEv, symObjAddr: 0x434D0, symBinAddr: 0x100045CE0, symSize: 0x70 }
  - { offsetInCU: 0x73B9A, offset: 0x73B9A, size: 0x8, addend: 0x0, symName: __ZNK3vkb6ResultINS_14PhysicalDeviceEE5errorEv, symObjAddr: 0x43540, symBinAddr: 0x100045D50, symSize: 0x220 }
  - { offsetInCU: 0x73BC1, offset: 0x73BC1, size: 0x8, addend: 0x0, symName: __ZNR3vkb6ResultINS_14PhysicalDeviceEE5valueEv, symObjAddr: 0x43760, symBinAddr: 0x100045F70, symSize: 0xC0 }
  - { offsetInCU: 0x73BE7, offset: 0x73BE7, size: 0x8, addend: 0x0, symName: __ZN3vkb6ResultINS_14PhysicalDeviceEED1Ev, symObjAddr: 0x43820, symBinAddr: 0x100046030, symSize: 0x20 }
  - { offsetInCU: 0x73C11, offset: 0x73C11, size: 0x8, addend: 0x0, symName: __ZN3vkb22PhysicalDeviceSelectorD1Ev, symObjAddr: 0x43840, symBinAddr: 0x100046050, symSize: 0x20 }
  - { offsetInCU: 0x73C3E, offset: 0x73C3E, size: 0x8, addend: 0x0, symName: __ZNK3vkb6ResultINS_6DeviceEEcvbEv, symObjAddr: 0x43860, symBinAddr: 0x100046070, symSize: 0x70 }
  - { offsetInCU: 0x73C64, offset: 0x73C64, size: 0x8, addend: 0x0, symName: __ZNK3vkb6ResultINS_6DeviceEE5errorEv, symObjAddr: 0x438D0, symBinAddr: 0x1000460E0, symSize: 0x220 }
  - { offsetInCU: 0x73C8B, offset: 0x73C8B, size: 0x8, addend: 0x0, symName: __ZNR3vkb6ResultINS_6DeviceEE5valueEv, symObjAddr: 0x43AF0, symBinAddr: 0x100046300, symSize: 0xC0 }
  - { offsetInCU: 0x73CB1, offset: 0x73CB1, size: 0x8, addend: 0x0, symName: __ZN3vkb6DeviceaSERKS0_, symObjAddr: 0x43BB0, symBinAddr: 0x1000463C0, symSize: 0x160 }
  - { offsetInCU: 0x73CE3, offset: 0x73CE3, size: 0x8, addend: 0x0, symName: __ZN3vkb6ResultINS_6DeviceEED1Ev, symObjAddr: 0x43D10, symBinAddr: 0x100046520, symSize: 0x20 }
  - { offsetInCU: 0x73D0D, offset: 0x73D0D, size: 0x8, addend: 0x0, symName: __ZN3vkb13DeviceBuilderD1Ev, symObjAddr: 0x43D30, symBinAddr: 0x100046540, symSize: 0x20 }
  - { offsetInCU: 0x73D3A, offset: 0x73D3A, size: 0x8, addend: 0x0, symName: __ZNSt3__16vectorI23VkQueueFamilyPropertiesNS_9allocatorIS1_EEE5beginB7v160006Ev, symObjAddr: 0x43D50, symBinAddr: 0x100046560, symSize: 0x1E0 }
  - { offsetInCU: 0x73D63, offset: 0x73D63, size: 0x8, addend: 0x0, symName: __ZNSt3__16vectorI23VkQueueFamilyPropertiesNS_9allocatorIS1_EEE3endB7v160006Ev, symObjAddr: 0x43F30, symBinAddr: 0x100046740, symSize: 0x1F0 }
  - { offsetInCU: 0x73D8C, offset: 0x73D8C, size: 0x8, addend: 0x0, symName: __ZNKSt3__111__wrap_iterIP23VkQueueFamilyPropertiesEdeB7v160006Ev, symObjAddr: 0x44150, symBinAddr: 0x100046960, symSize: 0x50 }
  - { offsetInCU: 0x73DB2, offset: 0x73DB2, size: 0x8, addend: 0x0, symName: __ZNSt3__111__wrap_iterIP23VkQueueFamilyPropertiesEppB7v160006Ev, symObjAddr: 0x441A0, symBinAddr: 0x1000469B0, symSize: 0x50 }
  - { offsetInCU: 0x73DD8, offset: 0x73DD8, size: 0x8, addend: 0x0, symName: __ZNK3vkb6ResultINS_9SwapchainEEcvbEv, symObjAddr: 0x441F0, symBinAddr: 0x100046A00, symSize: 0x70 }
  - { offsetInCU: 0x73DFE, offset: 0x73DFE, size: 0x8, addend: 0x0, symName: __ZNK3vkb6ResultINS_9SwapchainEE5errorEv, symObjAddr: 0x44260, symBinAddr: 0x100046A70, symSize: 0x220 }
  - { offsetInCU: 0x73E25, offset: 0x73E25, size: 0x8, addend: 0x0, symName: __ZNR3vkb6ResultINS_9SwapchainEE5valueEv, symObjAddr: 0x44480, symBinAddr: 0x100046C90, symSize: 0xC0 }
  - { offsetInCU: 0x73E4B, offset: 0x73E4B, size: 0x8, addend: 0x0, symName: __ZN3vkb6ResultINS_9SwapchainEED1Ev, symObjAddr: 0x44540, symBinAddr: 0x100046D50, symSize: 0x20 }
  - { offsetInCU: 0x73E75, offset: 0x73E75, size: 0x8, addend: 0x0, symName: __ZN3vkb16SwapchainBuilderD1Ev, symObjAddr: 0x44560, symBinAddr: 0x100046D70, symSize: 0x20 }
  - { offsetInCU: 0x73EA2, offset: 0x73EA2, size: 0x8, addend: 0x0, symName: __Z37heph_renderer_swapchain_aquire_imagesP12HephRenderer, symObjAddr: 0x44580, symBinAddr: 0x100046D90, symSize: 0x330 }
  - { offsetInCU: 0x73ECB, offset: 0x73ECB, size: 0x8, addend: 0x0, symName: __Z34heph_renderer_allocate_data_bufferP12HephRenderer, symObjAddr: 0x448B0, symBinAddr: 0x1000470C0, symSize: 0xAA0 }
  - { offsetInCU: 0x73F4C, offset: 0x73F4C, size: 0x8, addend: 0x0, symName: __ZL30get_buffer_memory_requirementsP10VkDevice_TP10VkBuffer_TR21VkMemoryRequirements2, symObjAddr: 0x454F0, symBinAddr: 0x100047D00, symSize: 0x2B0 }
  - { offsetInCU: 0x73FA5, offset: 0x73FA5, size: 0x8, addend: 0x0, symName: __ZL21get_memory_type_indexP18VkPhysicalDevice_T, symObjAddr: 0x457A0, symBinAddr: 0x100047FB0, symSize: 0x3E0 }
  - { offsetInCU: 0x74049, offset: 0x74049, size: 0x8, addend: 0x0, symName: __Z28heph_renderer_load_mesh_dataP12HephRenderer, symObjAddr: 0x45B80, symBinAddr: 0x100048390, symSize: 0x4C0 }
  - { offsetInCU: 0x74087, offset: 0x74087, size: 0x8, addend: 0x0, symName: __Z31heph_renderer_rebuild_swapchainP12HephRendererii, symObjAddr: 0x46040, symBinAddr: 0x100048850, symSize: 0x7D0 }
  - { offsetInCU: 0x740F9, offset: 0x740F9, size: 0x8, addend: 0x0, symName: __Z26heph_renderer_setup_renderP12HephRenderer, symObjAddr: 0x46810, symBinAddr: 0x100049020, symSize: 0x10 }
  - { offsetInCU: 0x74123, offset: 0x74123, size: 0x8, addend: 0x0, symName: __Z26heph_renderer_render_frameP12HephRenderer, symObjAddr: 0x46820, symBinAddr: 0x100049030, symSize: 0x12C0 }
  - { offsetInCU: 0x741FB, offset: 0x741FB, size: 0x8, addend: 0x0, symName: __Z21heph_renderer_destroyP12HephRenderer, symObjAddr: 0x47AE0, symBinAddr: 0x10004A2F0, symSize: 0x320 }
  - { offsetInCU: 0x74226, offset: 0x74226, size: 0x8, addend: 0x0, symName: __Z15hephaestus_initP10Hephaestus, symObjAddr: 0x47E00, symBinAddr: 0x10004A610, symSize: 0x2F0 }
  - { offsetInCU: 0x74250, offset: 0x74250, size: 0x8, addend: 0x0, symName: __Z14hephaestus_runP10Hephaestus, symObjAddr: 0x480F0, symBinAddr: 0x10004A900, symSize: 0x780 }
  - { offsetInCU: 0x742DE, offset: 0x742DE, size: 0x8, addend: 0x0, symName: __ZNSt3__16chrono8durationIxNS_5ratioILl1ELl1000EEEEC1B7v160006IiEERKT_PNS_9enable_ifIXaasr14is_convertibleIS8_xEE5valueooL_ZNS_17integral_constantIbLb0EE5valueEEntsr23treat_as_floating_pointIS6_EE5valueEvE4typeE, symObjAddr: 0x48BE0, symBinAddr: 0x10004B3F0, symSize: 0x30 }
  - { offsetInCU: 0x7432A, offset: 0x7432A, size: 0x8, addend: 0x0, symName: __Z19hephaestus_shutdownP10Hephaestus, symObjAddr: 0x48C10, symBinAddr: 0x10004B420, symSize: 0x90 }
  - { offsetInCU: 0x74353, offset: 0x74353, size: 0x8, addend: 0x0, symName: _main, symObjAddr: 0x48CA0, symBinAddr: 0x10004B4B0, symSize: 0x370 }
  - { offsetInCU: 0x74393, offset: 0x74393, size: 0x8, addend: 0x0, symName: __ZN3vkb6detail21InstanceErrorCategoryD0Ev, symObjAddr: 0x49010, symBinAddr: 0x10004B820, symSize: 0x30 }
  - { offsetInCU: 0x743C0, offset: 0x743C0, size: 0x8, addend: 0x0, symName: __ZNK3vkb6detail21InstanceErrorCategory4nameEv, symObjAddr: 0x49040, symBinAddr: 0x10004B850, symSize: 0x20 }
  - { offsetInCU: 0x743E6, offset: 0x743E6, size: 0x8, addend: 0x0, symName: __ZNK3vkb6detail21InstanceErrorCategory7messageEi, symObjAddr: 0x49060, symBinAddr: 0x10004B870, symSize: 0x40 }
  - { offsetInCU: 0x7441B, offset: 0x7441B, size: 0x8, addend: 0x0, symName: __ZN3vkb6detail27PhysicalDeviceErrorCategoryD0Ev, symObjAddr: 0x490A0, symBinAddr: 0x10004B8B0, symSize: 0x30 }
  - { offsetInCU: 0x74448, offset: 0x74448, size: 0x8, addend: 0x0, symName: __ZNK3vkb6detail27PhysicalDeviceErrorCategory4nameEv, symObjAddr: 0x490D0, symBinAddr: 0x10004B8E0, symSize: 0x20 }
  - { offsetInCU: 0x7446E, offset: 0x7446E, size: 0x8, addend: 0x0, symName: __ZNK3vkb6detail27PhysicalDeviceErrorCategory7messageEi, symObjAddr: 0x490F0, symBinAddr: 0x10004B900, symSize: 0x40 }
  - { offsetInCU: 0x744A3, offset: 0x744A3, size: 0x8, addend: 0x0, symName: __ZN3vkb6detail18QueueErrorCategoryD0Ev, symObjAddr: 0x49130, symBinAddr: 0x10004B940, symSize: 0x30 }
  - { offsetInCU: 0x744D0, offset: 0x744D0, size: 0x8, addend: 0x0, symName: __ZNK3vkb6detail18QueueErrorCategory4nameEv, symObjAddr: 0x49160, symBinAddr: 0x10004B970, symSize: 0x20 }
  - { offsetInCU: 0x744F6, offset: 0x744F6, size: 0x8, addend: 0x0, symName: __ZNK3vkb6detail18QueueErrorCategory7messageEi, symObjAddr: 0x49180, symBinAddr: 0x10004B990, symSize: 0x40 }
  - { offsetInCU: 0x7452B, offset: 0x7452B, size: 0x8, addend: 0x0, symName: __ZN3vkb6detail19DeviceErrorCategoryD0Ev, symObjAddr: 0x491C0, symBinAddr: 0x10004B9D0, symSize: 0x30 }
  - { offsetInCU: 0x74558, offset: 0x74558, size: 0x8, addend: 0x0, symName: __ZNK3vkb6detail19DeviceErrorCategory4nameEv, symObjAddr: 0x491F0, symBinAddr: 0x10004BA00, symSize: 0x20 }
  - { offsetInCU: 0x7457E, offset: 0x7457E, size: 0x8, addend: 0x0, symName: __ZNK3vkb6detail19DeviceErrorCategory7messageEi, symObjAddr: 0x49210, symBinAddr: 0x10004BA20, symSize: 0x40 }
  - { offsetInCU: 0x745B3, offset: 0x745B3, size: 0x8, addend: 0x0, symName: __ZN3vkb6detail22SwapchainErrorCategoryD0Ev, symObjAddr: 0x49250, symBinAddr: 0x10004BA60, symSize: 0x30 }
  - { offsetInCU: 0x745E0, offset: 0x745E0, size: 0x8, addend: 0x0, symName: __ZNK3vkb6detail22SwapchainErrorCategory4nameEv, symObjAddr: 0x49280, symBinAddr: 0x10004BA90, symSize: 0x20 }
  - { offsetInCU: 0x74606, offset: 0x74606, size: 0x8, addend: 0x0, symName: __ZNK3vkb6detail22SwapchainErrorCategory7messageEi, symObjAddr: 0x492A0, symBinAddr: 0x10004BAB0, symSize: 0x40 }
  - { offsetInCU: 0x7463B, offset: 0x7463B, size: 0x8, addend: 0x0, symName: __ZN3vkb6detail27SurfaceSupportErrorCategoryD0Ev, symObjAddr: 0x492E0, symBinAddr: 0x10004BAF0, symSize: 0x30 }
  - { offsetInCU: 0x74668, offset: 0x74668, size: 0x8, addend: 0x0, symName: __ZNK3vkb6detail27SurfaceSupportErrorCategory4nameEv, symObjAddr: 0x49310, symBinAddr: 0x10004BB20, symSize: 0x20 }
  - { offsetInCU: 0x7468E, offset: 0x7468E, size: 0x8, addend: 0x0, symName: __ZNK3vkb6detail27SurfaceSupportErrorCategory7messageEi, symObjAddr: 0x49330, symBinAddr: 0x10004BB40, symSize: 0xE0 }
  - { offsetInCU: 0x746C3, offset: 0x746C3, size: 0x8, addend: 0x0, symName: __ZNKSt3__112basic_stringIcNS_11char_traitsIcEENS_9allocatorIcEEE4dataB7v160006Ev, symObjAddr: 0x49410, symBinAddr: 0x10004BC20, symSize: 0x30 }
  - { offsetInCU: 0x746E9, offset: 0x746E9, size: 0x8, addend: 0x0, symName: __ZNKSt3__112basic_stringIcNS_11char_traitsIcEENS_9allocatorIcEEE13__get_pointerB7v160006Ev, symObjAddr: 0x49450, symBinAddr: 0x10004BC60, symSize: 0x50 }
  - { offsetInCU: 0x7470F, offset: 0x7470F, size: 0x8, addend: 0x0, symName: __ZNKSt3__112basic_stringIcNS_11char_traitsIcEENS_9allocatorIcEEE9__is_longB7v160006Ev, symObjAddr: 0x494A0, symBinAddr: 0x10004BCB0, symSize: 0x70 }
  - { offsetInCU: 0x74735, offset: 0x74735, size: 0x8, addend: 0x0, symName: __ZNKSt3__112basic_stringIcNS_11char_traitsIcEENS_9allocatorIcEEE18__get_long_pointerB7v160006Ev, symObjAddr: 0x49510, symBinAddr: 0x10004BD20, symSize: 0x50 }
  - { offsetInCU: 0x7475B, offset: 0x7475B, size: 0x8, addend: 0x0, symName: __ZNKSt3__112basic_stringIcNS_11char_traitsIcEENS_9allocatorIcEEE19__get_short_pointerB7v160006Ev, symObjAddr: 0x49560, symBinAddr: 0x10004BD70, symSize: 0x30 }
  - { offsetInCU: 0x74781, offset: 0x74781, size: 0x8, addend: 0x0, symName: __ZNKSt3__117__compressed_pairINS_12basic_stringIcNS_11char_traitsIcEENS_9allocatorIcEEE5__repES5_E5firstB7v160006Ev, symObjAddr: 0x49590, symBinAddr: 0x10004BDA0, symSize: 0x20 }
  - { offsetInCU: 0x747A7, offset: 0x747A7, size: 0x8, addend: 0x0, symName: __ZNKSt3__122__compressed_pair_elemINS_12basic_stringIcNS_11char_traitsIcEENS_9allocatorIcEEE5__repELi0ELb0EE5__getB7v160006Ev, symObjAddr: 0x495B0, symBinAddr: 0x10004BDC0, symSize: 0x10 }
  - { offsetInCU: 0x747CD, offset: 0x747CD, size: 0x8, addend: 0x0, symName: __ZNSt3__114pointer_traitsIPKcE10pointer_toB7v160006ERS1_, symObjAddr: 0x495C0, symBinAddr: 0x10004BDD0, symSize: 0x10 }
  - { offsetInCU: 0x747F0, offset: 0x747F0, size: 0x8, addend: 0x0, symName: __ZNSt3__16vectorINS_12basic_stringIcNS_11char_traitsIcEENS_9allocatorIcEEEENS4_IS6_EEE9__end_capB7v160006Ev, symObjAddr: 0x495D0, symBinAddr: 0x10004BDE0, symSize: 0x20 }
  - { offsetInCU: 0x7481C, offset: 0x7481C, size: 0x8, addend: 0x0, symName: __ZNSt3__16vectorINS_12basic_stringIcNS_11char_traitsIcEENS_9allocatorIcEEEENS4_IS6_EEE22__construct_one_at_endB7v160006IJS6_EEEvDpOT_, symObjAddr: 0x495F0, symBinAddr: 0x10004BE00, symSize: 0x2C0 }
  - { offsetInCU: 0x74871, offset: 0x74871, size: 0x8, addend: 0x0, symName: __ZNSt3__16vectorINS_12basic_stringIcNS_11char_traitsIcEENS_9allocatorIcEEEENS4_IS6_EEE21__push_back_slow_pathIS6_EEvOT_, symObjAddr: 0x498B0, symBinAddr: 0x10004C0C0, symSize: 0x330 }
  - { offsetInCU: 0x748D6, offset: 0x748D6, size: 0x8, addend: 0x0, symName: __ZNSt3__117__compressed_pairIPNS_12basic_stringIcNS_11char_traitsIcEENS_9allocatorIcEEEENS4_IS6_EEE5firstB7v160006Ev, symObjAddr: 0x49BE0, symBinAddr: 0x10004C3F0, symSize: 0x20 }
  - { offsetInCU: 0x748FC, offset: 0x748FC, size: 0x8, addend: 0x0, symName: __ZNSt3__122__compressed_pair_elemIPNS_12basic_stringIcNS_11char_traitsIcEENS_9allocatorIcEEEELi0ELb0EE5__getB7v160006Ev, symObjAddr: 0x49C00, symBinAddr: 0x10004C410, symSize: 0x10 }
  - { offsetInCU: 0x7493B, offset: 0x7493B, size: 0x8, addend: 0x0, symName: __ZNSt3__16vectorINS_12basic_stringIcNS_11char_traitsIcEENS_9allocatorIcEEEENS4_IS6_EEE21_ConstructTransactionC1B7v160006ERS8_m, symObjAddr: 0x49C10, symBinAddr: 0x10004C420, symSize: 0x30 }
  - { offsetInCU: 0x74983, offset: 0x74983, size: 0x8, addend: 0x0, symName: __ZNSt3__116allocator_traitsINS_9allocatorINS_12basic_stringIcNS_11char_traitsIcEENS1_IcEEEEEEE9constructB7v160006IS6_JS6_EvvEEvRS7_PT_DpOT0_, symObjAddr: 0x49C40, symBinAddr: 0x10004C450, symSize: 0x30 }
  - { offsetInCU: 0x749D7, offset: 0x749D7, size: 0x8, addend: 0x0, symName: __ZNSt3__16vectorINS_12basic_stringIcNS_11char_traitsIcEENS_9allocatorIcEEEENS4_IS6_EEE7__allocB7v160006Ev, symObjAddr: 0x49C70, symBinAddr: 0x10004C480, symSize: 0x20 }
  - { offsetInCU: 0x749FD, offset: 0x749FD, size: 0x8, addend: 0x0, symName: __ZNSt3__16vectorINS_12basic_stringIcNS_11char_traitsIcEENS_9allocatorIcEEEENS4_IS6_EEE21_ConstructTransactionD1B7v160006Ev, symObjAddr: 0x49CA0, symBinAddr: 0x10004C4B0, symSize: 0x20 }
  - { offsetInCU: 0x74A27, offset: 0x74A27, size: 0x8, addend: 0x0, symName: __ZNSt3__16vectorINS_12basic_stringIcNS_11char_traitsIcEENS_9allocatorIcEEEENS4_IS6_EEE21_ConstructTransactionC2B7v160006ERS8_m, symObjAddr: 0x49CC0, symBinAddr: 0x10004C4D0, symSize: 0x190 }
  - { offsetInCU: 0x74A6F, offset: 0x74A6F, size: 0x8, addend: 0x0, symName: __ZNKSt3__16vectorINS_12basic_stringIcNS_11char_traitsIcEENS_9allocatorIcEEEENS4_IS6_EEE19__annotate_increaseB7v160006Em, symObjAddr: 0x49E50, symBinAddr: 0x10004C660, symSize: 0xE0 }
  - { offsetInCU: 0x74AA4, offset: 0x74AA4, size: 0x8, addend: 0x0, symName: __ZNKSt3__16vectorINS_12basic_stringIcNS_11char_traitsIcEENS_9allocatorIcEEEENS4_IS6_EEE31__annotate_contiguous_containerEPKvSA_SA_SA_, symObjAddr: 0x49F30, symBinAddr: 0x10004C740, symSize: 0x50 }
  - { offsetInCU: 0x74B06, offset: 0x74B06, size: 0x8, addend: 0x0, symName: __ZNKSt3__16vectorINS_12basic_stringIcNS_11char_traitsIcEENS_9allocatorIcEEEENS4_IS6_EEE4dataB7v160006Ev, symObjAddr: 0x49F80, symBinAddr: 0x10004C790, symSize: 0x50 }
  - { offsetInCU: 0x74B2C, offset: 0x74B2C, size: 0x8, addend: 0x0, symName: __ZNKSt3__16vectorINS_12basic_stringIcNS_11char_traitsIcEENS_9allocatorIcEEEENS4_IS6_EEE8capacityB7v160006Ev, symObjAddr: 0x49FD0, symBinAddr: 0x10004C7E0, symSize: 0xA0 }
  - { offsetInCU: 0x74B52, offset: 0x74B52, size: 0x8, addend: 0x0, symName: __ZNKSt3__16vectorINS_12basic_stringIcNS_11char_traitsIcEENS_9allocatorIcEEEENS4_IS6_EEE9__end_capB7v160006Ev, symObjAddr: 0x4A070, symBinAddr: 0x10004C880, symSize: 0x20 }
  - { offsetInCU: 0x74B78, offset: 0x74B78, size: 0x8, addend: 0x0, symName: __ZNKSt3__117__compressed_pairIPNS_12basic_stringIcNS_11char_traitsIcEENS_9allocatorIcEEEENS4_IS6_EEE5firstB7v160006Ev, symObjAddr: 0x4A090, symBinAddr: 0x10004C8A0, symSize: 0x20 }
  - { offsetInCU: 0x74B9E, offset: 0x74B9E, size: 0x8, addend: 0x0, symName: __ZNKSt3__122__compressed_pair_elemIPNS_12basic_stringIcNS_11char_traitsIcEENS_9allocatorIcEEEELi0ELb0EE5__getB7v160006Ev, symObjAddr: 0x4A0B0, symBinAddr: 0x10004C8C0, symSize: 0x10 }
  - { offsetInCU: 0x74BC4, offset: 0x74BC4, size: 0x8, addend: 0x0, symName: __ZNSt3__112basic_stringIcNS_11char_traitsIcEENS_9allocatorIcEEEC1B7v160006EOS5_, symObjAddr: 0x4A100, symBinAddr: 0x10004C910, symSize: 0x30 }
  - { offsetInCU: 0x74BFD, offset: 0x74BFD, size: 0x8, addend: 0x0, symName: __ZNSt3__112basic_stringIcNS_11char_traitsIcEENS_9allocatorIcEEEC2B7v160006EOS5_, symObjAddr: 0x4A130, symBinAddr: 0x10004C940, symSize: 0x90 }
  - { offsetInCU: 0x74C36, offset: 0x74C36, size: 0x8, addend: 0x0, symName: __ZNSt3__112basic_stringIcNS_11char_traitsIcEENS_9allocatorIcEEE14__default_initB7v160006Ev, symObjAddr: 0x4A1C0, symBinAddr: 0x10004C9D0, symSize: 0x1A0 }
  - { offsetInCU: 0x74C5D, offset: 0x74C5D, size: 0x8, addend: 0x0, symName: __ZNSt3__117__compressed_pairINS_12basic_stringIcNS_11char_traitsIcEENS_9allocatorIcEEE5__repES5_E5firstB7v160006Ev, symObjAddr: 0x4A380, symBinAddr: 0x10004CB90, symSize: 0x20 }
  - { offsetInCU: 0x74C83, offset: 0x74C83, size: 0x8, addend: 0x0, symName: __ZNSt3__122__compressed_pair_elemINS_12basic_stringIcNS_11char_traitsIcEENS_9allocatorIcEEE5__repELi0ELb0EE5__getB7v160006Ev, symObjAddr: 0x4A3A0, symBinAddr: 0x10004CBB0, symSize: 0x10 }
  - { offsetInCU: 0x74CA9, offset: 0x74CA9, size: 0x8, addend: 0x0, symName: __ZNSt3__117__compressed_pairIPNS_12basic_stringIcNS_11char_traitsIcEENS_9allocatorIcEEEENS4_IS6_EEE6secondB7v160006Ev, symObjAddr: 0x4A3B0, symBinAddr: 0x10004CBC0, symSize: 0x20 }
  - { offsetInCU: 0x74CCF, offset: 0x74CCF, size: 0x8, addend: 0x0, symName: __ZNSt3__122__compressed_pair_elemINS_9allocatorINS_12basic_stringIcNS_11char_traitsIcEENS1_IcEEEEEELi1ELb1EE5__getB7v160006Ev, symObjAddr: 0x4A3D0, symBinAddr: 0x10004CBE0, symSize: 0x10 }
  - { offsetInCU: 0x74CF5, offset: 0x74CF5, size: 0x8, addend: 0x0, symName: __ZNSt3__16vectorINS_12basic_stringIcNS_11char_traitsIcEENS_9allocatorIcEEEENS4_IS6_EEE21_ConstructTransactionD2B7v160006Ev, symObjAddr: 0x4A3E0, symBinAddr: 0x10004CBF0, symSize: 0x230 }
  - { offsetInCU: 0x74D1F, offset: 0x74D1F, size: 0x8, addend: 0x0, symName: __ZNKSt3__16vectorINS_12basic_stringIcNS_11char_traitsIcEENS_9allocatorIcEEEENS4_IS6_EEE17__annotate_shrinkB7v160006Em, symObjAddr: 0x4A610, symBinAddr: 0x10004CE20, symSize: 0xC0 }
  - { offsetInCU: 0x74D54, offset: 0x74D54, size: 0x8, addend: 0x0, symName: __ZNKSt3__16vectorINS_12basic_stringIcNS_11char_traitsIcEENS_9allocatorIcEEEENS4_IS6_EEE11__recommendB7v160006Em, symObjAddr: 0x4A6D0, symBinAddr: 0x10004CEE0, symSize: 0x2F0 }
  - { offsetInCU: 0x74DB0, offset: 0x74DB0, size: 0x8, addend: 0x0, symName: __ZNSt3__114__split_bufferINS_12basic_stringIcNS_11char_traitsIcEENS_9allocatorIcEEEERNS4_IS6_EEEC1EmmS8_, symObjAddr: 0x4A9C0, symBinAddr: 0x10004D1D0, symSize: 0x40 }
  - { offsetInCU: 0x74E06, offset: 0x74E06, size: 0x8, addend: 0x0, symName: __ZNSt3__114__split_bufferINS_12basic_stringIcNS_11char_traitsIcEENS_9allocatorIcEEEERNS4_IS6_EEED1Ev, symObjAddr: 0x4B0D0, symBinAddr: 0x10004D8E0, symSize: 0x20 }
  - { offsetInCU: 0x74E32, offset: 0x74E32, size: 0x8, addend: 0x0, symName: __ZNKSt3__16vectorINS_12basic_stringIcNS_11char_traitsIcEENS_9allocatorIcEEEENS4_IS6_EEE8max_sizeEv, symObjAddr: 0x4B0F0, symBinAddr: 0x10004D900, symSize: 0x260 }
  - { offsetInCU: 0x74E5B, offset: 0x74E5B, size: 0x8, addend: 0x0, symName: __ZNKSt3__16vectorINS_12basic_stringIcNS_11char_traitsIcEENS_9allocatorIcEEEENS4_IS6_EEE20__throw_length_errorB7v160006Ev, symObjAddr: 0x4B350, symBinAddr: 0x10004DB60, symSize: 0x20 }
  - { offsetInCU: 0x74E8B, offset: 0x74E8B, size: 0x8, addend: 0x0, symName: __ZNSt3__116allocator_traitsINS_9allocatorINS_12basic_stringIcNS_11char_traitsIcEENS1_IcEEEEEEE8max_sizeB7v160006IS7_vvEEmRKS7_, symObjAddr: 0x4B3D0, symBinAddr: 0x10004DBE0, symSize: 0x30 }
  - { offsetInCU: 0x74EB6, offset: 0x74EB6, size: 0x8, addend: 0x0, symName: __ZNKSt3__16vectorINS_12basic_stringIcNS_11char_traitsIcEENS_9allocatorIcEEEENS4_IS6_EEE7__allocB7v160006Ev, symObjAddr: 0x4B400, symBinAddr: 0x10004DC10, symSize: 0x20 }
  - { offsetInCU: 0x74EDC, offset: 0x74EDC, size: 0x8, addend: 0x0, symName: __ZNSt3__114numeric_limitsIlE3maxB7v160006Ev, symObjAddr: 0x4B420, symBinAddr: 0x10004DC30, symSize: 0x10 }
  - { offsetInCU: 0x74F04, offset: 0x74F04, size: 0x8, addend: 0x0, symName: __ZNKSt3__16__lessImmEclB7v160006ERKmS3_, symObjAddr: 0x4B5A0, symBinAddr: 0x10004DDB0, symSize: 0xA0 }
  - { offsetInCU: 0x74F46, offset: 0x74F46, size: 0x8, addend: 0x0, symName: __ZNSt3__114numeric_limitsImE3maxB7v160006Ev, symObjAddr: 0x4B640, symBinAddr: 0x10004DE50, symSize: 0x10 }
  - { offsetInCU: 0x74F5A, offset: 0x74F5A, size: 0x8, addend: 0x0, symName: __ZNSt3__123__libcpp_numeric_limitsImLb1EE3maxB7v160006Ev, symObjAddr: 0x4B650, symBinAddr: 0x10004DE60, symSize: 0x10 }
  - { offsetInCU: 0x74F6E, offset: 0x74F6E, size: 0x8, addend: 0x0, symName: __ZNKSt3__117__compressed_pairIPNS_12basic_stringIcNS_11char_traitsIcEENS_9allocatorIcEEEENS4_IS6_EEE6secondB7v160006Ev, symObjAddr: 0x4B660, symBinAddr: 0x10004DE70, symSize: 0x20 }
  - { offsetInCU: 0x74F94, offset: 0x74F94, size: 0x8, addend: 0x0, symName: __ZNKSt3__122__compressed_pair_elemINS_9allocatorINS_12basic_stringIcNS_11char_traitsIcEENS1_IcEEEEEELi1ELb1EE5__getB7v160006Ev, symObjAddr: 0x4B680, symBinAddr: 0x10004DE90, symSize: 0x10 }
  - { offsetInCU: 0x74FBA, offset: 0x74FBA, size: 0x8, addend: 0x0, symName: __ZNSt3__123__libcpp_numeric_limitsIlLb1EE3maxB7v160006Ev, symObjAddr: 0x4B690, symBinAddr: 0x10004DEA0, symSize: 0x10 }
  - { offsetInCU: 0x74FCE, offset: 0x74FCE, size: 0x8, addend: 0x0, symName: __ZNSt12length_errorC1B7v160006EPKc, symObjAddr: 0x4B710, symBinAddr: 0x10004DF20, symSize: 0x30 }
  - { offsetInCU: 0x75006, offset: 0x75006, size: 0x8, addend: 0x0, symName: __ZNSt12length_errorC2B7v160006EPKc, symObjAddr: 0x4B740, symBinAddr: 0x10004DF50, symSize: 0x70 }
  - { offsetInCU: 0x7503E, offset: 0x7503E, size: 0x8, addend: 0x0, symName: __ZNSt3__114__split_bufferINS_12basic_stringIcNS_11char_traitsIcEENS_9allocatorIcEEEERNS4_IS6_EEEC2EmmS8_, symObjAddr: 0x4B920, symBinAddr: 0x10004E130, symSize: 0x4B0 }
  - { offsetInCU: 0x750BF, offset: 0x750BF, size: 0x8, addend: 0x0, symName: __ZNSt3__117__compressed_pairIPNS_12basic_stringIcNS_11char_traitsIcEENS_9allocatorIcEEEERNS4_IS6_EEEC1B7v160006IDnS9_EEOT_OT0_, symObjAddr: 0x4BDD0, symBinAddr: 0x10004E5E0, symSize: 0x30 }
  - { offsetInCU: 0x75117, offset: 0x75117, size: 0x8, addend: 0x0, symName: __ZNSt3__114__split_bufferINS_12basic_stringIcNS_11char_traitsIcEENS_9allocatorIcEEEERNS4_IS6_EEE7__allocB7v160006Ev, symObjAddr: 0x4C010, symBinAddr: 0x10004E820, symSize: 0x20 }
  - { offsetInCU: 0x7513D, offset: 0x7513D, size: 0x8, addend: 0x0, symName: __ZNSt3__114__split_bufferINS_12basic_stringIcNS_11char_traitsIcEENS_9allocatorIcEEEERNS4_IS6_EEE9__end_capB7v160006Ev, symObjAddr: 0x4C030, symBinAddr: 0x10004E840, symSize: 0x20 }
  - { offsetInCU: 0x75163, offset: 0x75163, size: 0x8, addend: 0x0, symName: __ZNSt3__117__compressed_pairIPNS_12basic_stringIcNS_11char_traitsIcEENS_9allocatorIcEEEERNS4_IS6_EEEC2B7v160006IDnS9_EEOT_OT0_, symObjAddr: 0x4C050, symBinAddr: 0x10004E860, symSize: 0x40 }
  - { offsetInCU: 0x751BB, offset: 0x751BB, size: 0x8, addend: 0x0, symName: __ZNSt3__122__compressed_pair_elemIPNS_12basic_stringIcNS_11char_traitsIcEENS_9allocatorIcEEEELi0ELb0EEC2B7v160006IDnvEEOT_, symObjAddr: 0x4C090, symBinAddr: 0x10004E8A0, symSize: 0x50 }
  - { offsetInCU: 0x751FD, offset: 0x751FD, size: 0x8, addend: 0x0, symName: __ZNSt3__122__compressed_pair_elemIRNS_9allocatorINS_12basic_stringIcNS_11char_traitsIcEENS1_IcEEEEEELi1ELb0EEC2B7v160006IS8_vEEOT_, symObjAddr: 0x4C0E0, symBinAddr: 0x10004E8F0, symSize: 0x60 }
  - { offsetInCU: 0x7523F, offset: 0x7523F, size: 0x8, addend: 0x0, symName: __ZNSt3__19allocatorINS_12basic_stringIcNS_11char_traitsIcEENS0_IcEEEEE8allocateB7v160006Em, symObjAddr: 0x4C140, symBinAddr: 0x10004E950, symSize: 0x50 }
  - { offsetInCU: 0x75273, offset: 0x75273, size: 0x8, addend: 0x0, symName: __ZNSt3__117__compressed_pairIPNS_12basic_stringIcNS_11char_traitsIcEENS_9allocatorIcEEEERNS4_IS6_EEE6secondB7v160006Ev, symObjAddr: 0x4C2A0, symBinAddr: 0x10004EAB0, symSize: 0x20 }
  - { offsetInCU: 0x75299, offset: 0x75299, size: 0x8, addend: 0x0, symName: __ZNSt3__122__compressed_pair_elemIRNS_9allocatorINS_12basic_stringIcNS_11char_traitsIcEENS1_IcEEEEEELi1ELb0EE5__getB7v160006Ev, symObjAddr: 0x4C2C0, symBinAddr: 0x10004EAD0, symSize: 0x50 }
  - { offsetInCU: 0x752BF, offset: 0x752BF, size: 0x8, addend: 0x0, symName: __ZNSt3__117__compressed_pairIPNS_12basic_stringIcNS_11char_traitsIcEENS_9allocatorIcEEEERNS4_IS6_EEE5firstB7v160006Ev, symObjAddr: 0x4C310, symBinAddr: 0x10004EB20, symSize: 0x20 }
  - { offsetInCU: 0x752E5, offset: 0x752E5, size: 0x8, addend: 0x0, symName: __ZNKSt3__16vectorINS_12basic_stringIcNS_11char_traitsIcEENS_9allocatorIcEEEENS4_IS6_EEE17__annotate_deleteB7v160006Ev, symObjAddr: 0x4C330, symBinAddr: 0x10004EB40, symSize: 0xD0 }
  - { offsetInCU: 0x7530B, offset: 0x7530B, size: 0x8, addend: 0x0, symName: __ZNSt3__116reverse_iteratorIPNS_12basic_stringIcNS_11char_traitsIcEENS_9allocatorIcEEEEEC1B7v160006ES7_, symObjAddr: 0x4CA60, symBinAddr: 0x10004F270, symSize: 0x30 }
  - { offsetInCU: 0x75343, offset: 0x75343, size: 0x8, addend: 0x0, symName: __ZNKSt3__116reverse_iteratorIPNS_12basic_stringIcNS_11char_traitsIcEENS_9allocatorIcEEEEE4baseB7v160006Ev, symObjAddr: 0x4CA90, symBinAddr: 0x10004F2A0, symSize: 0x50 }
  - { offsetInCU: 0x75369, offset: 0x75369, size: 0x8, addend: 0x0, symName: __ZNKSt3__16vectorINS_12basic_stringIcNS_11char_traitsIcEENS_9allocatorIcEEEENS4_IS6_EEE14__annotate_newB7v160006Em, symObjAddr: 0x4CBE0, symBinAddr: 0x10004F3F0, symSize: 0xC0 }
  - { offsetInCU: 0x7539E, offset: 0x7539E, size: 0x8, addend: 0x0, symName: __ZNSt3__129_AllocatorDestroyRangeReverseINS_9allocatorINS_12basic_stringIcNS_11char_traitsIcEENS1_IcEEEEEENS_16reverse_iteratorIPS6_EEEC1B7v160006ERS7_RSA_SD_, symObjAddr: 0x4CF50, symBinAddr: 0x10004F760, symSize: 0x40 }
  - { offsetInCU: 0x753F5, offset: 0x753F5, size: 0x8, addend: 0x0, symName: __ZNKSt3__116reverse_iteratorIPNS_12basic_stringIcNS_11char_traitsIcEENS_9allocatorIcEEEEEdeB7v160006Ev, symObjAddr: 0x4CFF0, symBinAddr: 0x10004F800, symSize: 0x60 }
  - { offsetInCU: 0x75429, offset: 0x75429, size: 0x8, addend: 0x0, symName: __ZNSt3__116reverse_iteratorIPNS_12basic_stringIcNS_11char_traitsIcEENS_9allocatorIcEEEEEppB7v160006Ev, symObjAddr: 0x4D050, symBinAddr: 0x10004F860, symSize: 0x60 }
  - { offsetInCU: 0x7544F, offset: 0x7544F, size: 0x8, addend: 0x0, symName: __ZNSt3__128__exception_guard_exceptionsINS_29_AllocatorDestroyRangeReverseINS_9allocatorINS_12basic_stringIcNS_11char_traitsIcEENS2_IcEEEEEENS_16reverse_iteratorIPS7_EEEEE10__completeB7v160006Ev, symObjAddr: 0x4D0B0, symBinAddr: 0x10004F8C0, symSize: 0x70 }
  - { offsetInCU: 0x75475, offset: 0x75475, size: 0x8, addend: 0x0, symName: __ZNSt3__128__exception_guard_exceptionsINS_29_AllocatorDestroyRangeReverseINS_9allocatorINS_12basic_stringIcNS_11char_traitsIcEENS2_IcEEEEEENS_16reverse_iteratorIPS7_EEEEED1B7v160006Ev, symObjAddr: 0x4D120, symBinAddr: 0x10004F930, symSize: 0x20 }
  - { offsetInCU: 0x7549F, offset: 0x7549F, size: 0x8, addend: 0x0, symName: __ZNSt3__128__exception_guard_exceptionsINS_29_AllocatorDestroyRangeReverseINS_9allocatorINS_12basic_stringIcNS_11char_traitsIcEENS2_IcEEEEEENS_16reverse_iteratorIPS7_EEEEEC1B7v160006ESC_, symObjAddr: 0x4D140, symBinAddr: 0x10004F950, symSize: 0x250 }
  - { offsetInCU: 0x754DC, offset: 0x754DC, size: 0x8, addend: 0x0, symName: __ZNSt3__128__exception_guard_exceptionsINS_29_AllocatorDestroyRangeReverseINS_9allocatorINS_12basic_stringIcNS_11char_traitsIcEENS2_IcEEEEEENS_16reverse_iteratorIPS7_EEEEEC2B7v160006ESC_, symObjAddr: 0x4D390, symBinAddr: 0x10004FBA0, symSize: 0x1E0 }
  - { offsetInCU: 0x75519, offset: 0x75519, size: 0x8, addend: 0x0, symName: __ZNSt3__129_AllocatorDestroyRangeReverseINS_9allocatorINS_12basic_stringIcNS_11char_traitsIcEENS1_IcEEEEEENS_16reverse_iteratorIPS6_EEEC2B7v160006ERS7_RSA_SD_, symObjAddr: 0x4D570, symBinAddr: 0x10004FD80, symSize: 0xF0 }
  - { offsetInCU: 0x75575, offset: 0x75575, size: 0x8, addend: 0x0, symName: __ZNSt3__119__to_address_helperINS_16reverse_iteratorIPNS_12basic_stringIcNS_11char_traitsIcEENS_9allocatorIcEEEEEEvE6__callB7v160006ERKS9_, symObjAddr: 0x4D660, symBinAddr: 0x10004FE70, symSize: 0x40 }
  - { offsetInCU: 0x75598, offset: 0x75598, size: 0x8, addend: 0x0, symName: __ZNKSt3__116reverse_iteratorIPNS_12basic_stringIcNS_11char_traitsIcEENS_9allocatorIcEEEEEptB7v160006Ev, symObjAddr: 0x4D6A0, symBinAddr: 0x10004FEB0, symSize: 0x60 }
  - { offsetInCU: 0x755BE, offset: 0x755BE, size: 0x8, addend: 0x0, symName: __ZNSt3__128__exception_guard_exceptionsINS_29_AllocatorDestroyRangeReverseINS_9allocatorINS_12basic_stringIcNS_11char_traitsIcEENS2_IcEEEEEENS_16reverse_iteratorIPS7_EEEEED2B7v160006Ev, symObjAddr: 0x4D9A0, symBinAddr: 0x1000501B0, symSize: 0x90 }
  - { offsetInCU: 0x755E8, offset: 0x755E8, size: 0x8, addend: 0x0, symName: __ZNKSt3__129_AllocatorDestroyRangeReverseINS_9allocatorINS_12basic_stringIcNS_11char_traitsIcEENS1_IcEEEEEENS_16reverse_iteratorIPS6_EEEclB7v160006Ev, symObjAddr: 0x4DA30, symBinAddr: 0x100050240, symSize: 0x530 }
  - { offsetInCU: 0x7560F, offset: 0x7560F, size: 0x8, addend: 0x0, symName: __ZNSt3__116reverse_iteratorINS0_IPNS_12basic_stringIcNS_11char_traitsIcEENS_9allocatorIcEEEEEEEC1B7v160006ES8_, symObjAddr: 0x4E180, symBinAddr: 0x100050990, symSize: 0x230 }
  - { offsetInCU: 0x7564C, offset: 0x7564C, size: 0x8, addend: 0x0, symName: __ZNSt3__116allocator_traitsINS_9allocatorINS_12basic_stringIcNS_11char_traitsIcEENS1_IcEEEEEEE7destroyB7v160006IS6_vvEEvRS7_PT_, symObjAddr: 0x4E670, symBinAddr: 0x100050E80, symSize: 0x20 }
  - { offsetInCU: 0x75686, offset: 0x75686, size: 0x8, addend: 0x0, symName: __ZNSt3__116reverse_iteratorINS0_IPNS_12basic_stringIcNS_11char_traitsIcEENS_9allocatorIcEEEEEEEppB7v160006Ev, symObjAddr: 0x4E6B0, symBinAddr: 0x100050EC0, symSize: 0x30 }
  - { offsetInCU: 0x756AC, offset: 0x756AC, size: 0x8, addend: 0x0, symName: __ZNKSt3__116reverse_iteratorINS0_IPNS_12basic_stringIcNS_11char_traitsIcEENS_9allocatorIcEEEEEEE4baseB7v160006Ev, symObjAddr: 0x4E6E0, symBinAddr: 0x100050EF0, symSize: 0x190 }
  - { offsetInCU: 0x756D8, offset: 0x756D8, size: 0x8, addend: 0x0, symName: __ZNSt3__119__to_address_helperINS_16reverse_iteratorINS1_IPNS_12basic_stringIcNS_11char_traitsIcEENS_9allocatorIcEEEEEEEEvE6__callB7v160006ERKSA_, symObjAddr: 0x4E8B0, symBinAddr: 0x1000510C0, symSize: 0x40 }
  - { offsetInCU: 0x756FB, offset: 0x756FB, size: 0x8, addend: 0x0, symName: __ZNKSt3__116reverse_iteratorINS0_IPNS_12basic_stringIcNS_11char_traitsIcEENS_9allocatorIcEEEEEEEptB7v160006Ev, symObjAddr: 0x4E8F0, symBinAddr: 0x100051100, symSize: 0x280 }
  - { offsetInCU: 0x75722, offset: 0x75722, size: 0x8, addend: 0x0, symName: __ZNSt3__116reverse_iteratorIPNS_12basic_stringIcNS_11char_traitsIcEENS_9allocatorIcEEEEEpLB7v160006El, symObjAddr: 0x4EE50, symBinAddr: 0x100051660, symSize: 0x80 }
  - { offsetInCU: 0x75756, offset: 0x75756, size: 0x8, addend: 0x0, symName: __ZNSt3__116reverse_iteratorIPNS_12basic_stringIcNS_11char_traitsIcEENS_9allocatorIcEEEEEmmB7v160006Ev, symObjAddr: 0x4EED0, symBinAddr: 0x1000516E0, symSize: 0x60 }
  - { offsetInCU: 0x7577C, offset: 0x7577C, size: 0x8, addend: 0x0, symName: __ZNSt3__116reverse_iteratorINS0_IPNS_12basic_stringIcNS_11char_traitsIcEENS_9allocatorIcEEEEEEEC2B7v160006ES8_, symObjAddr: 0x4EF30, symBinAddr: 0x100051740, symSize: 0x1E0 }
  - { offsetInCU: 0x757B9, offset: 0x757B9, size: 0x8, addend: 0x0, symName: __ZNSt3__116reverse_iteratorIPNS_12basic_stringIcNS_11char_traitsIcEENS_9allocatorIcEEEEEC2B7v160006ES7_, symObjAddr: 0x4F110, symBinAddr: 0x100051920, symSize: 0xA0 }
  - { offsetInCU: 0x757F1, offset: 0x757F1, size: 0x8, addend: 0x0, symName: __ZNSt3__114__split_bufferINS_12basic_stringIcNS_11char_traitsIcEENS_9allocatorIcEEEERNS4_IS6_EEED2Ev, symObjAddr: 0x4F1B0, symBinAddr: 0x1000519C0, symSize: 0xD0 }
  - { offsetInCU: 0x7581D, offset: 0x7581D, size: 0x8, addend: 0x0, symName: __ZNSt3__114__split_bufferINS_12basic_stringIcNS_11char_traitsIcEENS_9allocatorIcEEEERNS4_IS6_EEE5clearB7v160006Ev, symObjAddr: 0x4F280, symBinAddr: 0x100051A90, symSize: 0x60 }
  - { offsetInCU: 0x75843, offset: 0x75843, size: 0x8, addend: 0x0, symName: __ZNSt3__116allocator_traitsINS_9allocatorINS_12basic_stringIcNS_11char_traitsIcEENS1_IcEEEEEEE10deallocateB7v160006ERS7_PS6_m, symObjAddr: 0x4F2E0, symBinAddr: 0x100051AF0, symSize: 0x30 }
  - { offsetInCU: 0x75885, offset: 0x75885, size: 0x8, addend: 0x0, symName: __ZNKSt3__114__split_bufferINS_12basic_stringIcNS_11char_traitsIcEENS_9allocatorIcEEEERNS4_IS6_EEE8capacityB7v160006Ev, symObjAddr: 0x4F310, symBinAddr: 0x100051B20, symSize: 0xA0 }
  - { offsetInCU: 0x758AB, offset: 0x758AB, size: 0x8, addend: 0x0, symName: __ZNSt3__114__split_bufferINS_12basic_stringIcNS_11char_traitsIcEENS_9allocatorIcEEEERNS4_IS6_EEE17__destruct_at_endB7v160006EPS6_, symObjAddr: 0x4F3B0, symBinAddr: 0x100051BC0, symSize: 0x30 }
  - { offsetInCU: 0x758DF, offset: 0x758DF, size: 0x8, addend: 0x0, symName: __ZNSt3__114__split_bufferINS_12basic_stringIcNS_11char_traitsIcEENS_9allocatorIcEEEERNS4_IS6_EEE17__destruct_at_endB7v160006EPS6_NS_17integral_constantIbLb0EEE, symObjAddr: 0x4F3E0, symBinAddr: 0x100051BF0, symSize: 0xF0 }
  - { offsetInCU: 0x75920, offset: 0x75920, size: 0x8, addend: 0x0, symName: __ZNSt3__19allocatorINS_12basic_stringIcNS_11char_traitsIcEENS0_IcEEEEE10deallocateB7v160006EPS5_m, symObjAddr: 0x4F4D0, symBinAddr: 0x100051CE0, symSize: 0x50 }
  - { offsetInCU: 0x75962, offset: 0x75962, size: 0x8, addend: 0x0, symName: __ZNKSt3__114__split_bufferINS_12basic_stringIcNS_11char_traitsIcEENS_9allocatorIcEEEERNS4_IS6_EEE9__end_capB7v160006Ev, symObjAddr: 0x4F620, symBinAddr: 0x100051E30, symSize: 0x20 }
  - { offsetInCU: 0x75988, offset: 0x75988, size: 0x8, addend: 0x0, symName: __ZNKSt3__117__compressed_pairIPNS_12basic_stringIcNS_11char_traitsIcEENS_9allocatorIcEEEERNS4_IS6_EEE5firstB7v160006Ev, symObjAddr: 0x4F640, symBinAddr: 0x100051E50, symSize: 0x20 }
  - { offsetInCU: 0x759AE, offset: 0x759AE, size: 0x8, addend: 0x0, symName: __ZNSt3__112basic_stringIcNS_11char_traitsIcEENS_9allocatorIcEEEC2B7v160006IDnEEPKc, symObjAddr: 0x4F660, symBinAddr: 0x100051E70, symSize: 0x190 }
  - { offsetInCU: 0x759F4, offset: 0x759F4, size: 0x8, addend: 0x0, symName: __ZNSt3__117__compressed_pairINS_12basic_stringIcNS_11char_traitsIcEENS_9allocatorIcEEE5__repES5_EC1B7v160006INS_18__default_init_tagESA_EEOT_OT0_, symObjAddr: 0x4F7F0, symBinAddr: 0x100052000, symSize: 0x30 }
  - { offsetInCU: 0x75A4C, offset: 0x75A4C, size: 0x8, addend: 0x0, symName: __ZNSt3__111char_traitsIcE6lengthEPKc, symObjAddr: 0x4F820, symBinAddr: 0x100052030, symSize: 0x40 }
  - { offsetInCU: 0x75A6F, offset: 0x75A6F, size: 0x8, addend: 0x0, symName: __ZNSt3__117__compressed_pairINS_12basic_stringIcNS_11char_traitsIcEENS_9allocatorIcEEE5__repES5_EC2B7v160006INS_18__default_init_tagESA_EEOT_OT0_, symObjAddr: 0x4F860, symBinAddr: 0x100052070, symSize: 0x30 }
  - { offsetInCU: 0x75AC7, offset: 0x75AC7, size: 0x8, addend: 0x0, symName: __ZNSt3__122__compressed_pair_elemINS_12basic_stringIcNS_11char_traitsIcEENS_9allocatorIcEEE5__repELi0ELb0EEC2B7v160006ENS_18__default_init_tagE, symObjAddr: 0x4F890, symBinAddr: 0x1000520A0, symSize: 0x10 }
  - { offsetInCU: 0x75AFC, offset: 0x75AFC, size: 0x8, addend: 0x0, symName: __ZNSt3__122__compressed_pair_elemINS_9allocatorIcEELi1ELb1EEC2B7v160006ENS_18__default_init_tagE, symObjAddr: 0x4F8A0, symBinAddr: 0x1000520B0, symSize: 0x20 }
  - { offsetInCU: 0x75B31, offset: 0x75B31, size: 0x8, addend: 0x0, symName: __ZNSt3__19allocatorIcEC2B7v160006Ev, symObjAddr: 0x4F8C0, symBinAddr: 0x1000520D0, symSize: 0x20 }
  - { offsetInCU: 0x75B5B, offset: 0x75B5B, size: 0x8, addend: 0x0, symName: __ZNSt3__116__non_trivial_ifILb1ENS_9allocatorIcEEEC2B7v160006Ev, symObjAddr: 0x4F8E0, symBinAddr: 0x1000520F0, symSize: 0x10 }
  - { offsetInCU: 0x75B85, offset: 0x75B85, size: 0x8, addend: 0x0, symName: __ZNSt3__16vectorIKNS_12basic_stringIcNS_11char_traitsIcEENS_9allocatorIcEEEENS4_IS7_EEE9__end_capB7v160006Ev, symObjAddr: 0x4F910, symBinAddr: 0x100052120, symSize: 0x20 }
  - { offsetInCU: 0x75BAB, offset: 0x75BAB, size: 0x8, addend: 0x0, symName: __ZNSt3__16vectorIKNS_12basic_stringIcNS_11char_traitsIcEENS_9allocatorIcEEEENS4_IS7_EEE22__construct_one_at_endB7v160006IJRS7_EEEvDpOT_, symObjAddr: 0x4F930, symBinAddr: 0x100052140, symSize: 0x2C0 }
  - { offsetInCU: 0x75C00, offset: 0x75C00, size: 0x8, addend: 0x0, symName: __ZNSt3__16vectorIKNS_12basic_stringIcNS_11char_traitsIcEENS_9allocatorIcEEEENS4_IS7_EEE21__push_back_slow_pathIRS7_EEvOT_, symObjAddr: 0x4FBF0, symBinAddr: 0x100052400, symSize: 0x330 }
  - { offsetInCU: 0x75C65, offset: 0x75C65, size: 0x8, addend: 0x0, symName: __ZNSt3__117__compressed_pairIPKNS_12basic_stringIcNS_11char_traitsIcEENS_9allocatorIcEEEENS4_IS7_EEE5firstB7v160006Ev, symObjAddr: 0x4FF20, symBinAddr: 0x100052730, symSize: 0x20 }
  - { offsetInCU: 0x75C8B, offset: 0x75C8B, size: 0x8, addend: 0x0, symName: __ZNSt3__122__compressed_pair_elemIPKNS_12basic_stringIcNS_11char_traitsIcEENS_9allocatorIcEEEELi0ELb0EE5__getB7v160006Ev, symObjAddr: 0x4FF40, symBinAddr: 0x100052750, symSize: 0x10 }
  - { offsetInCU: 0x75CCA, offset: 0x75CCA, size: 0x8, addend: 0x0, symName: __ZNSt3__16vectorIKNS_12basic_stringIcNS_11char_traitsIcEENS_9allocatorIcEEEENS4_IS7_EEE21_ConstructTransactionC1B7v160006ERS9_m, symObjAddr: 0x4FF50, symBinAddr: 0x100052760, symSize: 0x30 }
  - { offsetInCU: 0x75D12, offset: 0x75D12, size: 0x8, addend: 0x0, symName: __ZNSt3__116allocator_traitsINS_9allocatorIKNS_12basic_stringIcNS_11char_traitsIcEENS1_IcEEEEEEE9constructB7v160006IS7_JRS7_EvvEEvRS8_PT_DpOT0_, symObjAddr: 0x4FF80, symBinAddr: 0x100052790, symSize: 0x30 }
  - { offsetInCU: 0x75D66, offset: 0x75D66, size: 0x8, addend: 0x0, symName: __ZNSt3__16vectorIKNS_12basic_stringIcNS_11char_traitsIcEENS_9allocatorIcEEEENS4_IS7_EEE7__allocB7v160006Ev, symObjAddr: 0x4FFB0, symBinAddr: 0x1000527C0, symSize: 0x20 }
  - { offsetInCU: 0x75D8C, offset: 0x75D8C, size: 0x8, addend: 0x0, symName: __ZNSt3__16vectorIKNS_12basic_stringIcNS_11char_traitsIcEENS_9allocatorIcEEEENS4_IS7_EEE21_ConstructTransactionD1B7v160006Ev, symObjAddr: 0x4FFE0, symBinAddr: 0x1000527F0, symSize: 0x20 }
  - { offsetInCU: 0x75DB6, offset: 0x75DB6, size: 0x8, addend: 0x0, symName: __ZNSt3__16vectorIKNS_12basic_stringIcNS_11char_traitsIcEENS_9allocatorIcEEEENS4_IS7_EEE21_ConstructTransactionC2B7v160006ERS9_m, symObjAddr: 0x50000, symBinAddr: 0x100052810, symSize: 0x190 }
  - { offsetInCU: 0x75DFE, offset: 0x75DFE, size: 0x8, addend: 0x0, symName: __ZNKSt3__16vectorIKNS_12basic_stringIcNS_11char_traitsIcEENS_9allocatorIcEEEENS4_IS7_EEE19__annotate_increaseB7v160006Em, symObjAddr: 0x50190, symBinAddr: 0x1000529A0, symSize: 0xE0 }
  - { offsetInCU: 0x75E33, offset: 0x75E33, size: 0x8, addend: 0x0, symName: __ZNKSt3__16vectorIKNS_12basic_stringIcNS_11char_traitsIcEENS_9allocatorIcEEEENS4_IS7_EEE31__annotate_contiguous_containerEPKvSB_SB_SB_, symObjAddr: 0x50270, symBinAddr: 0x100052A80, symSize: 0x50 }
  - { offsetInCU: 0x75E95, offset: 0x75E95, size: 0x8, addend: 0x0, symName: __ZNKSt3__16vectorIKNS_12basic_stringIcNS_11char_traitsIcEENS_9allocatorIcEEEENS4_IS7_EEE4dataB7v160006Ev, symObjAddr: 0x502C0, symBinAddr: 0x100052AD0, symSize: 0x50 }
  - { offsetInCU: 0x75EBB, offset: 0x75EBB, size: 0x8, addend: 0x0, symName: __ZNKSt3__16vectorIKNS_12basic_stringIcNS_11char_traitsIcEENS_9allocatorIcEEEENS4_IS7_EEE8capacityB7v160006Ev, symObjAddr: 0x50310, symBinAddr: 0x100052B20, symSize: 0xA0 }
  - { offsetInCU: 0x75EE1, offset: 0x75EE1, size: 0x8, addend: 0x0, symName: __ZNKSt3__16vectorIKNS_12basic_stringIcNS_11char_traitsIcEENS_9allocatorIcEEEENS4_IS7_EEE9__end_capB7v160006Ev, symObjAddr: 0x503B0, symBinAddr: 0x100052BC0, symSize: 0x20 }
  - { offsetInCU: 0x75F07, offset: 0x75F07, size: 0x8, addend: 0x0, symName: __ZNKSt3__117__compressed_pairIPKNS_12basic_stringIcNS_11char_traitsIcEENS_9allocatorIcEEEENS4_IS7_EEE5firstB7v160006Ev, symObjAddr: 0x503D0, symBinAddr: 0x100052BE0, symSize: 0x20 }
  - { offsetInCU: 0x75F2D, offset: 0x75F2D, size: 0x8, addend: 0x0, symName: __ZNKSt3__122__compressed_pair_elemIPKNS_12basic_stringIcNS_11char_traitsIcEENS_9allocatorIcEEEELi0ELb0EE5__getB7v160006Ev, symObjAddr: 0x503F0, symBinAddr: 0x100052C00, symSize: 0x10 }
  - { offsetInCU: 0x75F53, offset: 0x75F53, size: 0x8, addend: 0x0, symName: __ZNSt3__117__compressed_pairIPKNS_12basic_stringIcNS_11char_traitsIcEENS_9allocatorIcEEEENS4_IS7_EEE6secondB7v160006Ev, symObjAddr: 0x50440, symBinAddr: 0x100052C50, symSize: 0x20 }
  - { offsetInCU: 0x75F79, offset: 0x75F79, size: 0x8, addend: 0x0, symName: __ZNSt3__122__compressed_pair_elemINS_9allocatorIKNS_12basic_stringIcNS_11char_traitsIcEENS1_IcEEEEEELi1ELb1EE5__getB7v160006Ev, symObjAddr: 0x50460, symBinAddr: 0x100052C70, symSize: 0x10 }
  - { offsetInCU: 0x75F9F, offset: 0x75F9F, size: 0x8, addend: 0x0, symName: __ZNSt3__16vectorIKNS_12basic_stringIcNS_11char_traitsIcEENS_9allocatorIcEEEENS4_IS7_EEE21_ConstructTransactionD2B7v160006Ev, symObjAddr: 0x50470, symBinAddr: 0x100052C80, symSize: 0x230 }
  - { offsetInCU: 0x75FC9, offset: 0x75FC9, size: 0x8, addend: 0x0, symName: __ZNKSt3__16vectorIKNS_12basic_stringIcNS_11char_traitsIcEENS_9allocatorIcEEEENS4_IS7_EEE17__annotate_shrinkB7v160006Em, symObjAddr: 0x506A0, symBinAddr: 0x100052EB0, symSize: 0xC0 }
  - { offsetInCU: 0x75FFE, offset: 0x75FFE, size: 0x8, addend: 0x0, symName: __ZNKSt3__16vectorIKNS_12basic_stringIcNS_11char_traitsIcEENS_9allocatorIcEEEENS4_IS7_EEE11__recommendB7v160006Em, symObjAddr: 0x50760, symBinAddr: 0x100052F70, symSize: 0x2F0 }
  - { offsetInCU: 0x7605A, offset: 0x7605A, size: 0x8, addend: 0x0, symName: __ZNSt3__114__split_bufferIKNS_12basic_stringIcNS_11char_traitsIcEENS_9allocatorIcEEEERNS4_IS7_EEEC1EmmS9_, symObjAddr: 0x50A50, symBinAddr: 0x100053260, symSize: 0x40 }
  - { offsetInCU: 0x760B0, offset: 0x760B0, size: 0x8, addend: 0x0, symName: __ZNSt3__114__split_bufferIKNS_12basic_stringIcNS_11char_traitsIcEENS_9allocatorIcEEEERNS4_IS7_EEED1Ev, symObjAddr: 0x51160, symBinAddr: 0x100053970, symSize: 0x20 }
  - { offsetInCU: 0x760DC, offset: 0x760DC, size: 0x8, addend: 0x0, symName: __ZNKSt3__16vectorIKNS_12basic_stringIcNS_11char_traitsIcEENS_9allocatorIcEEEENS4_IS7_EEE8max_sizeEv, symObjAddr: 0x51180, symBinAddr: 0x100053990, symSize: 0x260 }
  - { offsetInCU: 0x76105, offset: 0x76105, size: 0x8, addend: 0x0, symName: __ZNKSt3__16vectorIKNS_12basic_stringIcNS_11char_traitsIcEENS_9allocatorIcEEEENS4_IS7_EEE20__throw_length_errorB7v160006Ev, symObjAddr: 0x513E0, symBinAddr: 0x100053BF0, symSize: 0x20 }
  - { offsetInCU: 0x76135, offset: 0x76135, size: 0x8, addend: 0x0, symName: __ZNSt3__116allocator_traitsINS_9allocatorIKNS_12basic_stringIcNS_11char_traitsIcEENS1_IcEEEEEEE8max_sizeB7v160006IS8_vvEEmRKS8_, symObjAddr: 0x51400, symBinAddr: 0x100053C10, symSize: 0x30 }
  - { offsetInCU: 0x76160, offset: 0x76160, size: 0x8, addend: 0x0, symName: __ZNKSt3__16vectorIKNS_12basic_stringIcNS_11char_traitsIcEENS_9allocatorIcEEEENS4_IS7_EEE7__allocB7v160006Ev, symObjAddr: 0x51430, symBinAddr: 0x100053C40, symSize: 0x20 }
  - { offsetInCU: 0x76186, offset: 0x76186, size: 0x8, addend: 0x0, symName: __ZNKSt3__117__compressed_pairIPKNS_12basic_stringIcNS_11char_traitsIcEENS_9allocatorIcEEEENS4_IS7_EEE6secondB7v160006Ev, symObjAddr: 0x51450, symBinAddr: 0x100053C60, symSize: 0x20 }
  - { offsetInCU: 0x761AC, offset: 0x761AC, size: 0x8, addend: 0x0, symName: __ZNKSt3__122__compressed_pair_elemINS_9allocatorIKNS_12basic_stringIcNS_11char_traitsIcEENS1_IcEEEEEELi1ELb1EE5__getB7v160006Ev, symObjAddr: 0x51470, symBinAddr: 0x100053C80, symSize: 0x10 }
  - { offsetInCU: 0x761D2, offset: 0x761D2, size: 0x8, addend: 0x0, symName: __ZNSt3__114__split_bufferIKNS_12basic_stringIcNS_11char_traitsIcEENS_9allocatorIcEEEERNS4_IS7_EEEC2EmmS9_, symObjAddr: 0x51480, symBinAddr: 0x100053C90, symSize: 0x4B0 }
  - { offsetInCU: 0x7624D, offset: 0x7624D, size: 0x8, addend: 0x0, symName: __ZNSt3__117__compressed_pairIPKNS_12basic_stringIcNS_11char_traitsIcEENS_9allocatorIcEEEERNS4_IS7_EEEC1B7v160006IDnSA_EEOT_OT0_, symObjAddr: 0x51930, symBinAddr: 0x100054140, symSize: 0x30 }
  - { offsetInCU: 0x762A5, offset: 0x762A5, size: 0x8, addend: 0x0, symName: __ZNSt3__114__split_bufferIKNS_12basic_stringIcNS_11char_traitsIcEENS_9allocatorIcEEEERNS4_IS7_EEE7__allocB7v160006Ev, symObjAddr: 0x51B70, symBinAddr: 0x100054380, symSize: 0x20 }
  - { offsetInCU: 0x762CB, offset: 0x762CB, size: 0x8, addend: 0x0, symName: __ZNSt3__114__split_bufferIKNS_12basic_stringIcNS_11char_traitsIcEENS_9allocatorIcEEEERNS4_IS7_EEE9__end_capB7v160006Ev, symObjAddr: 0x51B90, symBinAddr: 0x1000543A0, symSize: 0x20 }
  - { offsetInCU: 0x762F1, offset: 0x762F1, size: 0x8, addend: 0x0, symName: __ZNSt3__117__compressed_pairIPKNS_12basic_stringIcNS_11char_traitsIcEENS_9allocatorIcEEEERNS4_IS7_EEEC2B7v160006IDnSA_EEOT_OT0_, symObjAddr: 0x51BB0, symBinAddr: 0x1000543C0, symSize: 0x40 }
  - { offsetInCU: 0x76349, offset: 0x76349, size: 0x8, addend: 0x0, symName: __ZNSt3__122__compressed_pair_elemIPKNS_12basic_stringIcNS_11char_traitsIcEENS_9allocatorIcEEEELi0ELb0EEC2B7v160006IDnvEEOT_, symObjAddr: 0x51BF0, symBinAddr: 0x100054400, symSize: 0x50 }
  - { offsetInCU: 0x7638B, offset: 0x7638B, size: 0x8, addend: 0x0, symName: __ZNSt3__122__compressed_pair_elemIRNS_9allocatorIKNS_12basic_stringIcNS_11char_traitsIcEENS1_IcEEEEEELi1ELb0EEC2B7v160006IS9_vEEOT_, symObjAddr: 0x51C40, symBinAddr: 0x100054450, symSize: 0x60 }
  - { offsetInCU: 0x763CD, offset: 0x763CD, size: 0x8, addend: 0x0, symName: __ZNSt3__19allocatorIKNS_12basic_stringIcNS_11char_traitsIcEENS0_IcEEEEE8allocateB7v160006Em, symObjAddr: 0x51CA0, symBinAddr: 0x1000544B0, symSize: 0x50 }
  - { offsetInCU: 0x76401, offset: 0x76401, size: 0x8, addend: 0x0, symName: __ZNSt3__117__compressed_pairIPKNS_12basic_stringIcNS_11char_traitsIcEENS_9allocatorIcEEEERNS4_IS7_EEE6secondB7v160006Ev, symObjAddr: 0x51CF0, symBinAddr: 0x100054500, symSize: 0x20 }
  - { offsetInCU: 0x76427, offset: 0x76427, size: 0x8, addend: 0x0, symName: __ZNSt3__122__compressed_pair_elemIRNS_9allocatorIKNS_12basic_stringIcNS_11char_traitsIcEENS1_IcEEEEEELi1ELb0EE5__getB7v160006Ev, symObjAddr: 0x51D10, symBinAddr: 0x100054520, symSize: 0x50 }
  - { offsetInCU: 0x7644D, offset: 0x7644D, size: 0x8, addend: 0x0, symName: __ZNSt3__117__compressed_pairIPKNS_12basic_stringIcNS_11char_traitsIcEENS_9allocatorIcEEEERNS4_IS7_EEE5firstB7v160006Ev, symObjAddr: 0x51D60, symBinAddr: 0x100054570, symSize: 0x20 }
  - { offsetInCU: 0x76473, offset: 0x76473, size: 0x8, addend: 0x0, symName: __ZNKSt3__16vectorIKNS_12basic_stringIcNS_11char_traitsIcEENS_9allocatorIcEEEENS4_IS7_EEE17__annotate_deleteB7v160006Ev, symObjAddr: 0x51D80, symBinAddr: 0x100054590, symSize: 0xD0 }
  - { offsetInCU: 0x76499, offset: 0x76499, size: 0x8, addend: 0x0, symName: __ZNSt3__116reverse_iteratorIPKNS_12basic_stringIcNS_11char_traitsIcEENS_9allocatorIcEEEEEC1B7v160006ES8_, symObjAddr: 0x524B0, symBinAddr: 0x100054CC0, symSize: 0x30 }
  - { offsetInCU: 0x764D1, offset: 0x764D1, size: 0x8, addend: 0x0, symName: __ZNKSt3__116reverse_iteratorIPKNS_12basic_stringIcNS_11char_traitsIcEENS_9allocatorIcEEEEE4baseB7v160006Ev, symObjAddr: 0x524E0, symBinAddr: 0x100054CF0, symSize: 0x50 }
  - { offsetInCU: 0x764F7, offset: 0x764F7, size: 0x8, addend: 0x0, symName: __ZNKSt3__16vectorIKNS_12basic_stringIcNS_11char_traitsIcEENS_9allocatorIcEEEENS4_IS7_EEE14__annotate_newB7v160006Em, symObjAddr: 0x52630, symBinAddr: 0x100054E40, symSize: 0xC0 }
  - { offsetInCU: 0x7652C, offset: 0x7652C, size: 0x8, addend: 0x0, symName: __ZNSt3__129_AllocatorDestroyRangeReverseINS_9allocatorIKNS_12basic_stringIcNS_11char_traitsIcEENS1_IcEEEEEENS_16reverse_iteratorIPS7_EEEC1B7v160006ERS8_RSB_SE_, symObjAddr: 0x529A0, symBinAddr: 0x1000551B0, symSize: 0x40 }
  - { offsetInCU: 0x76583, offset: 0x76583, size: 0x8, addend: 0x0, symName: __ZNKSt3__116reverse_iteratorIPKNS_12basic_stringIcNS_11char_traitsIcEENS_9allocatorIcEEEEEdeB7v160006Ev, symObjAddr: 0x52A40, symBinAddr: 0x100055250, symSize: 0x60 }
  - { offsetInCU: 0x765B7, offset: 0x765B7, size: 0x8, addend: 0x0, symName: __ZNSt3__116reverse_iteratorIPKNS_12basic_stringIcNS_11char_traitsIcEENS_9allocatorIcEEEEEppB7v160006Ev, symObjAddr: 0x52AA0, symBinAddr: 0x1000552B0, symSize: 0x60 }
  - { offsetInCU: 0x765DD, offset: 0x765DD, size: 0x8, addend: 0x0, symName: __ZNSt3__128__exception_guard_exceptionsINS_29_AllocatorDestroyRangeReverseINS_9allocatorIKNS_12basic_stringIcNS_11char_traitsIcEENS2_IcEEEEEENS_16reverse_iteratorIPS8_EEEEE10__completeB7v160006Ev, symObjAddr: 0x52B00, symBinAddr: 0x100055310, symSize: 0x70 }
  - { offsetInCU: 0x76603, offset: 0x76603, size: 0x8, addend: 0x0, symName: __ZNSt3__128__exception_guard_exceptionsINS_29_AllocatorDestroyRangeReverseINS_9allocatorIKNS_12basic_stringIcNS_11char_traitsIcEENS2_IcEEEEEENS_16reverse_iteratorIPS8_EEEEED1B7v160006Ev, symObjAddr: 0x52B70, symBinAddr: 0x100055380, symSize: 0x20 }
  - { offsetInCU: 0x7662D, offset: 0x7662D, size: 0x8, addend: 0x0, symName: __ZNSt3__128__exception_guard_exceptionsINS_29_AllocatorDestroyRangeReverseINS_9allocatorIKNS_12basic_stringIcNS_11char_traitsIcEENS2_IcEEEEEENS_16reverse_iteratorIPS8_EEEEEC1B7v160006ESD_, symObjAddr: 0x52B90, symBinAddr: 0x1000553A0, symSize: 0x250 }
  - { offsetInCU: 0x7666A, offset: 0x7666A, size: 0x8, addend: 0x0, symName: __ZNSt3__128__exception_guard_exceptionsINS_29_AllocatorDestroyRangeReverseINS_9allocatorIKNS_12basic_stringIcNS_11char_traitsIcEENS2_IcEEEEEENS_16reverse_iteratorIPS8_EEEEEC2B7v160006ESD_, symObjAddr: 0x52DE0, symBinAddr: 0x1000555F0, symSize: 0x1E0 }
  - { offsetInCU: 0x766A7, offset: 0x766A7, size: 0x8, addend: 0x0, symName: __ZNSt3__129_AllocatorDestroyRangeReverseINS_9allocatorIKNS_12basic_stringIcNS_11char_traitsIcEENS1_IcEEEEEENS_16reverse_iteratorIPS7_EEEC2B7v160006ERS8_RSB_SE_, symObjAddr: 0x52FC0, symBinAddr: 0x1000557D0, symSize: 0xF0 }
  - { offsetInCU: 0x76703, offset: 0x76703, size: 0x8, addend: 0x0, symName: __ZNSt3__119__to_address_helperINS_16reverse_iteratorIPKNS_12basic_stringIcNS_11char_traitsIcEENS_9allocatorIcEEEEEEvE6__callB7v160006ERKSA_, symObjAddr: 0x530B0, symBinAddr: 0x1000558C0, symSize: 0x40 }
  - { offsetInCU: 0x76726, offset: 0x76726, size: 0x8, addend: 0x0, symName: __ZNKSt3__116reverse_iteratorIPKNS_12basic_stringIcNS_11char_traitsIcEENS_9allocatorIcEEEEEptB7v160006Ev, symObjAddr: 0x530F0, symBinAddr: 0x100055900, symSize: 0x60 }
  - { offsetInCU: 0x7674C, offset: 0x7674C, size: 0x8, addend: 0x0, symName: __ZNSt3__128__exception_guard_exceptionsINS_29_AllocatorDestroyRangeReverseINS_9allocatorIKNS_12basic_stringIcNS_11char_traitsIcEENS2_IcEEEEEENS_16reverse_iteratorIPS8_EEEEED2B7v160006Ev, symObjAddr: 0x533E0, symBinAddr: 0x100055BF0, symSize: 0x90 }
  - { offsetInCU: 0x76776, offset: 0x76776, size: 0x8, addend: 0x0, symName: __ZNKSt3__129_AllocatorDestroyRangeReverseINS_9allocatorIKNS_12basic_stringIcNS_11char_traitsIcEENS1_IcEEEEEENS_16reverse_iteratorIPS7_EEEclB7v160006Ev, symObjAddr: 0x53470, symBinAddr: 0x100055C80, symSize: 0x530 }
  - { offsetInCU: 0x7679D, offset: 0x7679D, size: 0x8, addend: 0x0, symName: __ZNSt3__116reverse_iteratorINS0_IPKNS_12basic_stringIcNS_11char_traitsIcEENS_9allocatorIcEEEEEEEC1B7v160006ES9_, symObjAddr: 0x53BC0, symBinAddr: 0x1000563D0, symSize: 0x230 }
  - { offsetInCU: 0x767DA, offset: 0x767DA, size: 0x8, addend: 0x0, symName: __ZNSt3__116allocator_traitsINS_9allocatorIKNS_12basic_stringIcNS_11char_traitsIcEENS1_IcEEEEEEE7destroyB7v160006IS7_vvEEvRS8_PT_, symObjAddr: 0x540B0, symBinAddr: 0x1000568C0, symSize: 0x20 }
  - { offsetInCU: 0x76814, offset: 0x76814, size: 0x8, addend: 0x0, symName: __ZNSt3__116reverse_iteratorINS0_IPKNS_12basic_stringIcNS_11char_traitsIcEENS_9allocatorIcEEEEEEEppB7v160006Ev, symObjAddr: 0x540F0, symBinAddr: 0x100056900, symSize: 0x30 }
  - { offsetInCU: 0x7683A, offset: 0x7683A, size: 0x8, addend: 0x0, symName: __ZNKSt3__116reverse_iteratorINS0_IPKNS_12basic_stringIcNS_11char_traitsIcEENS_9allocatorIcEEEEEEE4baseB7v160006Ev, symObjAddr: 0x54120, symBinAddr: 0x100056930, symSize: 0x190 }
  - { offsetInCU: 0x76866, offset: 0x76866, size: 0x8, addend: 0x0, symName: __ZNSt3__119__to_address_helperINS_16reverse_iteratorINS1_IPKNS_12basic_stringIcNS_11char_traitsIcEENS_9allocatorIcEEEEEEEEvE6__callB7v160006ERKSB_, symObjAddr: 0x542F0, symBinAddr: 0x100056B00, symSize: 0x40 }
  - { offsetInCU: 0x76889, offset: 0x76889, size: 0x8, addend: 0x0, symName: __ZNKSt3__116reverse_iteratorINS0_IPKNS_12basic_stringIcNS_11char_traitsIcEENS_9allocatorIcEEEEEEEptB7v160006Ev, symObjAddr: 0x54330, symBinAddr: 0x100056B40, symSize: 0x280 }
  - { offsetInCU: 0x768B0, offset: 0x768B0, size: 0x8, addend: 0x0, symName: __ZNSt3__116reverse_iteratorIPKNS_12basic_stringIcNS_11char_traitsIcEENS_9allocatorIcEEEEEpLB7v160006El, symObjAddr: 0x54890, symBinAddr: 0x1000570A0, symSize: 0x80 }
  - { offsetInCU: 0x768E4, offset: 0x768E4, size: 0x8, addend: 0x0, symName: __ZNSt3__116reverse_iteratorIPKNS_12basic_stringIcNS_11char_traitsIcEENS_9allocatorIcEEEEEmmB7v160006Ev, symObjAddr: 0x54910, symBinAddr: 0x100057120, symSize: 0x60 }
  - { offsetInCU: 0x7690A, offset: 0x7690A, size: 0x8, addend: 0x0, symName: __ZNSt3__116reverse_iteratorINS0_IPKNS_12basic_stringIcNS_11char_traitsIcEENS_9allocatorIcEEEEEEEC2B7v160006ES9_, symObjAddr: 0x54970, symBinAddr: 0x100057180, symSize: 0x1E0 }
  - { offsetInCU: 0x76947, offset: 0x76947, size: 0x8, addend: 0x0, symName: __ZNSt3__116reverse_iteratorIPKNS_12basic_stringIcNS_11char_traitsIcEENS_9allocatorIcEEEEEC2B7v160006ES8_, symObjAddr: 0x54B50, symBinAddr: 0x100057360, symSize: 0xA0 }
  - { offsetInCU: 0x7697F, offset: 0x7697F, size: 0x8, addend: 0x0, symName: __ZNSt3__114__split_bufferIKNS_12basic_stringIcNS_11char_traitsIcEENS_9allocatorIcEEEERNS4_IS7_EEED2Ev, symObjAddr: 0x54BF0, symBinAddr: 0x100057400, symSize: 0xD0 }
  - { offsetInCU: 0x769AB, offset: 0x769AB, size: 0x8, addend: 0x0, symName: __ZNSt3__114__split_bufferIKNS_12basic_stringIcNS_11char_traitsIcEENS_9allocatorIcEEEERNS4_IS7_EEE5clearB7v160006Ev, symObjAddr: 0x54CC0, symBinAddr: 0x1000574D0, symSize: 0x60 }
  - { offsetInCU: 0x769D1, offset: 0x769D1, size: 0x8, addend: 0x0, symName: __ZNSt3__116allocator_traitsINS_9allocatorIKNS_12basic_stringIcNS_11char_traitsIcEENS1_IcEEEEEEE10deallocateB7v160006ERS8_PS7_m, symObjAddr: 0x54D20, symBinAddr: 0x100057530, symSize: 0x50 }
  - { offsetInCU: 0x76A13, offset: 0x76A13, size: 0x8, addend: 0x0, symName: __ZNKSt3__114__split_bufferIKNS_12basic_stringIcNS_11char_traitsIcEENS_9allocatorIcEEEERNS4_IS7_EEE8capacityB7v160006Ev, symObjAddr: 0x54D70, symBinAddr: 0x100057580, symSize: 0xA0 }
  - { offsetInCU: 0x76A39, offset: 0x76A39, size: 0x8, addend: 0x0, symName: __ZNSt3__114__split_bufferIKNS_12basic_stringIcNS_11char_traitsIcEENS_9allocatorIcEEEERNS4_IS7_EEE17__destruct_at_endB7v160006EPS7_, symObjAddr: 0x54E10, symBinAddr: 0x100057620, symSize: 0x30 }
  - { offsetInCU: 0x76A6D, offset: 0x76A6D, size: 0x8, addend: 0x0, symName: __ZNSt3__114__split_bufferIKNS_12basic_stringIcNS_11char_traitsIcEENS_9allocatorIcEEEERNS4_IS7_EEE17__destruct_at_endB7v160006EPS7_NS_17integral_constantIbLb0EEE, symObjAddr: 0x54E40, symBinAddr: 0x100057650, symSize: 0xF0 }
  - { offsetInCU: 0x76AAE, offset: 0x76AAE, size: 0x8, addend: 0x0, symName: __ZNSt3__19allocatorIKNS_12basic_stringIcNS_11char_traitsIcEENS0_IcEEEEE10deallocateB7v160006EPS6_m, symObjAddr: 0x54F30, symBinAddr: 0x100057740, symSize: 0x30 }
  - { offsetInCU: 0x76AF0, offset: 0x76AF0, size: 0x8, addend: 0x0, symName: __ZNKSt3__114__split_bufferIKNS_12basic_stringIcNS_11char_traitsIcEENS_9allocatorIcEEEERNS4_IS7_EEE9__end_capB7v160006Ev, symObjAddr: 0x54F60, symBinAddr: 0x100057770, symSize: 0x20 }
  - { offsetInCU: 0x76B16, offset: 0x76B16, size: 0x8, addend: 0x0, symName: __ZNKSt3__117__compressed_pairIPKNS_12basic_stringIcNS_11char_traitsIcEENS_9allocatorIcEEEERNS4_IS7_EEE5firstB7v160006Ev, symObjAddr: 0x54F80, symBinAddr: 0x100057790, symSize: 0x20 }
  - { offsetInCU: 0x76B3C, offset: 0x76B3C, size: 0x8, addend: 0x0, symName: __ZNSt3__16vectorIKNS_12basic_stringIcNS_11char_traitsIcEENS_9allocatorIcEEEENS4_IS7_EEE11__make_iterB7v160006EPS7_, symObjAddr: 0x54FA0, symBinAddr: 0x1000577B0, symSize: 0x180 }
  - { offsetInCU: 0x76B73, offset: 0x76B73, size: 0x8, addend: 0x0, symName: __ZNSt3__111__wrap_iterIPKNS_12basic_stringIcNS_11char_traitsIcEENS_9allocatorIcEEEEEC1B7v160006EPKvS8_, symObjAddr: 0x55120, symBinAddr: 0x100057930, symSize: 0x30 }
  - { offsetInCU: 0x76BB9, offset: 0x76BB9, size: 0x8, addend: 0x0, symName: __ZNSt3__111__wrap_iterIPKNS_12basic_stringIcNS_11char_traitsIcEENS_9allocatorIcEEEEEC2B7v160006EPKvS8_, symObjAddr: 0x55150, symBinAddr: 0x100057960, symSize: 0x60 }
  - { offsetInCU: 0x76BFF, offset: 0x76BFF, size: 0x8, addend: 0x0, symName: __ZNKSt3__111__wrap_iterIPKNS_12basic_stringIcNS_11char_traitsIcEENS_9allocatorIcEEEEE4baseB7v160006Ev, symObjAddr: 0x551F0, symBinAddr: 0x100057A00, symSize: 0x50 }
  - { offsetInCU: 0x76C25, offset: 0x76C25, size: 0x8, addend: 0x0, symName: __ZNKSt3__16vectorIKNS_12basic_stringIcNS_11char_traitsIcEENS_9allocatorIcEEEENS4_IS7_EEE11__make_iterB7v160006EPS7_, symObjAddr: 0x55240, symBinAddr: 0x100057A50, symSize: 0x180 }
  - { offsetInCU: 0x76C5C, offset: 0x76C5C, size: 0x8, addend: 0x0, symName: __ZN3vkb6detail15VulkanFunctionsD1Ev, symObjAddr: 0x553C0, symBinAddr: 0x100057BD0, symSize: 0x20 }
  - { offsetInCU: 0x76C88, offset: 0x76C88, size: 0x8, addend: 0x0, symName: __ZN3vkb6detail15VulkanFunctionsD2Ev, symObjAddr: 0x553E0, symBinAddr: 0x100057BF0, symSize: 0x20 }
  - { offsetInCU: 0x76CB4, offset: 0x76CB4, size: 0x8, addend: 0x0, symName: __ZNKSt3__16vectorI17VkLayerPropertiesNS_9allocatorIS1_EEE11__make_iterB7v160006EPKS1_, symObjAddr: 0x55400, symBinAddr: 0x100057C10, symSize: 0x180 }
